 0x000000000000000e (SONAME)             Library soname: [libprotoc.so]
_ZN54protobuf_google_2fprotobuf_2fcompiler_2fplugin_2eproto11TableStruct7offsetsE R
_ZN54protobuf_google_2fprotobuf_2fcompiler_2fplugin_2eproto14AddDescriptorsEv T
_ZN54protobuf_google_2fprotobuf_2fcompiler_2fplugin_2eproto18AddDescriptorsImplEv T
_ZN54protobuf_google_2fprotobuf_2fcompiler_2fplugin_2eproto19InitDefaultsVersionEv T
_ZN54protobuf_google_2fprotobuf_2fcompiler_2fplugin_2eproto19file_level_metadataE B 0000000000000040
_ZN54protobuf_google_2fprotobuf_2fcompiler_2fplugin_2eproto22protobuf_RegisterTypesERKNSt7__cxx1112basic_stringIcSt11char_traitsIcESaIcEEE T
_ZN54protobuf_google_2fprotobuf_2fcompiler_2fplugin_2eproto23InitDefaultsVersionImplEv T
_ZN54protobuf_google_2fprotobuf_2fcompiler_2fplugin_2eproto26protobuf_AssignDescriptorsEv T
_ZN54protobuf_google_2fprotobuf_2fcompiler_2fplugin_2eproto29static_descriptor_initializerE B 0000000000000001
_ZN54protobuf_google_2fprotobuf_2fcompiler_2fplugin_2eproto30protobuf_AssignDescriptorsOnceEv T
_ZN54protobuf_google_2fprotobuf_2fcompiler_2fplugin_2eproto32InitDefaultsCodeGeneratorRequestEv T
_ZN54protobuf_google_2fprotobuf_2fcompiler_2fplugin_2eproto33InitDefaultsCodeGeneratorResponseEv T
_ZN54protobuf_google_2fprotobuf_2fcompiler_2fplugin_2eproto36InitDefaultsCodeGeneratorRequestImplEv T
_ZN54protobuf_google_2fprotobuf_2fcompiler_2fplugin_2eproto37InitDefaultsCodeGeneratorResponseImplEv T
_ZN54protobuf_google_2fprotobuf_2fcompiler_2fplugin_2eproto38InitDefaultsCodeGeneratorResponse_FileEv T
_ZN54protobuf_google_2fprotobuf_2fcompiler_2fplugin_2eproto42InitDefaultsCodeGeneratorResponse_FileImplEv T
_ZN6google8protobuf13RepeatedFieldIiE7ReserveEi W
_ZN6google8protobuf14SourceLocationD1Ev W
_ZN6google8protobuf14SourceLocationD2Ev W
_ZN6google8protobuf15HasSuffixStringERKNSt7__cxx1112basic_stringIcSt11char_traitsIcESaIcEEES8_ W
_ZN6google8protobuf15STLDeleteValuesINS0_8hash_mapINSt7__cxx1112basic_stringIcSt11char_traitsIcESaIcEEEPNS0_8compiler20CommandLineInterface20GeneratorContextImplENS0_4hashIS8_EESt8equal_toIS8_ESaISt4pairIKS8_SC_EEEEEEvPT_ W
_ZN6google8protobuf2io24AnnotationProtoCollectorINS0_17GeneratedCodeInfoEE13AddAnnotationEmmRKNSt7__cxx1112basic_stringIcSt11char_traitsIcESaIcEEERKSt6vectorIiSaIiEE W
_ZN6google8protobuf2io24AnnotationProtoCollectorINS0_17GeneratedCodeInfoEED0Ev W
_ZN6google8protobuf2io24AnnotationProtoCollectorINS0_17GeneratedCodeInfoEED1Ev W
_ZN6google8protobuf2io24AnnotationProtoCollectorINS0_17GeneratedCodeInfoEED2Ev W
_ZN6google8protobuf2io7Printer8AnnotateINS0_15FieldDescriptorEEEvPKcS6_PKT_ W
_ZN6google8protobuf4JoinISt6vectorINSt7__cxx1112basic_stringIcSt11char_traitsIcESaIcEEESaIS8_EEEES8_RKT_PKc W
_ZN6google8protobuf5Arena3OwnINS0_8compiler20CodeGeneratorRequestEEEvPT_ W
_ZN6google8protobuf5Arena3OwnINS0_8compiler21CodeGeneratorResponseEEEvPT_ W
_ZN6google8protobuf5Arena3OwnINS0_8compiler26CodeGeneratorResponse_FileEEEvPT_ W
_ZN6google8protobuf5Arena3OwnINS0_8compiler7VersionEEEvPT_ W
_ZN6google8protobuf5Arena3OwnINSt7__cxx1112basic_stringIcSt11char_traitsIcESaIcEEEEEvPT_ W
_ZN6google8protobuf8compiler10PluginMainEiPPcPKNS1_13CodeGeneratorE T
_ZN6google8protobuf8compiler10Subprocess11CommunicateERKNS0_7MessageEPS3_PNSt7__cxx1112basic_stringIcSt11char_traitsIcESaIcEEE T
_ZN6google8protobuf8compiler10Subprocess5StartERKNSt7__cxx1112basic_stringIcSt11char_traitsIcESaIcEEENS2_10SearchModeE T
_ZN6google8protobuf8compiler10SubprocessC1Ev T
_ZN6google8protobuf8compiler10SubprocessC2Ev T
_ZN6google8protobuf8compiler10SubprocessD1Ev T
_ZN6google8protobuf8compiler10SubprocessD2Ev T
_ZN6google8protobuf8compiler10objectivec10IsInitNameERKNSt7__cxx1112basic_stringIcSt11char_traitsIcESaIcEEE T
_ZN6google8protobuf8compiler10objectivec10StripProtoERKNSt7__cxx1112basic_stringIcSt11char_traitsIcESaIcEEE T
_ZN6google8protobuf8compiler10objectivec12BaseFileNameB5cxx11EPKNS0_14FileDescriptorE T
_ZN6google8protobuf8compiler10objectivec12DefaultValueB5cxx11EPKNS0_15FieldDescriptorE T
_ZN6google8protobuf8compiler10objectivec12ImportWriter22ParseFrameworkMappingsEv T
_ZN6google8protobuf8compiler10objectivec12ImportWriter23ProtoFrameworkCollector11ConsumeLineERKNS0_11StringPieceEPNSt7__cxx1112basic_stringIcSt11char_traitsIcESaIcEEE T
_ZN6google8protobuf8compiler10objectivec12ImportWriter23ProtoFrameworkCollectorD0Ev W
_ZN6google8protobuf8compiler10objectivec12ImportWriter23ProtoFrameworkCollectorD1Ev W
_ZN6google8protobuf8compiler10objectivec12ImportWriter23ProtoFrameworkCollectorD2Ev W
_ZN6google8protobuf8compiler10objectivec12ImportWriter7AddFileEPKNS0_14FileDescriptorERKNSt7__cxx1112basic_stringIcSt11char_traitsIcESaIcEEE T
_ZN6google8protobuf8compiler10objectivec12ImportWriterC1ERKNSt7__cxx1112basic_stringIcSt11char_traitsIcESaIcEEESB_ T
_ZN6google8protobuf8compiler10objectivec12ImportWriterC2ERKNSt7__cxx1112basic_stringIcSt11char_traitsIcESaIcEEESB_ T
_ZN6google8protobuf8compiler10objectivec12ImportWriterD1Ev T
_ZN6google8protobuf8compiler10objectivec12ImportWriterD2Ev T
_ZN6google8protobuf8compiler10objectivec12LineConsumerC1Ev T
_ZN6google8protobuf8compiler10objectivec12LineConsumerC2Ev T
_ZN6google8protobuf8compiler10objectivec12LineConsumerD0Ev T
_ZN6google8protobuf8compiler10objectivec12LineConsumerD1Ev T
_ZN6google8protobuf8compiler10objectivec12LineConsumerD2Ev T
_ZN6google8protobuf8compiler10objectivec13EnumGenerator14GenerateHeaderEPNS0_2io7PrinterE T
_ZN6google8protobuf8compiler10objectivec13EnumGenerator14GenerateSourceEPNS0_2io7PrinterE T
_ZN6google8protobuf8compiler10objectivec13EnumGeneratorC1EPKNS0_14EnumDescriptorE T
_ZN6google8protobuf8compiler10objectivec13EnumGeneratorC2EPKNS0_14EnumDescriptorE T
_ZN6google8protobuf8compiler10objectivec13EnumGeneratorD1Ev T
_ZN6google8protobuf8compiler10objectivec13EnumGeneratorD2Ev T
_ZN6google8protobuf8compiler10objectivec13EnumValueNameB5cxx11EPKNS0_19EnumValueDescriptorE T
_ZN6google8protobuf8compiler10objectivec13FileClassNameB5cxx11EPKNS0_14FileDescriptorE T
_ZN6google8protobuf8compiler10objectivec13FileGenerator14GenerateHeaderEPNS0_2io7PrinterE T
_ZN6google8protobuf8compiler10objectivec13FileGenerator14GenerateSourceEPNS0_2io7PrinterE T
_ZN6google8protobuf8compiler10objectivec13FileGeneratorC1EPKNS0_14FileDescriptorERKNS2_7OptionsE T
_ZN6google8protobuf8compiler10objectivec13FileGeneratorC2EPKNS0_14FileDescriptorERKNS2_7OptionsE T
_ZN6google8protobuf8compiler10objectivec13FileGeneratorD1Ev T
_ZN6google8protobuf8compiler10objectivec13FileGeneratorD2Ev T
_ZN6google8protobuf8compiler10objectivec13OneofEnumNameB5cxx11EPKNS0_15OneofDescriptorE T
_ZN6google8protobuf8compiler10objectivec13RemoveCommentEPNS0_11StringPieceE T
_ZN6google8protobuf8compiler10objectivec14FieldGenerator11SetNoHasBitEv T
_ZN6google8protobuf8compiler10objectivec14FieldGenerator16SetRuntimeHasBitEi T
_ZN6google8protobuf8compiler10objectivec14FieldGenerator17SetOneofIndexBaseEi T
_ZN6google8protobuf8compiler10objectivec14FieldGenerator20FinishInitializationEv T
_ZN6google8protobuf8compiler10objectivec14FieldGenerator26SetExtraRuntimeHasBitsBaseEi T
_ZN6google8protobuf8compiler10objectivec14FieldGenerator4MakeEPKNS0_15FieldDescriptorERKNS2_7OptionsE T
_ZN6google8protobuf8compiler10objectivec14FieldGeneratorC1EPKNS0_15FieldDescriptorERKNS2_7OptionsE T
_ZN6google8protobuf8compiler10objectivec14FieldGeneratorC2EPKNS0_15FieldDescriptorERKNS2_7OptionsE T
_ZN6google8protobuf8compiler10objectivec14FieldGeneratorD0Ev T
_ZN6google8protobuf8compiler10objectivec14FieldGeneratorD1Ev T
_ZN6google8protobuf8compiler10objectivec14FieldGeneratorD2Ev T
_ZN6google8protobuf8compiler10objectivec14IsRetainedNameERKNSt7__cxx1112basic_stringIcSt11char_traitsIcESaIcEEE T
_ZN6google8protobuf8compiler10objectivec14OneofGenerator16GenerateCaseEnumEPNS0_2io7PrinterE T
_ZN6google8protobuf8compiler10objectivec14OneofGenerator17SetOneofIndexBaseEi T
_ZN6google8protobuf8compiler10objectivec14OneofGenerator30GeneratePropertyImplementationEPNS0_2io7PrinterE T
_ZN6google8protobuf8compiler10objectivec14OneofGenerator32GenerateClearFunctionDeclarationEPNS0_2io7PrinterE T
_ZN6google8protobuf8compiler10objectivec14OneofGenerator35GenerateClearFunctionImplementationEPNS0_2io7PrinterE T
_ZN6google8protobuf8compiler10objectivec14OneofGenerator37GeneratePublicCasePropertyDeclarationEPNS0_2io7PrinterE T
_ZN6google8protobuf8compiler10objectivec14OneofGeneratorC1EPKNS0_15OneofDescriptorE T
_ZN6google8protobuf8compiler10objectivec14OneofGeneratorC2EPKNS0_15OneofDescriptorE T
_ZN6google8protobuf8compiler10objectivec14OneofGeneratorD1Ev T
_ZN6google8protobuf8compiler10objectivec14OneofGeneratorD2Ev T
_ZN6google8protobuf8compiler10objectivec15ClassNameWorkerB5cxx11EPKNS0_10DescriptorE T
_ZN6google8protobuf8compiler10objectivec15ClassNameWorkerB5cxx11EPKNS0_14EnumDescriptorE T
_ZN6google8protobuf8compiler10objectivec15EscapeTrigraphsERKNSt7__cxx1112basic_stringIcSt11char_traitsIcESaIcEEE T
_ZN6google8protobuf8compiler10objectivec15FileClassPrefixB5cxx11EPKNS0_14FileDescriptorE T
_ZN6google8protobuf8compiler10objectivec15IsPrimitiveTypeEPKNS0_15FieldDescriptorE T
_ZN6google8protobuf8compiler10objectivec15IsReferenceTypeEPKNS0_15FieldDescriptorE T
_ZN6google8protobuf8compiler10objectivec15ParseSimpleFileERKNSt7__cxx1112basic_stringIcSt11char_traitsIcESaIcEEEPNS2_12LineConsumerEPS8_ T
_ZN6google8protobuf8compiler10objectivec16BuildFlagsStringENS2_8FlagTypeERKSt6vectorINSt7__cxx1112basic_stringIcSt11char_traitsIcESaIcEEESaISA_EE T
_ZN6google8protobuf8compiler10objectivec16FilePathBasenameB5cxx11EPKNS0_14FileDescriptorE T
_ZN6google8protobuf8compiler10objectivec16MessageGenerator14GenerateSourceEPNS0_2io7PrinterE T
_ZN6google8protobuf8compiler10objectivec16MessageGenerator18GenerateEnumHeaderEPNS0_2io7PrinterE T
_ZN6google8protobuf8compiler10objectivec16MessageGenerator21GenerateMessageHeaderEPNS0_2io7PrinterE T
_ZN6google8protobuf8compiler10objectivec16MessageGenerator28DetermineForwardDeclarationsEPSt3setINSt7__cxx1112basic_stringIcSt11char_traitsIcESaIcEEESt4lessISA_ESaISA_EE T
_ZN6google8protobuf8compiler10objectivec16MessageGenerator35GenerateExtensionRegistrationSourceEPNS0_2io7PrinterE T
_ZN6google8protobuf8compiler10objectivec16MessageGenerator37GenerateStaticVariablesInitializationEPNS0_2io7PrinterE T
_ZN6google8protobuf8compiler10objectivec16MessageGeneratorC1ERKNSt7__cxx1112basic_stringIcSt11char_traitsIcESaIcEEEPKNS0_10DescriptorERKNS2_7OptionsE T
_ZN6google8protobuf8compiler10objectivec16MessageGeneratorC2ERKNSt7__cxx1112basic_stringIcSt11char_traitsIcESaIcEEEPKNS0_10DescriptorERKNS2_7OptionsE T
_ZN6google8protobuf8compiler10objectivec16MessageGeneratorD1Ev T
_ZN6google8protobuf8compiler10objectivec16MessageGeneratorD2Ev T
_ZN6google8protobuf8compiler10objectivec17FieldGeneratorMap16CalculateHasBitsEv T
_ZN6google8protobuf8compiler10objectivec17FieldGeneratorMap17SetOneofIndexBaseEi T
_ZN6google8protobuf8compiler10objectivec17FieldGeneratorMapC1EPKNS0_10DescriptorERKNS2_7OptionsE T
_ZN6google8protobuf8compiler10objectivec17FieldGeneratorMapC2EPKNS0_10DescriptorERKNS2_7OptionsE T
_ZN6google8protobuf8compiler10objectivec17FieldGeneratorMapD1Ev T
_ZN6google8protobuf8compiler10objectivec17FieldGeneratorMapD2Ev T
_ZN6google8protobuf8compiler10objectivec17GetObjectiveCTypeENS0_15FieldDescriptor4TypeE T
_ZN6google8protobuf8compiler10objectivec17MapFieldGenerator20FinishInitializationEv T
_ZN6google8protobuf8compiler10objectivec17MapFieldGeneratorC1EPKNS0_15FieldDescriptorERKNS2_7OptionsE T
_ZN6google8protobuf8compiler10objectivec17MapFieldGeneratorC2EPKNS0_15FieldDescriptorERKNS2_7OptionsE T
_ZN6google8protobuf8compiler10objectivec17MapFieldGeneratorD0Ev T
_ZN6google8protobuf8compiler10objectivec17MapFieldGeneratorD1Ev T
_ZN6google8protobuf8compiler10objectivec17MapFieldGeneratorD2Ev T
_ZN6google8protobuf8compiler10objectivec18EnumFieldGeneratorC1EPKNS0_15FieldDescriptorERKNS2_7OptionsE T
_ZN6google8protobuf8compiler10objectivec18EnumFieldGeneratorC2EPKNS0_15FieldDescriptorERKNS2_7OptionsE T
_ZN6google8protobuf8compiler10objectivec18EnumFieldGeneratorD0Ev T
_ZN6google8protobuf8compiler10objectivec18EnumFieldGeneratorD1Ev T
_ZN6google8protobuf8compiler10objectivec18EnumFieldGeneratorD2Ev T
_ZN6google8protobuf8compiler10objectivec18EnumValueShortNameB5cxx11EPKNS0_19EnumValueDescriptorE T
_ZN6google8protobuf8compiler10objectivec18ExtensionGenerator21GenerateMembersHeaderEPNS0_2io7PrinterE T
_ZN6google8protobuf8compiler10objectivec18ExtensionGenerator26GenerateRegistrationSourceEPNS0_2io7PrinterE T
_ZN6google8protobuf8compiler10objectivec18ExtensionGenerator37GenerateStaticVariablesInitializationEPNS0_2io7PrinterE T
_ZN6google8protobuf8compiler10objectivec18ExtensionGeneratorC1ERKNSt7__cxx1112basic_stringIcSt11char_traitsIcESaIcEEEPKNS0_15FieldDescriptorE T
_ZN6google8protobuf8compiler10objectivec18ExtensionGeneratorC2ERKNSt7__cxx1112basic_stringIcSt11char_traitsIcESaIcEEEPKNS0_15FieldDescriptorE T
_ZN6google8protobuf8compiler10objectivec18ExtensionGeneratorD1Ev T
_ZN6google8protobuf8compiler10objectivec18ExtensionGeneratorD2Ev T
_ZN6google8protobuf8compiler10objectivec18GetCapitalizedTypeB5cxx11EPKNS0_15FieldDescriptorE T
_ZN6google8protobuf8compiler10objectivec19BuildCommentsStringB5cxx11ERKNS0_14SourceLocationEb T
_ZN6google8protobuf8compiler10objectivec19ExtensionMethodNameB5cxx11EPKNS0_15FieldDescriptorE T
_ZN6google8protobuf8compiler10objectivec19ObjectiveCGeneratorC1Ev T
_ZN6google8protobuf8compiler10objectivec19ObjectiveCGeneratorC2Ev T
_ZN6google8protobuf8compiler10objectivec19ObjectiveCGeneratorD0Ev T
_ZN6google8protobuf8compiler10objectivec19ObjectiveCGeneratorD1Ev T
_ZN6google8protobuf8compiler10objectivec19ObjectiveCGeneratorD2Ev T
_ZN6google8protobuf8compiler10objectivec20FieldNameCapitalizedB5cxx11EPKNS0_15FieldDescriptorE T
_ZN6google8protobuf8compiler10objectivec20OneofNameCapitalizedB5cxx11EPKNS0_15OneofDescriptorE T
_ZN6google8protobuf8compiler10objectivec20SingleFieldGeneratorC1EPKNS0_15FieldDescriptorERKNS2_7OptionsE T
_ZN6google8protobuf8compiler10objectivec20SingleFieldGeneratorC2EPKNS0_15FieldDescriptorERKNS2_7OptionsE T
_ZN6google8protobuf8compiler10objectivec20SingleFieldGeneratorD0Ev T
_ZN6google8protobuf8compiler10objectivec20SingleFieldGeneratorD1Ev T
_ZN6google8protobuf8compiler10objectivec20SingleFieldGeneratorD2Ev T
_ZN6google8protobuf8compiler10objectivec20TextFormatDecodeData19DecodeDataForStringERKNSt7__cxx1112basic_stringIcSt11char_traitsIcESaIcEEESB_ T
_ZN6google8protobuf8compiler10objectivec20TextFormatDecodeData9AddStringEiRKNSt7__cxx1112basic_stringIcSt11char_traitsIcESaIcEEESB_ T
_ZN6google8protobuf8compiler10objectivec20TextFormatDecodeDataC1Ev T
_ZN6google8protobuf8compiler10objectivec20TextFormatDecodeDataC2Ev T
_ZN6google8protobuf8compiler10objectivec20TextFormatDecodeDataD1Ev T
_ZN6google8protobuf8compiler10objectivec20TextFormatDecodeDataD2Ev T
_ZN6google8protobuf8compiler10objectivec20UnCamelCaseFieldNameERKNSt7__cxx1112basic_stringIcSt11char_traitsIcESaIcEEEPKNS0_15FieldDescriptorE T
_ZN6google8protobuf8compiler10objectivec21MessageFieldGeneratorC1EPKNS0_15FieldDescriptorERKNS2_7OptionsE T
_ZN6google8protobuf8compiler10objectivec21MessageFieldGeneratorC2EPKNS0_15FieldDescriptorERKNS2_7OptionsE T
_ZN6google8protobuf8compiler10objectivec21MessageFieldGeneratorD0Ev T
_ZN6google8protobuf8compiler10objectivec21MessageFieldGeneratorD1Ev T
_ZN6google8protobuf8compiler10objectivec21MessageFieldGeneratorD2Ev T
_ZN6google8protobuf8compiler10objectivec21ObjCObjFieldGeneratorC1EPKNS0_15FieldDescriptorERKNS2_7OptionsE T
_ZN6google8protobuf8compiler10objectivec21ObjCObjFieldGeneratorC2EPKNS0_15FieldDescriptorERKNS2_7OptionsE T
_ZN6google8protobuf8compiler10objectivec21ObjCObjFieldGeneratorD0Ev T
_ZN6google8protobuf8compiler10objectivec21ObjCObjFieldGeneratorD1Ev T
_ZN6google8protobuf8compiler10objectivec21ObjCObjFieldGeneratorD2Ev T
_ZN6google8protobuf8compiler10objectivec22HasNonZeroDefaultValueEPKNS0_15FieldDescriptorE T
_ZN6google8protobuf8compiler10objectivec22RepeatedFieldGenerator20FinishInitializationEv T
_ZN6google8protobuf8compiler10objectivec22RepeatedFieldGeneratorC1EPKNS0_15FieldDescriptorERKNS2_7OptionsE T
_ZN6google8protobuf8compiler10objectivec22RepeatedFieldGeneratorC2EPKNS0_15FieldDescriptorERKNS2_7OptionsE T
_ZN6google8protobuf8compiler10objectivec22RepeatedFieldGeneratorD0Ev T
_ZN6google8protobuf8compiler10objectivec22RepeatedFieldGeneratorD1Ev T
_ZN6google8protobuf8compiler10objectivec22RepeatedFieldGeneratorD2Ev T
_ZN6google8protobuf8compiler10objectivec23PrimitiveFieldGenerator26SetExtraRuntimeHasBitsBaseEi T
_ZN6google8protobuf8compiler10objectivec23PrimitiveFieldGeneratorC1EPKNS0_15FieldDescriptorERKNS2_7OptionsE T
_ZN6google8protobuf8compiler10objectivec23PrimitiveFieldGeneratorC2EPKNS0_15FieldDescriptorERKNS2_7OptionsE T
_ZN6google8protobuf8compiler10objectivec23PrimitiveFieldGeneratorD0Ev T
_ZN6google8protobuf8compiler10objectivec23PrimitiveFieldGeneratorD1Ev T
_ZN6google8protobuf8compiler10objectivec23PrimitiveFieldGeneratorD2Ev T
_ZN6google8protobuf8compiler10objectivec24GPBGenericValueFieldNameB5cxx11EPKNS0_15FieldDescriptorE T
_ZN6google8protobuf8compiler10objectivec24UnCamelCaseEnumShortNameERKNSt7__cxx1112basic_stringIcSt11char_traitsIcESaIcEEE T
_ZN6google8protobuf8compiler10objectivec25StringPieceTrimWhitespaceEPNS0_11StringPieceE T
_ZN6google8protobuf8compiler10objectivec25ValidateObjCClassPrefixesERKSt6vectorIPKNS0_14FileDescriptorESaIS6_EERKNS2_7OptionsEPNSt7__cxx1112basic_stringIcSt11char_traitsIcESaIcEEE T
_ZN6google8protobuf8compiler10objectivec26PrimitiveObjFieldGeneratorC1EPKNS0_15FieldDescriptorERKNS2_7OptionsE T
_ZN6google8protobuf8compiler10objectivec26PrimitiveObjFieldGeneratorC2EPKNS0_15FieldDescriptorERKNS2_7OptionsE T
_ZN6google8protobuf8compiler10objectivec26PrimitiveObjFieldGeneratorD0Ev T
_ZN6google8protobuf8compiler10objectivec26PrimitiveObjFieldGeneratorD1Ev T
_ZN6google8protobuf8compiler10objectivec26PrimitiveObjFieldGeneratorD2Ev T
_ZN6google8protobuf8compiler10objectivec26RepeatedEnumFieldGenerator20FinishInitializationEv T
_ZN6google8protobuf8compiler10objectivec26RepeatedEnumFieldGeneratorC1EPKNS0_15FieldDescriptorERKNS2_7OptionsE T
_ZN6google8protobuf8compiler10objectivec26RepeatedEnumFieldGeneratorC2EPKNS0_15FieldDescriptorERKNS2_7OptionsE T
_ZN6google8protobuf8compiler10objectivec26RepeatedEnumFieldGeneratorD0Ev T
_ZN6google8protobuf8compiler10objectivec26RepeatedEnumFieldGeneratorD1Ev T
_ZN6google8protobuf8compiler10objectivec26RepeatedEnumFieldGeneratorD2Ev T
_ZN6google8protobuf8compiler10objectivec28ProtobufLibraryFrameworkNameE D 0000000000000008
_ZN6google8protobuf8compiler10objectivec29ProtobufFrameworkImportSymbolERKNSt7__cxx1112basic_stringIcSt11char_traitsIcESaIcEEE T
_ZN6google8protobuf8compiler10objectivec29RepeatedMessageFieldGeneratorC1EPKNS0_15FieldDescriptorERKNS2_7OptionsE T
_ZN6google8protobuf8compiler10objectivec29RepeatedMessageFieldGeneratorC2EPKNS0_15FieldDescriptorERKNS2_7OptionsE T
_ZN6google8protobuf8compiler10objectivec29RepeatedMessageFieldGeneratorD0Ev T
_ZN6google8protobuf8compiler10objectivec29RepeatedMessageFieldGeneratorD1Ev T
_ZN6google8protobuf8compiler10objectivec29RepeatedMessageFieldGeneratorD2Ev T
_ZN6google8protobuf8compiler10objectivec31RepeatedPrimitiveFieldGeneratorC1EPKNS0_15FieldDescriptorERKNS2_7OptionsE T
_ZN6google8protobuf8compiler10objectivec31RepeatedPrimitiveFieldGeneratorC2EPKNS0_15FieldDescriptorERKNS2_7OptionsE T
_ZN6google8protobuf8compiler10objectivec31RepeatedPrimitiveFieldGeneratorD0Ev T
_ZN6google8protobuf8compiler10objectivec31RepeatedPrimitiveFieldGeneratorD1Ev T
_ZN6google8protobuf8compiler10objectivec31RepeatedPrimitiveFieldGeneratorD2Ev T
_ZN6google8protobuf8compiler10objectivec33IsProtobufLibraryBundledProtoFileEPKNS0_14FileDescriptorE T
_ZN6google8protobuf8compiler10objectivec7OptionsC1Ev T
_ZN6google8protobuf8compiler10objectivec7OptionsC2Ev T
_ZN6google8protobuf8compiler10objectivec8EnumNameB5cxx11EPKNS0_14EnumDescriptorE T
_ZN6google8protobuf8compiler10objectivec8FilePathB5cxx11EPKNS0_14FileDescriptorE T
_ZN6google8protobuf8compiler10objectivec8ReadLineEPNS0_11StringPieceES4_ T
_ZN6google8protobuf8compiler10objectivec9ClassNameB5cxx11EPKNS0_10DescriptorE T
_ZN6google8protobuf8compiler10objectivec9ClassNameEPKNS0_10DescriptorEPNSt7__cxx1112basic_stringIcSt11char_traitsIcESaIcEEE T
_ZN6google8protobuf8compiler10objectivec9FieldNameB5cxx11EPKNS0_15FieldDescriptorE T
_ZN6google8protobuf8compiler10objectivec9OneofNameB5cxx11EPKNS0_15OneofDescriptorE T
_ZN6google8protobuf8compiler12GenerateCodeERKNS1_20CodeGeneratorRequestERKNS1_13CodeGeneratorEPNS1_21CodeGeneratorResponseEPNSt7__cxx1112basic_stringIcSt11char_traitsIcESaIcEEE T
_ZN6google8protobuf8compiler13CodeGeneratorD0Ev T
_ZN6google8protobuf8compiler13CodeGeneratorD1Ev T
_ZN6google8protobuf8compiler13CodeGeneratorD2Ev T
_ZN6google8protobuf8compiler16GeneratorContext13OpenForAppendERKNSt7__cxx1112basic_stringIcSt11char_traitsIcESaIcEEE T
_ZN6google8protobuf8compiler16GeneratorContext13OpenForInsertERKNSt7__cxx1112basic_stringIcSt11char_traitsIcESaIcEEESA_ T
_ZN6google8protobuf8compiler16GeneratorContext15ListParsedFilesEPSt6vectorIPKNS0_14FileDescriptorESaIS6_EE T
_ZN6google8protobuf8compiler16GeneratorContextD0Ev T
_ZN6google8protobuf8compiler16GeneratorContextD1Ev T
_ZN6google8protobuf8compiler16GeneratorContextD2Ev T
_ZN6google8protobuf8compiler20CodeGeneratorRequest10SharedCtorEv T
_ZN6google8protobuf8compiler20CodeGeneratorRequest10SharedDtorEv T
_ZN6google8protobuf8compiler20CodeGeneratorRequest10descriptorEv T
_ZN6google8protobuf8compiler20CodeGeneratorRequest12InternalSwapEPS2_ T
_ZN6google8protobuf8compiler20CodeGeneratorRequest16clear_proto_fileEv T
_ZN6google8protobuf8compiler20CodeGeneratorRequest16default_instanceEv T
_ZN6google8protobuf8compiler20CodeGeneratorRequest21InitAsDefaultInstanceEv T
_ZN6google8protobuf8compiler20CodeGeneratorRequest21kParameterFieldNumberE R
_ZN6google8protobuf8compiler20CodeGeneratorRequest21kProtoFileFieldNumberE R
_ZN6google8protobuf8compiler20CodeGeneratorRequest26kFileToGenerateFieldNumberE R
_ZN6google8protobuf8compiler20CodeGeneratorRequest27MergePartialFromCodedStreamEPNS0_2io16CodedInputStreamE T
_ZN6google8protobuf8compiler20CodeGeneratorRequest27kCompilerVersionFieldNumberE R
_ZN6google8protobuf8compiler20CodeGeneratorRequest4SwapEPS2_ T
_ZN6google8protobuf8compiler20CodeGeneratorRequest5ClearEv T
_ZN6google8protobuf8compiler20CodeGeneratorRequest8CopyFromERKNS0_7MessageE T
_ZN6google8protobuf8compiler20CodeGeneratorRequest8CopyFromERKS2_ T
_ZN6google8protobuf8compiler20CodeGeneratorRequest9MergeFromERKNS0_7MessageE T
_ZN6google8protobuf8compiler20CodeGeneratorRequest9MergeFromERKS2_ T
_ZN6google8protobuf8compiler20CodeGeneratorRequestC1ERKS2_ T
_ZN6google8protobuf8compiler20CodeGeneratorRequestC1Ev T
_ZN6google8protobuf8compiler20CodeGeneratorRequestC2ERKS2_ T
_ZN6google8protobuf8compiler20CodeGeneratorRequestC2Ev T
_ZN6google8protobuf8compiler20CodeGeneratorRequestD0Ev T
_ZN6google8protobuf8compiler20CodeGeneratorRequestD1Ev T
_ZN6google8protobuf8compiler20CodeGeneratorRequestD2Ev T
_ZN6google8protobuf8compiler20CommandLineInterface12AllowPluginsERKNSt7__cxx1112basic_stringIcSt11char_traitsIcESaIcEEE T
_ZN6google8protobuf8compiler20CommandLineInterface12ErrorPrinter10AddWarningERKNSt7__cxx1112basic_stringIcSt11char_traitsIcESaIcEEESB_PKNS0_7MessageENS0_14DescriptorPool14ErrorCollector13ErrorLocationESB_ W
_ZN6google8protobuf8compiler20CommandLineInterface12ErrorPrinter10AddWarningERKNSt7__cxx1112basic_stringIcSt11char_traitsIcESaIcEEEiiSB_ W
_ZN6google8protobuf8compiler20CommandLineInterface12ErrorPrinter10AddWarningEiiRKNSt7__cxx1112basic_stringIcSt11char_traitsIcESaIcEEE W
_ZN6google8protobuf8compiler20CommandLineInterface12ErrorPrinter17AddErrorOrWarningERKNSt7__cxx1112basic_stringIcSt11char_traitsIcESaIcEEEiiSB_SB_RSo W
_ZN6google8protobuf8compiler20CommandLineInterface12ErrorPrinter8AddErrorERKNSt7__cxx1112basic_stringIcSt11char_traitsIcESaIcEEESB_PKNS0_7MessageENS0_14DescriptorPool14ErrorCollector13ErrorLocationESB_ W
_ZN6google8protobuf8compiler20CommandLineInterface12ErrorPrinter8AddErrorERKNSt7__cxx1112basic_stringIcSt11char_traitsIcESaIcEEEiiSB_ W
_ZN6google8protobuf8compiler20CommandLineInterface12ErrorPrinter8AddErrorEiiRKNSt7__cxx1112basic_stringIcSt11char_traitsIcESaIcEEE W
_ZN6google8protobuf8compiler20CommandLineInterface12ErrorPrinterD0Ev W
_ZN6google8protobuf8compiler20CommandLineInterface12ErrorPrinterD1Ev W
_ZN6google8protobuf8compiler20CommandLineInterface12ErrorPrinterD2Ev W
_ZN6google8protobuf8compiler20CommandLineInterface13GeneratorInfoD1Ev W
_ZN6google8protobuf8compiler20CommandLineInterface13GeneratorInfoD2Ev W
_ZN6google8protobuf8compiler20CommandLineInterface13ParseArgumentEPKcPNSt7__cxx1112basic_stringIcSt11char_traitsIcESaIcEEESB_ T
_ZN6google8protobuf8compiler20CommandLineInterface13PrintHelpTextEv T
_ZN6google8protobuf8compiler20CommandLineInterface14EncodeOrDecodeEPKNS0_14DescriptorPoolE T
_ZN6google8protobuf8compiler20CommandLineInterface14GenerateOutputERKSt6vectorIPKNS0_14FileDescriptorESaIS6_EERKNS2_15OutputDirectiveEPNS1_16GeneratorContextE T
_ZN6google8protobuf8compiler20CommandLineInterface14ParseArgumentsEiPKPKc T
_ZN6google8protobuf8compiler20CommandLineInterface14kPathSeparatorE D 0000000000000008
_ZN6google8protobuf8compiler20CommandLineInterface15OutputDirectiveD1Ev W
_ZN6google8protobuf8compiler20CommandLineInterface15OutputDirectiveD2Ev W
_ZN6google8protobuf8compiler20CommandLineInterface15ParseInputFilesEPNS0_14DescriptorPoolEPSt6vectorIPKNS0_14FileDescriptorESaIS8_EE T
_ZN6google8protobuf8compiler20CommandLineInterface17InterpretArgumentERKNSt7__cxx1112basic_stringIcSt11char_traitsIcESaIcEEESA_ T
_ZN6google8protobuf8compiler20CommandLineInterface17RegisterGeneratorERKNSt7__cxx1112basic_stringIcSt11char_traitsIcESaIcEEEPNS1_13CodeGeneratorESA_ T
_ZN6google8protobuf8compiler20CommandLineInterface17RegisterGeneratorERKNSt7__cxx1112basic_stringIcSt11char_traitsIcESaIcEEESA_PNS1_13CodeGeneratorESA_ T
_ZN6google8protobuf8compiler20CommandLineInterface18ExpandArgumentFileERKNSt7__cxx1112basic_stringIcSt11char_traitsIcESaIcEEEPSt6vectorIS8_SaIS8_EE T
_ZN6google8protobuf8compiler20CommandLineInterface18MemoryOutputStream14UpdateMetadataEmm T
_ZN6google8protobuf8compiler20CommandLineInterface18MemoryOutputStream4NextEPPvPi W
_ZN6google8protobuf8compiler20CommandLineInterface18MemoryOutputStream6BackUpEi W
_ZN6google8protobuf8compiler20CommandLineInterface18MemoryOutputStreamC1EPNS2_20GeneratorContextImplERKNSt7__cxx1112basic_stringIcSt11char_traitsIcESaIcEEESD_ T
_ZN6google8protobuf8compiler20CommandLineInterface18MemoryOutputStreamC1EPNS2_20GeneratorContextImplERKNSt7__cxx1112basic_stringIcSt11char_traitsIcESaIcEEEb T
_ZN6google8protobuf8compiler20CommandLineInterface18MemoryOutputStreamC2EPNS2_20GeneratorContextImplERKNSt7__cxx1112basic_stringIcSt11char_traitsIcESaIcEEESD_ T
_ZN6google8protobuf8compiler20CommandLineInterface18MemoryOutputStreamC2EPNS2_20GeneratorContextImplERKNSt7__cxx1112basic_stringIcSt11char_traitsIcESaIcEEEb T
_ZN6google8protobuf8compiler20CommandLineInterface18MemoryOutputStreamD0Ev T
_ZN6google8protobuf8compiler20CommandLineInterface18MemoryOutputStreamD1Ev T
_ZN6google8protobuf8compiler20CommandLineInterface18MemoryOutputStreamD2Ev T
_ZN6google8protobuf8compiler20CommandLineInterface18WriteDescriptorSetERKSt6vectorIPKNS0_14FileDescriptorESaIS6_EE T
_ZN6google8protobuf8compiler20CommandLineInterface20GeneratePluginOutputERKSt6vectorIPKNS0_14FileDescriptorESaIS6_EERKNSt7__cxx1112basic_stringIcSt11char_traitsIcESaIcEEESI_PNS1_16GeneratorContextEPSG_ T
_ZN6google8protobuf8compiler20CommandLineInterface20GeneratorContextImpl13OpenForAppendERKNSt7__cxx1112basic_stringIcSt11char_traitsIcESaIcEEE T
_ZN6google8protobuf8compiler20CommandLineInterface20GeneratorContextImpl13OpenForInsertERKNSt7__cxx1112basic_stringIcSt11char_traitsIcESaIcEEESB_ T
_ZN6google8protobuf8compiler20CommandLineInterface20GeneratorContextImpl13WriteAllToZipERKNSt7__cxx1112basic_stringIcSt11char_traitsIcESaIcEEE T
_ZN6google8protobuf8compiler20CommandLineInterface20GeneratorContextImpl14AddJarManifestEv T
_ZN6google8protobuf8compiler20CommandLineInterface20GeneratorContextImpl14WriteAllToDiskERKNSt7__cxx1112basic_stringIcSt11char_traitsIcESaIcEEE T
_ZN6google8protobuf8compiler20CommandLineInterface20GeneratorContextImpl15ListParsedFilesEPSt6vectorIPKNS0_14FileDescriptorESaIS7_EE W
_ZN6google8protobuf8compiler20CommandLineInterface20GeneratorContextImpl18GetOutputFilenamesEPSt6vectorINSt7__cxx1112basic_stringIcSt11char_traitsIcESaIcEEESaISA_EE T
_ZN6google8protobuf8compiler20CommandLineInterface20GeneratorContextImpl4OpenERKNSt7__cxx1112basic_stringIcSt11char_traitsIcESaIcEEE T
_ZN6google8protobuf8compiler20CommandLineInterface20GeneratorContextImplC1ERKSt6vectorIPKNS0_14FileDescriptorESaIS7_EE T
_ZN6google8protobuf8compiler20CommandLineInterface20GeneratorContextImplC2ERKSt6vectorIPKNS0_14FileDescriptorESaIS7_EE T
_ZN6google8protobuf8compiler20CommandLineInterface20GeneratorContextImplD0Ev T
_ZN6google8protobuf8compiler20CommandLineInterface20GeneratorContextImplD1Ev T
_ZN6google8protobuf8compiler20CommandLineInterface20GeneratorContextImplD2Ev T
_ZN6google8protobuf8compiler20CommandLineInterface21PrintFreeFieldNumbersEPKNS0_10DescriptorE T
_ZN6google8protobuf8compiler20CommandLineInterface24InitializeDiskSourceTreeEPNS1_14DiskSourceTreeE T
_ZN6google8protobuf8compiler20CommandLineInterface25GetTransitiveDependenciesEPKNS0_14FileDescriptorEbbPSt3setIS5_St4lessIS5_ESaIS5_EEPNS0_16RepeatedPtrFieldINS0_19FileDescriptorProtoEEE T
_ZN6google8protobuf8compiler20CommandLineInterface29MakeInputsBeProtoPathRelativeEPNS1_14DiskSourceTreeE T
_ZN6google8protobuf8compiler20CommandLineInterface30GenerateDependencyManifestFileERKSt6vectorIPKNS0_14FileDescriptorESaIS6_EERKNS0_8hash_mapINSt7__cxx1112basic_stringIcSt11char_traitsIcESaIcEEEPNS2_20GeneratorContextImplENS0_4hashISH_EESt8equal_toISH_ESaISt4pairIKSH_SJ_EEEEPNS1_14DiskSourceTreeE T
_ZN6google8protobuf8compiler20CommandLineInterface32PopulateSimpleDescriptorDatabaseEPNS0_24SimpleDescriptorDatabaseE T
_ZN6google8protobuf8compiler20CommandLineInterface3RunEiPKPKc T
_ZN6google8protobuf8compiler20CommandLineInterface5ClearEv T
_ZN6google8protobuf8compiler20CommandLineInterfaceC1Ev T
_ZN6google8protobuf8compiler20CommandLineInterfaceC2Ev T
_ZN6google8protobuf8compiler20CommandLineInterfaceD1Ev T
_ZN6google8protobuf8compiler20CommandLineInterfaceD2Ev T
_ZN6google8protobuf8compiler21CodeGeneratorResponse10SharedCtorEv T
_ZN6google8protobuf8compiler21CodeGeneratorResponse10SharedDtorEv T
_ZN6google8protobuf8compiler21CodeGeneratorResponse10descriptorEv T
_ZN6google8protobuf8compiler21CodeGeneratorResponse12InternalSwapEPS2_ T
_ZN6google8protobuf8compiler21CodeGeneratorResponse16default_instanceEv T
_ZN6google8protobuf8compiler21CodeGeneratorResponse16kFileFieldNumberE R
_ZN6google8protobuf8compiler21CodeGeneratorResponse17kErrorFieldNumberE R
_ZN6google8protobuf8compiler21CodeGeneratorResponse21InitAsDefaultInstanceEv T
_ZN6google8protobuf8compiler21CodeGeneratorResponse27MergePartialFromCodedStreamEPNS0_2io16CodedInputStreamE T
_ZN6google8protobuf8compiler21CodeGeneratorResponse4SwapEPS2_ T
_ZN6google8protobuf8compiler21CodeGeneratorResponse5ClearEv T
_ZN6google8protobuf8compiler21CodeGeneratorResponse8CopyFromERKNS0_7MessageE T
_ZN6google8protobuf8compiler21CodeGeneratorResponse8CopyFromERKS2_ T
_ZN6google8protobuf8compiler21CodeGeneratorResponse9MergeFromERKNS0_7MessageE T
_ZN6google8protobuf8compiler21CodeGeneratorResponse9MergeFromERKS2_ T
_ZN6google8protobuf8compiler21CodeGeneratorResponseC1ERKS2_ T
_ZN6google8protobuf8compiler21CodeGeneratorResponseC1Ev T
_ZN6google8protobuf8compiler21CodeGeneratorResponseC2ERKS2_ T
_ZN6google8protobuf8compiler21CodeGeneratorResponseC2Ev T
_ZN6google8protobuf8compiler21CodeGeneratorResponseD0Ev T
_ZN6google8protobuf8compiler21CodeGeneratorResponseD1Ev T
_ZN6google8protobuf8compiler21CodeGeneratorResponseD2Ev T
_ZN6google8protobuf8compiler23ParseGeneratorParameterERKNSt7__cxx1112basic_stringIcSt11char_traitsIcESaIcEEEPSt6vectorISt4pairIS7_S7_ESaISC_EE T
_ZN6google8protobuf8compiler24GeneratorResponseContext13OpenForInsertERKNSt7__cxx1112basic_stringIcSt11char_traitsIcESaIcEEESA_ W
_ZN6google8protobuf8compiler24GeneratorResponseContext15ListParsedFilesEPSt6vectorIPKNS0_14FileDescriptorESaIS6_EE W
_ZN6google8protobuf8compiler24GeneratorResponseContext4OpenERKNSt7__cxx1112basic_stringIcSt11char_traitsIcESaIcEEE W
_ZN6google8protobuf8compiler24GeneratorResponseContextD0Ev W
_ZN6google8protobuf8compiler24GeneratorResponseContextD1Ev W
_ZN6google8protobuf8compiler24GeneratorResponseContextD2Ev W
_ZN6google8protobuf8compiler26CodeGeneratorResponse_File10SharedCtorEv T
_ZN6google8protobuf8compiler26CodeGeneratorResponse_File10SharedDtorEv T
_ZN6google8protobuf8compiler26CodeGeneratorResponse_File10descriptorEv T
_ZN6google8protobuf8compiler26CodeGeneratorResponse_File12InternalSwapEPS2_ T
_ZN6google8protobuf8compiler26CodeGeneratorResponse_File16default_instanceEv T
_ZN6google8protobuf8compiler26CodeGeneratorResponse_File16kNameFieldNumberE R
_ZN6google8protobuf8compiler26CodeGeneratorResponse_File19kContentFieldNumberE R
_ZN6google8protobuf8compiler26CodeGeneratorResponse_File21InitAsDefaultInstanceEv T
_ZN6google8protobuf8compiler26CodeGeneratorResponse_File26kInsertionPointFieldNumberE R
_ZN6google8protobuf8compiler26CodeGeneratorResponse_File27MergePartialFromCodedStreamEPNS0_2io16CodedInputStreamE T
_ZN6google8protobuf8compiler26CodeGeneratorResponse_File4SwapEPS2_ T
_ZN6google8protobuf8compiler26CodeGeneratorResponse_File5ClearEv T
_ZN6google8protobuf8compiler26CodeGeneratorResponse_File8CopyFromERKNS0_7MessageE T
_ZN6google8protobuf8compiler26CodeGeneratorResponse_File8CopyFromERKS2_ T
_ZN6google8protobuf8compiler26CodeGeneratorResponse_File9MergeFromERKNS0_7MessageE T
_ZN6google8protobuf8compiler26CodeGeneratorResponse_File9MergeFromERKS2_ T
_ZN6google8protobuf8compiler26CodeGeneratorResponse_FileC1ERKS2_ T
_ZN6google8protobuf8compiler26CodeGeneratorResponse_FileC1Ev T
_ZN6google8protobuf8compiler26CodeGeneratorResponse_FileC2ERKS2_ T
_ZN6google8protobuf8compiler26CodeGeneratorResponse_FileC2Ev T
_ZN6google8protobuf8compiler26CodeGeneratorResponse_FileD0Ev T
_ZN6google8protobuf8compiler26CodeGeneratorResponse_FileD1Ev T
_ZN6google8protobuf8compiler26CodeGeneratorResponse_FileD2Ev T
_ZN6google8protobuf8compiler26_Version_default_instance_E B 0000000000000030
_ZN6google8protobuf8compiler2js13NamespaceOnlyEPKNS0_10DescriptorE T
_ZN6google8protobuf8compiler2js16GeneratorOptions16ParseFromOptionsERKSt6vectorISt4pairINSt7__cxx1112basic_stringIcSt11char_traitsIcESaIcEEESB_ESaISC_EEPSB_ T
_ZN6google8protobuf8compiler2js8kKeywordE D 00000000000001d0
_ZN6google8protobuf8compiler2js9GeneratorD0Ev W
_ZN6google8protobuf8compiler2js9GeneratorD1Ev W
_ZN6google8protobuf8compiler2js9GeneratorD2Ev W
_ZN6google8protobuf8compiler39_CodeGeneratorRequest_default_instance_E B 0000000000000058
_ZN6google8protobuf8compiler3cpp10StripProtoERKNSt7__cxx1112basic_stringIcSt11char_traitsIcESaIcEEE T
_ZN6google8protobuf8compiler3cpp11SCCAnalyzer11AddChildrenEPNS2_3SCCE T
_ZN6google8protobuf8compiler3cpp11SCCAnalyzer14GetSCCAnalysisEPKNS2_3SCCE T
_ZN6google8protobuf8compiler3cpp11SCCAnalyzer3DFSEPKNS0_10DescriptorE T
_ZN6google8protobuf8compiler3cpp11SCCAnalyzerD1Ev W
_ZN6google8protobuf8compiler3cpp11SCCAnalyzerD2Ev W
_ZN6google8protobuf8compiler3cpp12CppGeneratorC1Ev T
_ZN6google8protobuf8compiler3cpp12CppGeneratorC2Ev T
_ZN6google8protobuf8compiler3cpp12CppGeneratorD0Ev T
_ZN6google8protobuf8compiler3cpp12CppGeneratorD1Ev T
_ZN6google8protobuf8compiler3cpp12CppGeneratorD2Ev T
_ZN6google8protobuf8compiler3cpp12DefaultValueB5cxx11EPKNS0_15FieldDescriptorE T
_ZN6google8protobuf8compiler3cpp12HasMapFieldsEPKNS0_14FileDescriptorE T
_ZN6google8protobuf8compiler3cpp12IsAnyMessageEPKNS0_10DescriptorE T
_ZN6google8protobuf8compiler3cpp12IsAnyMessageEPKNS0_14FileDescriptorE T
_ZN6google8protobuf8compiler3cpp13EnumGenerator15GenerateMethodsEiPNS0_2io7PrinterE T
_ZN6google8protobuf8compiler3cpp13EnumGenerator18GenerateDefinitionEPNS0_2io7PrinterE T
_ZN6google8protobuf8compiler3cpp13EnumGenerator21GenerateSymbolImportsEPNS0_2io7PrinterE T
_ZN6google8protobuf8compiler3cpp13EnumGenerator22FillForwardDeclarationEPSt3mapINSt7__cxx1112basic_stringIcSt11char_traitsIcESaIcEEEPKNS0_14EnumDescriptorESt4lessISA_ESaISt4pairIKSA_SD_EEE T
_ZN6google8protobuf8compiler3cpp13EnumGenerator40GenerateGetEnumDescriptorSpecializationsEPNS0_2io7PrinterE T
_ZN6google8protobuf8compiler3cpp13EnumGeneratorC1EPKNS0_14EnumDescriptorERKNS2_7OptionsE T
_ZN6google8protobuf8compiler3cpp13EnumGeneratorC2EPKNS0_14EnumDescriptorERKNS2_7OptionsE T
_ZN6google8protobuf8compiler3cpp13EnumGeneratorD1Ev T
_ZN6google8protobuf8compiler3cpp13EnumGeneratorD2Ev T
_ZN6google8protobuf8compiler3cpp13EnumValueNameB5cxx11EPKNS0_19EnumValueDescriptorE T
_ZN6google8protobuf8compiler3cpp13FileGenerator14GenerateHeaderEPNS0_2io7PrinterE T
_ZN6google8protobuf8compiler3cpp13FileGenerator14GenerateSourceEPNS0_2io7PrinterE T
_ZN6google8protobuf8compiler3cpp13FileGenerator16GeneratePBHeaderEPNS0_2io7PrinterERKNSt7__cxx1112basic_stringIcSt11char_traitsIcESaIcEEE T
_ZN6google8protobuf8compiler3cpp13FileGenerator18GenerateInitForSCCEPKNS2_3SCCEPNS0_2io7PrinterE T
_ZN6google8protobuf8compiler3cpp13FileGenerator19ForwardDeclarationsD1Ev W
_ZN6google8protobuf8compiler3cpp13FileGenerator19ForwardDeclarationsD2Ev W
_ZN6google8protobuf8compiler3cpp13FileGenerator19GenerateMacroUndefsEPNS0_2io7PrinterE T
_ZN6google8protobuf8compiler3cpp13FileGenerator19GenerateProtoHeaderEPNS0_2io7PrinterERKNSt7__cxx1112basic_stringIcSt11char_traitsIcESaIcEEE T
_ZN6google8protobuf8compiler3cpp13FileGenerator20GenerateGlobalSourceEPNS0_2io7PrinterE T
_ZN6google8protobuf8compiler3cpp13FileGenerator22GenerateMetadataPragmaEPNS0_2io7PrinterERKNSt7__cxx1112basic_stringIcSt11char_traitsIcESaIcEEE T
_ZN6google8protobuf8compiler3cpp13FileGenerator22GenerateSourceIncludesEPNS0_2io7PrinterE T
_ZN6google8protobuf8compiler3cpp13FileGenerator22GenerateTopHeaderGuardEPNS0_2io7PrinterERKNSt7__cxx1112basic_stringIcSt11char_traitsIcESaIcEEE T
_ZN6google8protobuf8compiler3cpp13FileGenerator23FillForwardDeclarationsEPNS3_19ForwardDeclarationsE T
_ZN6google8protobuf8compiler3cpp13FileGenerator23GenerateEnumDefinitionsEPNS0_2io7PrinterE T
_ZN6google8protobuf8compiler3cpp13FileGenerator23GenerateLibraryIncludesEPNS0_2io7PrinterE T
_ZN6google8protobuf8compiler3cpp13FileGenerator24GenerateSourceForMessageEiPNS0_2io7PrinterE T
_ZN6google8protobuf8compiler3cpp13FileGenerator25GenerateBottomHeaderGuardEPNS0_2io7PrinterERKNSt7__cxx1112basic_stringIcSt11char_traitsIcESaIcEEE T
_ZN6google8protobuf8compiler3cpp13FileGenerator26GenerateDependencyIncludesEPNS0_2io7PrinterE T
_ZN6google8protobuf8compiler3cpp13FileGenerator26GenerateInitializationCodeEPNS0_2io7PrinterE T
_ZN6google8protobuf8compiler3cpp13FileGenerator26GenerateMessageDefinitionsEPNS0_2io7PrinterE T
_ZN6google8protobuf8compiler3cpp13FileGenerator26GenerateServiceDefinitionsEPNS0_2io7PrinterE T
_ZN6google8protobuf8compiler3cpp13FileGenerator27GenerateForwardDeclarationsEPNS0_2io7PrinterE T
_ZN6google8protobuf8compiler3cpp13FileGenerator28GenerateExtensionIdentifiersEPNS0_2io7PrinterE T
_ZN6google8protobuf8compiler3cpp13FileGenerator29GenerateSourceDefaultInstanceEiPNS0_2io7PrinterE T
_ZN6google8protobuf8compiler3cpp13FileGenerator33GenerateInlineFunctionDefinitionsEPNS0_2io7PrinterE T
_ZN6google8protobuf8compiler3cpp13FileGenerator36GenerateReflectionInitializationCodeEPNS0_2io7PrinterE T
_ZN6google8protobuf8compiler3cpp13FileGenerator39GenerateGlobalStateFunctionDeclarationsEPNS0_2io7PrinterE T
_ZN6google8protobuf8compiler3cpp13FileGenerator42GenerateProto2NamespaceEnumSpecializationsEPNS0_2io7PrinterE T
_ZN6google8protobuf8compiler3cpp13FileGeneratorC1EPKNS0_14FileDescriptorERKNS2_7OptionsE T
_ZN6google8protobuf8compiler3cpp13FileGeneratorC2EPKNS0_14FileDescriptorERKNS2_7OptionsE T
_ZN6google8protobuf8compiler3cpp13FileGeneratorD1Ev T
_ZN6google8protobuf8compiler3cpp13FileGeneratorD2Ev T
_ZN6google8protobuf8compiler3cpp13HasWeakFieldsEPKNS0_10DescriptorE T
_ZN6google8protobuf8compiler3cpp13HasWeakFieldsEPKNS0_14FileDescriptorE T
_ZN6google8protobuf8compiler3cpp13Int32ToStringB5cxx11Ei T
_ZN6google8protobuf8compiler3cpp13Int64ToStringB5cxx11El T
_ZN6google8protobuf8compiler3cpp13IsProto3FieldEPKNS0_15FieldDescriptorE T
_ZN6google8protobuf8compiler3cpp13ListAllFieldsEPKNS0_10DescriptorEPSt6vectorIPKNS0_15FieldDescriptorESaIS9_EE T
_ZN6google8protobuf8compiler3cpp13ListAllFieldsEPKNS0_14FileDescriptorEPSt6vectorIPKNS0_15FieldDescriptorESaIS9_EE T
_ZN6google8protobuf8compiler3cpp14FieldGeneratorD0Ev T
_ZN6google8protobuf8compiler3cpp14FieldGeneratorD1Ev T
_ZN6google8protobuf8compiler3cpp14FieldGeneratorD2Ev T
_ZN6google8protobuf8compiler3cpp14SuperClassNameB5cxx11EPKNS0_10DescriptorERKNS2_7OptionsE T
_ZN6google8protobuf8compiler3cpp14kThinSeparatorE R
_ZN6google8protobuf8compiler3cpp15EscapeTrigraphsERKNSt7__cxx1112basic_stringIcSt11char_traitsIcESaIcEEE T
_ZN6google8protobuf8compiler3cpp15NamespaceOpenerD1Ev W
_ZN6google8protobuf8compiler3cpp15NamespaceOpenerD2Ev W
_ZN6google8protobuf8compiler3cpp15kThickSeparatorE R
_ZN6google8protobuf8compiler3cpp16IsFieldDependentEPKNS0_15FieldDescriptorE T
_ZN6google8protobuf8compiler3cpp16MessageGenerator12GenerateSwapEPNS0_2io7PrinterE T
_ZN6google8protobuf8compiler3cpp16MessageGenerator13AddGeneratorsEPSt6vectorIPNS2_13EnumGeneratorESaIS6_EEPS4_IPNS2_18ExtensionGeneratorESaISB_EE T
_ZN6google8protobuf8compiler3cpp16MessageGenerator13GenerateClearEPNS0_2io7PrinterE T
_ZN6google8protobuf8compiler3cpp16MessageGenerator14GenerateSchemaEPNS0_2io7PrinterEii T
_ZN6google8protobuf8compiler3cpp16MessageGenerator15GenerateOffsetsEPNS0_2io7PrinterE T
_ZN6google8protobuf8compiler3cpp16MessageGenerator16GenerateByteSizeEPNS0_2io7PrinterE T
_ZN6google8protobuf8compiler3cpp16MessageGenerator16GenerateCopyFromEPNS0_2io7PrinterE T
_ZN6google8protobuf8compiler3cpp16MessageGenerator17GenerateMergeFromEPNS0_2io7PrinterE T
_ZN6google8protobuf8compiler3cpp16MessageGenerator17GenerateStructorsEPNS0_2io7PrinterE T
_ZN6google8protobuf8compiler3cpp16MessageGenerator18GenerateFieldClearEPKNS0_15FieldDescriptorERKSt3mapINSt7__cxx1112basic_stringIcSt11char_traitsIcESaIcEEESD_St4lessISD_ESaISt4pairIKSD_SD_EEEbPNS0_2io7PrinterE T
_ZN6google8protobuf8compiler3cpp16MessageGenerator18GenerateOneofClearEPNS0_2io7PrinterE T
_ZN6google8protobuf8compiler3cpp16MessageGenerator18GenerateParseTableEPNS0_2io7PrinterEmm T
_ZN6google8protobuf8compiler3cpp16MessageGenerator20GenerateClassMethodsEPNS0_2io7PrinterE T
_ZN6google8protobuf8compiler3cpp16MessageGenerator20GenerateOneofHasBitsEPNS0_2io7PrinterE T
_ZN6google8protobuf8compiler3cpp16MessageGenerator20GenerateParseOffsetsEPNS0_2io7PrinterE T
_ZN6google8protobuf8compiler3cpp16MessageGenerator21GenerateFieldMetadataEPNS0_2io7PrinterE T
_ZN6google8protobuf8compiler3cpp16MessageGenerator21GenerateInlineMethodsEPNS0_2io7PrinterE T
_ZN6google8protobuf8compiler3cpp16MessageGenerator21GenerateIsInitializedEPNS0_2io7PrinterE T
_ZN6google8protobuf8compiler3cpp16MessageGenerator21GenerateParseAuxTableEPNS0_2io7PrinterE T
_ZN6google8protobuf8compiler3cpp16MessageGenerator23GenerateClassDefinitionEPNS0_2io7PrinterE T
_ZN6google8protobuf8compiler3cpp16MessageGenerator25GenerateSerializeOneFieldEPNS0_2io7PrinterEPKNS0_15FieldDescriptorEbi T
_ZN6google8protobuf8compiler3cpp16MessageGenerator26GenerateExtraDefaultFieldsEPNS0_2io7PrinterE T
_ZN6google8protobuf8compiler3cpp16MessageGenerator26GenerateOneofMemberHasBitsEPKNS0_15FieldDescriptorERKSt3mapINSt7__cxx1112basic_stringIcSt11char_traitsIcESaIcEEESD_St4lessISD_ESaISt4pairIKSD_SD_EEEPNS0_2io7PrinterE T
_ZN6google8protobuf8compiler3cpp16MessageGenerator27GenerateArenaDestructorCodeEPNS0_2io7PrinterE T
_ZN6google8protobuf8compiler3cpp16MessageGenerator28GenerateMergeFromCodedStreamEPNS0_2io7PrinterE T
_ZN6google8protobuf8compiler3cpp16MessageGenerator28GenerateSerializeOneofFieldsEPNS0_2io7PrinterERKSt6vectorIPKNS0_15FieldDescriptorESaISA_EEb T
_ZN6google8protobuf8compiler3cpp16MessageGenerator28GenerateSharedDestructorCodeEPNS0_2io7PrinterE T
_ZN6google8protobuf8compiler3cpp16MessageGenerator28GenerateSingularFieldHasBitsEPKNS0_15FieldDescriptorESt3mapINSt7__cxx1112basic_stringIcSt11char_traitsIcESaIcEEESD_St4lessISD_ESaISt4pairIKSD_SD_EEEPNS0_2io7PrinterE T
_ZN6google8protobuf8compiler3cpp16MessageGenerator29GenerateFieldDefaultInstancesEPNS0_2io7PrinterE T
_ZN6google8protobuf8compiler3cpp16MessageGenerator29GenerateSharedConstructorCodeEPNS0_2io7PrinterE T
_ZN6google8protobuf8compiler3cpp16MessageGenerator30FillMessageForwardDeclarationsEPSt3mapINSt7__cxx1112basic_stringIcSt11char_traitsIcESaIcEEEPKNS0_10DescriptorESt4lessISA_ESaISt4pairIKSA_SD_EEE T
_ZN6google8protobuf8compiler3cpp16MessageGenerator30GenerateDependentInlineMethodsEPNS0_2io7PrinterE T
_ZN6google8protobuf8compiler3cpp16MessageGenerator32GenerateFieldAccessorDefinitionsEPNS0_2io7PrinterE T
_ZN6google8protobuf8compiler3cpp16MessageGenerator32GenerateSerializeWithCachedSizesEPNS0_2io7PrinterE T
_ZN6google8protobuf8compiler3cpp16MessageGenerator33GenerateFieldAccessorDeclarationsEPNS0_2io7PrinterE T
_ZN6google8protobuf8compiler3cpp16MessageGenerator34GenerateDefaultInstanceInitializerEPNS0_2io7PrinterE T
_ZN6google8protobuf8compiler3cpp16MessageGenerator34GenerateSerializeOneExtensionRangeEPNS0_2io7PrinterEPKNS0_10Descriptor14ExtensionRangeEb T
_ZN6google8protobuf8compiler3cpp16MessageGenerator35MaybeGenerateOptionalFieldConditionEPNS0_2io7PrinterEPKNS0_15FieldDescriptorEi T
_ZN6google8protobuf8compiler3cpp16MessageGenerator36GenerateDependentBaseClassDefinitionEPNS0_2io7PrinterE T
_ZN6google8protobuf8compiler3cpp16MessageGenerator36GenerateSerializeWithCachedSizesBodyEPNS0_2io7PrinterEb T
_ZN6google8protobuf8compiler3cpp16MessageGenerator39GenerateSerializeWithCachedSizesToArrayEPNS0_2io7PrinterE T
_ZN6google8protobuf8compiler3cpp16MessageGenerator41GenerateDependentFieldAccessorDefinitionsEPNS0_2io7PrinterE T
_ZN6google8protobuf8compiler3cpp16MessageGenerator42GenerateDependentFieldAccessorDeclarationsEPNS0_2io7PrinterE T
_ZN6google8protobuf8compiler3cpp16MessageGeneratorC1EPKNS0_10DescriptorEiRKNS2_7OptionsEPNS2_11SCCAnalyzerE T
_ZN6google8protobuf8compiler3cpp16MessageGeneratorC2EPKNS0_10DescriptorEiRKNS2_7OptionsEPNS2_11SCCAnalyzerE T
_ZN6google8protobuf8compiler3cpp16MessageGeneratorD1Ev T
_ZN6google8protobuf8compiler3cpp16MessageGeneratorD2Ev T
_ZN6google8protobuf8compiler3cpp16PaddingOptimizer14OptimizeLayoutEPSt6vectorIPKNS0_15FieldDescriptorESaIS7_EERKNS2_7OptionsE T
_ZN6google8protobuf8compiler3cpp16PaddingOptimizerD0Ev W
_ZN6google8protobuf8compiler3cpp16PaddingOptimizerD1Ev W
_ZN6google8protobuf8compiler3cpp16PaddingOptimizerD2Ev W
_ZN6google8protobuf8compiler3cpp16SafeFunctionNameEPKNS0_10DescriptorEPKNS0_15FieldDescriptorERKNSt7__cxx1112basic_stringIcSt11char_traitsIcESaIcEEE T
_ZN6google8protobuf8compiler3cpp16ServiceGenerator17GenerateInterfaceEPNS0_2io7PrinterE T
_ZN6google8protobuf8compiler3cpp16ServiceGenerator18GenerateCallMethodEPNS0_2io7PrinterE T
_ZN6google8protobuf8compiler3cpp16ServiceGenerator19GenerateStubMethodsEPNS0_2io7PrinterE T
_ZN6google8protobuf8compiler3cpp16ServiceGenerator20GenerateDeclarationsEPNS0_2io7PrinterE T
_ZN6google8protobuf8compiler3cpp16ServiceGenerator20GenerateGetPrototypeENS3_17RequestOrResponseEPNS0_2io7PrinterE T
_ZN6google8protobuf8compiler3cpp16ServiceGenerator22GenerateImplementationEPNS0_2io7PrinterE T
_ZN6google8protobuf8compiler3cpp16ServiceGenerator22GenerateStubDefinitionEPNS0_2io7PrinterE T
_ZN6google8protobuf8compiler3cpp16ServiceGenerator24GenerateMethodSignaturesENS3_12VirtualOrNonEPNS0_2io7PrinterE T
_ZN6google8protobuf8compiler3cpp16ServiceGenerator29GenerateDescriptorInitializerEPNS0_2io7PrinterEi T
_ZN6google8protobuf8compiler3cpp16ServiceGenerator29GenerateNotImplementedMethodsEPNS0_2io7PrinterE T
_ZN6google8protobuf8compiler3cpp16ServiceGeneratorC1EPKNS0_17ServiceDescriptorERKNS2_7OptionsE T
_ZN6google8protobuf8compiler3cpp16ServiceGeneratorC2EPKNS0_17ServiceDescriptorERKNS2_7OptionsE T
_ZN6google8protobuf8compiler3cpp16ServiceGeneratorD1Ev T
_ZN6google8protobuf8compiler3cpp16ServiceGeneratorD2Ev T
_ZN6google8protobuf8compiler3cpp17DependentTypeNameB5cxx11EPKNS0_15FieldDescriptorE T
_ZN6google8protobuf8compiler3cpp17FieldConstantNameB5cxx11EPKNS0_15FieldDescriptorE T
_ZN6google8protobuf8compiler3cpp17FieldGeneratorMap13MakeGeneratorEPKNS0_15FieldDescriptorERKNS2_7OptionsE T
_ZN6google8protobuf8compiler3cpp17FieldGeneratorMapC1EPKNS0_10DescriptorERKNS2_7OptionsE T
_ZN6google8protobuf8compiler3cpp17FieldGeneratorMapC2EPKNS0_10DescriptorERKNS2_7OptionsE T
_ZN6google8protobuf8compiler3cpp17FieldGeneratorMapD1Ev T
_ZN6google8protobuf8compiler3cpp17FieldGeneratorMapD2Ev T
_ZN6google8protobuf8compiler3cpp17IsStringOrMessageEPKNS0_15FieldDescriptorE T
_ZN6google8protobuf8compiler3cpp17MapFieldGeneratorC1EPKNS0_15FieldDescriptorERKNS2_7OptionsE T
_ZN6google8protobuf8compiler3cpp17MapFieldGeneratorC2EPKNS0_15FieldDescriptorERKNS2_7OptionsE T
_ZN6google8protobuf8compiler3cpp17MapFieldGeneratorD0Ev T
_ZN6google8protobuf8compiler3cpp17MapFieldGeneratorD1Ev T
_ZN6google8protobuf8compiler3cpp17MapFieldGeneratorD2Ev T
_ZN6google8protobuf8compiler3cpp17PrimitiveTypeNameENS0_15FieldDescriptor7CppTypeE T
_ZN6google8protobuf8compiler3cpp18EnumFieldGeneratorC1EPKNS0_15FieldDescriptorERKNS2_7OptionsE T
_ZN6google8protobuf8compiler3cpp18EnumFieldGeneratorC2EPKNS0_15FieldDescriptorERKNS2_7OptionsE T
_ZN6google8protobuf8compiler3cpp18EnumFieldGeneratorD0Ev T
_ZN6google8protobuf8compiler3cpp18EnumFieldGeneratorD1Ev T
_ZN6google8protobuf8compiler3cpp18EnumFieldGeneratorD2Ev T
_ZN6google8protobuf8compiler3cpp18ExtensionGenerator18GenerateDefinitionEPNS0_2io7PrinterE T
_ZN6google8protobuf8compiler3cpp18ExtensionGenerator19GenerateDeclarationEPNS0_2io7PrinterE T
_ZN6google8protobuf8compiler3cpp18ExtensionGeneratorC1EPKNS0_15FieldDescriptorERKNS2_7OptionsE T
_ZN6google8protobuf8compiler3cpp18ExtensionGeneratorC2EPKNS0_15FieldDescriptorERKNS2_7OptionsE T
_ZN6google8protobuf8compiler3cpp18ExtensionGeneratorD1Ev T
_ZN6google8protobuf8compiler3cpp18ExtensionGeneratorD2Ev T
_ZN6google8protobuf8compiler3cpp18FileLevelNamespaceERKNSt7__cxx1112basic_stringIcSt11char_traitsIcESaIcEEE T
_ZN6google8protobuf8compiler3cpp18FilenameIdentifierERKNSt7__cxx1112basic_stringIcSt11char_traitsIcESaIcEEE T
_ZN6google8protobuf8compiler3cpp18HasEnumDefinitionsEPKNS0_14FileDescriptorE T
_ZN6google8protobuf8compiler3cpp18IsWellKnownMessageEPKNS0_14FileDescriptorE T
_ZN6google8protobuf8compiler3cpp18QualifiedClassNameINS0_10DescriptorEEENSt7__cxx1112basic_stringIcSt11char_traitsIcESaIcEEEPKT_ W
_ZN6google8protobuf8compiler3cpp18QualifiedClassNameINS0_14EnumDescriptorEEENSt7__cxx1112basic_stringIcSt11char_traitsIcESaIcEEEPKT_ W
_ZN6google8protobuf8compiler3cpp19DefaultInstanceNameB5cxx11EPKNS0_10DescriptorE T
_ZN6google8protobuf8compiler3cpp19IsImplicitWeakFieldEPKNS0_15FieldDescriptorERKNS2_7OptionsE T
_ZN6google8protobuf8compiler3cpp19SetMessageVariablesEPKNS0_15FieldDescriptorEPSt3mapINSt7__cxx1112basic_stringIcSt11char_traitsIcESaIcEEESC_St4lessISC_ESaISt4pairIKSC_SC_EEERKNS2_7OptionsE T
_ZN6google8protobuf8compiler3cpp20EffectiveStringCTypeEPKNS0_15FieldDescriptorE T
_ZN6google8protobuf8compiler3cpp20FieldMessageTypeNameB5cxx11EPKNS0_15FieldDescriptorE T
_ZN6google8protobuf8compiler3cpp20StringFieldGeneratorC1EPKNS0_15FieldDescriptorERKNS2_7OptionsE T
_ZN6google8protobuf8compiler3cpp20StringFieldGeneratorC2EPKNS0_15FieldDescriptorERKNS2_7OptionsE T
_ZN6google8protobuf8compiler3cpp20StringFieldGeneratorD0Ev T
_ZN6google8protobuf8compiler3cpp20StringFieldGeneratorD1Ev T
_ZN6google8protobuf8compiler3cpp20StringFieldGeneratorD2Ev T
_ZN6google8protobuf8compiler3cpp21DependentBaseDownCastB5cxx11Ev T
_ZN6google8protobuf8compiler3cpp21EstimateAlignmentSizeEPKNS0_15FieldDescriptorE T
_ZN6google8protobuf8compiler3cpp21FlattenMessagesInFileEPKNS0_14FileDescriptorEPSt6vectorIPKNS0_10DescriptorESaIS9_EE T
_ZN6google8protobuf8compiler3cpp21MessageFieldGeneratorC1EPKNS0_15FieldDescriptorERKNS2_7OptionsE T
_ZN6google8protobuf8compiler3cpp21MessageFieldGeneratorC2EPKNS0_15FieldDescriptorERKNS2_7OptionsE T
_ZN6google8protobuf8compiler3cpp21MessageFieldGeneratorD0Ev T
_ZN6google8protobuf8compiler3cpp21MessageFieldGeneratorD1Ev T
_ZN6google8protobuf8compiler3cpp21MessageFieldGeneratorD2Ev T
_ZN6google8protobuf8compiler3cpp21ReferenceFunctionNameB5cxx11EPKNS0_10DescriptorE T
_ZN6google8protobuf8compiler3cpp22CanInitializeByZeroingEPKNS0_15FieldDescriptorE T
_ZN6google8protobuf8compiler3cpp22DeclaredTypeMethodNameENS0_15FieldDescriptor4TypeE T
_ZN6google8protobuf8compiler3cpp22UnderscoresToCamelCaseERKNSt7__cxx1112basic_stringIcSt11char_traitsIcESaIcEEEb T
_ZN6google8protobuf8compiler3cpp23EnumOneofFieldGeneratorC1EPKNS0_15FieldDescriptorERKNS2_7OptionsE T
_ZN6google8protobuf8compiler3cpp23EnumOneofFieldGeneratorC2EPKNS0_15FieldDescriptorERKNS2_7OptionsE T
_ZN6google8protobuf8compiler3cpp23EnumOneofFieldGeneratorD0Ev T
_ZN6google8protobuf8compiler3cpp23EnumOneofFieldGeneratorD1Ev T
_ZN6google8protobuf8compiler3cpp23EnumOneofFieldGeneratorD2Ev T
_ZN6google8protobuf8compiler3cpp23ListAllTypesForServicesEPKNS0_14FileDescriptorEPSt6vectorIPKNS0_10DescriptorESaIS9_EE T
_ZN6google8protobuf8compiler3cpp23PrimitiveFieldGeneratorC1EPKNS0_15FieldDescriptorERKNS2_7OptionsE T
_ZN6google8protobuf8compiler3cpp23PrimitiveFieldGeneratorC2EPKNS0_15FieldDescriptorERKNS2_7OptionsE T
_ZN6google8protobuf8compiler3cpp23PrimitiveFieldGeneratorD0Ev T
_ZN6google8protobuf8compiler3cpp23PrimitiveFieldGeneratorD1Ev T
_ZN6google8protobuf8compiler3cpp23PrimitiveFieldGeneratorD2Ev T
_ZN6google8protobuf8compiler3cpp23SetCommonFieldVariablesEPKNS0_15FieldDescriptorEPSt3mapINSt7__cxx1112basic_stringIcSt11char_traitsIcESaIcEEESC_St4lessISC_ESaISt4pairIKSC_SC_EEERKNS2_7OptionsE T
_ZN6google8protobuf8compiler3cpp23UsingImplicitWeakFieldsEPKNS0_14FileDescriptorERKNS2_7OptionsE T
_ZN6google8protobuf8compiler3cpp24QualifiedFileLevelSymbolERKNSt7__cxx1112basic_stringIcSt11char_traitsIcESaIcEEESA_ T
_ZN6google8protobuf8compiler3cpp25StringOneofFieldGeneratorC1EPKNS0_15FieldDescriptorERKNS2_7OptionsE T
_ZN6google8protobuf8compiler3cpp25StringOneofFieldGeneratorC2EPKNS0_15FieldDescriptorERKNS2_7OptionsE T
_ZN6google8protobuf8compiler3cpp25StringOneofFieldGeneratorD0Ev T
_ZN6google8protobuf8compiler3cpp25StringOneofFieldGeneratorD1Ev T
_ZN6google8protobuf8compiler3cpp25StringOneofFieldGeneratorD2Ev T
_ZN6google8protobuf8compiler3cpp26DependentBaseConstDownCastB5cxx11Ev T
_ZN6google8protobuf8compiler3cpp26MessageOneofFieldGeneratorC1EPKNS0_15FieldDescriptorERKNS2_7OptionsE T
_ZN6google8protobuf8compiler3cpp26MessageOneofFieldGeneratorC2EPKNS0_15FieldDescriptorERKNS2_7OptionsE T
_ZN6google8protobuf8compiler3cpp26MessageOneofFieldGeneratorD0Ev T
_ZN6google8protobuf8compiler3cpp26MessageOneofFieldGeneratorD1Ev T
_ZN6google8protobuf8compiler3cpp26MessageOneofFieldGeneratorD2Ev T
_ZN6google8protobuf8compiler3cpp26RepeatedEnumFieldGeneratorC1EPKNS0_15FieldDescriptorERKNS2_7OptionsE T
_ZN6google8protobuf8compiler3cpp26RepeatedEnumFieldGeneratorC2EPKNS0_15FieldDescriptorERKNS2_7OptionsE T
_ZN6google8protobuf8compiler3cpp26RepeatedEnumFieldGeneratorD0Ev T
_ZN6google8protobuf8compiler3cpp26RepeatedEnumFieldGeneratorD1Ev T
_ZN6google8protobuf8compiler3cpp26RepeatedEnumFieldGeneratorD2Ev T
_ZN6google8protobuf8compiler3cpp28GenerateUtf8CheckCodeForCordEPKNS0_15FieldDescriptorERKNS2_7OptionsEbRKSt3mapINSt7__cxx1112basic_stringIcSt11char_traitsIcESaIcEEESF_St4lessISF_ESaISt4pairIKSF_SF_EEEPKcPNS0_2io7PrinterE T
_ZN6google8protobuf8compiler3cpp28PrimitiveOneofFieldGeneratorC1EPKNS0_15FieldDescriptorERKNS2_7OptionsE T
_ZN6google8protobuf8compiler3cpp28PrimitiveOneofFieldGeneratorC2EPKNS0_15FieldDescriptorERKNS2_7OptionsE T
_ZN6google8protobuf8compiler3cpp28PrimitiveOneofFieldGeneratorD0Ev T
_ZN6google8protobuf8compiler3cpp28PrimitiveOneofFieldGeneratorD1Ev T
_ZN6google8protobuf8compiler3cpp28PrimitiveOneofFieldGeneratorD2Ev T
_ZN6google8protobuf8compiler3cpp28RepeatedStringFieldGeneratorC1EPKNS0_15FieldDescriptorERKNS2_7OptionsE T
_ZN6google8protobuf8compiler3cpp28RepeatedStringFieldGeneratorC2EPKNS0_15FieldDescriptorERKNS2_7OptionsE T
_ZN6google8protobuf8compiler3cpp28RepeatedStringFieldGeneratorD0Ev T
_ZN6google8protobuf8compiler3cpp28RepeatedStringFieldGeneratorD1Ev T
_ZN6google8protobuf8compiler3cpp28RepeatedStringFieldGeneratorD2Ev T
_ZN6google8protobuf8compiler3cpp28SetCommonOneofFieldVariablesEPKNS0_15FieldDescriptorEPSt3mapINSt7__cxx1112basic_stringIcSt11char_traitsIcESaIcEEESC_St4lessISC_ESaISt4pairIKSC_SC_EEE T
_ZN6google8protobuf8compiler3cpp29RepeatedMessageFieldGeneratorC1EPKNS0_15FieldDescriptorERKNS2_7OptionsE T
_ZN6google8protobuf8compiler3cpp29RepeatedMessageFieldGeneratorC2EPKNS0_15FieldDescriptorERKNS2_7OptionsE T
_ZN6google8protobuf8compiler3cpp29RepeatedMessageFieldGeneratorD0Ev T
_ZN6google8protobuf8compiler3cpp29RepeatedMessageFieldGeneratorD1Ev T
_ZN6google8protobuf8compiler3cpp29RepeatedMessageFieldGeneratorD2Ev T
_ZN6google8protobuf8compiler3cpp30DependentBaseClassTemplateNameB5cxx11EPKNS0_10DescriptorE T
_ZN6google8protobuf8compiler3cpp30GenerateUtf8CheckCodeForStringEPKNS0_15FieldDescriptorERKNS2_7OptionsEbRKSt3mapINSt7__cxx1112basic_stringIcSt11char_traitsIcESaIcEEESF_St4lessISF_ESaISt4pairIKSF_SF_EEEPKcPNS0_2io7PrinterE T
_ZN6google8protobuf8compiler3cpp31RepeatedPrimitiveFieldGeneratorC1EPKNS0_15FieldDescriptorERKNS2_7OptionsE T
_ZN6google8protobuf8compiler3cpp31RepeatedPrimitiveFieldGeneratorC2EPKNS0_15FieldDescriptorERKNS2_7OptionsE T
_ZN6google8protobuf8compiler3cpp31RepeatedPrimitiveFieldGeneratorD0Ev T
_ZN6google8protobuf8compiler3cpp31RepeatedPrimitiveFieldGeneratorD1Ev T
_ZN6google8protobuf8compiler3cpp31RepeatedPrimitiveFieldGeneratorD2Ev T
_ZN6google8protobuf8compiler3cpp9ClassNameB5cxx11EPKNS0_10DescriptorE T
_ZN6google8protobuf8compiler3cpp9ClassNameB5cxx11EPKNS0_14EnumDescriptorE T
_ZN6google8protobuf8compiler3cpp9FieldNameB5cxx11EPKNS0_15FieldDescriptorE T
_ZN6google8protobuf8compiler3cpp9NamespaceERKNSt7__cxx1112basic_stringIcSt11char_traitsIcESaIcEEE T
_ZN6google8protobuf8compiler3php11BinaryToHexERKNSt7__cxx1112basic_stringIcSt11char_traitsIcESaIcEEE T
_ZN6google8protobuf8compiler3php11IntToStringB5cxx11Ei T
_ZN6google8protobuf8compiler3php11RenameEmptyERKNSt7__cxx1112basic_stringIcSt11char_traitsIcESaIcEEE T
_ZN6google8protobuf8compiler3php12EnumFullNameB5cxx11EPKNS0_14EnumDescriptorEb T
_ZN6google8protobuf8compiler3php12EscapeDollorERKNSt7__cxx1112basic_stringIcSt11char_traitsIcESaIcEEE T
_ZN6google8protobuf8compiler3php12GenerateFileEPKNS0_14FileDescriptorEbPNS1_16GeneratorContextE T
_ZN6google8protobuf8compiler3php12GenerateHeadEPKNS0_14FileDescriptorEPNS0_2io7PrinterE T
_ZN6google8protobuf8compiler3php13FullClassNameB5cxx11EPKNS0_17ServiceDescriptorEb T
_ZN6google8protobuf8compiler3php13FullClassNameINS0_10DescriptorEEENSt7__cxx1112basic_stringIcSt11char_traitsIcESaIcEEEPKT_b W
_ZN6google8protobuf8compiler3php13FullClassNameINS0_14EnumDescriptorEEENSt7__cxx1112basic_stringIcSt11char_traitsIcESaIcEEEPKT_b W
_ZN6google8protobuf8compiler3php13GenerateFieldEPKNS0_15FieldDescriptorEPNS0_2io7PrinterEb T
_ZN6google8protobuf8compiler3php13LabelForFieldB5cxx11EPKNS0_15FieldDescriptorE T
_ZN6google8protobuf8compiler3php15ClassNamePrefixINS0_10DescriptorEEENSt7__cxx1112basic_stringIcSt11char_traitsIcESaIcEEERKSA_PKT_ W
_ZN6google8protobuf8compiler3php15ClassNamePrefixINS0_14EnumDescriptorEEENSt7__cxx1112basic_stringIcSt11char_traitsIcESaIcEEERKSA_PKT_ W
_ZN6google8protobuf8compiler3php15ClassNamePrefixINS0_17ServiceDescriptorEEENSt7__cxx1112basic_stringIcSt11char_traitsIcESaIcEEERKSA_PKT_ W
_ZN6google8protobuf8compiler3php15DefaultForFieldB5cxx11EPKNS0_15FieldDescriptorE T
_ZN6google8protobuf8compiler3php15MessageFullNameB5cxx11EPKNS0_10DescriptorEb T
_ZN6google8protobuf8compiler3php16GenerateEnumFileEPKNS0_14FileDescriptorEPKNS0_14EnumDescriptorEbPNS1_16GeneratorContextE T
_ZN6google8protobuf8compiler3php17PhpGetterTypeNameB5cxx11EPKNS0_15FieldDescriptorEb T
_ZN6google8protobuf8compiler3php17PhpSetterTypeNameB5cxx11EPKNS0_15FieldDescriptorEb T
_ZN6google8protobuf8compiler3php18ConstantNamePrefixERKNSt7__cxx1112basic_stringIcSt11char_traitsIcESaIcEEE T
_ZN6google8protobuf8compiler3php18GenerateEnumToPoolEPKNS0_14EnumDescriptorEPNS0_2io7PrinterE T
_ZN6google8protobuf8compiler3php18GenerateOneofFieldEPKNS0_15OneofDescriptorEPNS0_2io7PrinterE T
_ZN6google8protobuf8compiler3php18GeneratedClassNameB5cxx11EPKNS0_10DescriptorE T
_ZN6google8protobuf8compiler3php18GeneratedClassNameB5cxx11EPKNS0_14EnumDescriptorE T
_ZN6google8protobuf8compiler3php18GeneratedClassNameB5cxx11EPKNS0_17ServiceDescriptorE T
_ZN6google8protobuf8compiler3php19EnumOrMessageSuffixB5cxx11EPKNS0_15FieldDescriptorEb T
_ZN6google8protobuf8compiler3php19FilenameToClassnameERKNSt7__cxx1112basic_stringIcSt11char_traitsIcESaIcEEE T
_ZN6google8protobuf8compiler3php19GenerateMessageFileEPKNS0_14FileDescriptorEPKNS0_10DescriptorEbPNS1_16GeneratorContextE T
_ZN6google8protobuf8compiler3php19GenerateServiceFileEPKNS0_14FileDescriptorEPKNS0_17ServiceDescriptorEbPNS1_16GeneratorContextE T
_ZN6google8protobuf8compiler3php20GenerateMetadataFileEPKNS0_14FileDescriptorEbPNS1_16GeneratorContextE T
_ZN6google8protobuf8compiler3php21GenerateAddFileToPoolEPKNS0_14FileDescriptorEbPNS0_2io7PrinterE T
_ZN6google8protobuf8compiler3php21GenerateFieldAccessorEPKNS0_15FieldDescriptorEbPNS0_2io7PrinterE T
_ZN6google8protobuf8compiler3php21GenerateMessageToPoolERKNSt7__cxx1112basic_stringIcSt11char_traitsIcESaIcEEEPKNS0_10DescriptorEPNS0_2io7PrinterE T
_ZN6google8protobuf8compiler3php21GenerateServiceMethodEPKNS0_16MethodDescriptorEPNS0_2io7PrinterE T
_ZN6google8protobuf8compiler3php21GeneratedEnumFileNameB5cxx11EPKNS0_14EnumDescriptorEb T
_ZN6google8protobuf8compiler3php22GenerateEnumDocCommentEPNS0_2io7PrinterEPKNS0_14EnumDescriptorEi T
_ZN6google8protobuf8compiler3php22GenerateUseDeclarationEbPNS0_2io7PrinterE T
_ZN6google8protobuf8compiler3php22UnderscoresToCamelCaseERKNSt7__cxx1112basic_stringIcSt11char_traitsIcESaIcEEEb T
_ZN6google8protobuf8compiler3php23GenerateFieldDocCommentEPNS0_2io7PrinterEPKNS0_15FieldDescriptorEii T
_ZN6google8protobuf8compiler3php24GeneratedMessageFileNameB5cxx11EPKNS0_10DescriptorEb T
_ZN6google8protobuf8compiler3php24GeneratedServiceFileNameB5cxx11EPKNS0_17ServiceDescriptorEb T
_ZN6google8protobuf8compiler3php25GenerateMessageDocCommentEPNS0_2io7PrinterEPKNS0_10DescriptorEi T
_ZN6google8protobuf8compiler3php25GenerateServiceDocCommentEPNS0_2io7PrinterEPKNS0_17ServiceDescriptorE T
_ZN6google8protobuf8compiler3php25GeneratedMetadataFileNameERKNSt7__cxx1112basic_stringIcSt11char_traitsIcESaIcEEEb T
_ZN6google8protobuf8compiler3php27GenerateEnumValueDocCommentEPNS0_2io7PrinterEPKNS0_19EnumValueDescriptorE T
_ZN6google8protobuf8compiler3php31GenerateServiceMethodDocCommentEPNS0_2io7PrinterEPKNS0_16MethodDescriptorE T
_ZN6google8protobuf8compiler3php6IndentEPNS0_2io7PrinterE T
_ZN6google8protobuf8compiler3php7OutdentEPNS0_2io7PrinterE T
_ZN6google8protobuf8compiler3php7PhpNameERKNSt7__cxx1112basic_stringIcSt11char_traitsIcESaIcEEEb T
_ZN6google8protobuf8compiler3php8TypeNameB5cxx11EPKNS0_15FieldDescriptorE T
_ZN6google8protobuf8compiler3php9GeneratorD0Ev W
_ZN6google8protobuf8compiler3php9GeneratorD1Ev W
_ZN6google8protobuf8compiler3php9GeneratorD2Ev W
_ZN6google8protobuf8compiler40_CodeGeneratorResponse_default_instance_E B 0000000000000038
_ZN6google8protobuf8compiler45_CodeGeneratorResponse_File_default_instance_E B 0000000000000030
_ZN6google8protobuf8compiler4java10StripProtoERKNSt7__cxx1112basic_stringIcSt11char_traitsIcESaIcEEE T
_ZN6google8protobuf8compiler4java10ToJavaNameERKNSt7__cxx1112basic_stringIcSt11char_traitsIcESaIcEEEPKNS0_14FileDescriptorE T
_ZN6google8protobuf8compiler4java11GetJavaTypeEPKNS0_15FieldDescriptorE T
_ZN6google8protobuf8compiler4java12DefaultValueB5cxx11EPKNS0_15FieldDescriptorEbPNS2_17ClassNameResolverE T
_ZN6google8protobuf8compiler4java13EnumGenerator16CanUseEnumValuesEv T
_ZN6google8protobuf8compiler4java13EnumGenerator8GenerateEPNS0_2io7PrinterE T
_ZN6google8protobuf8compiler4java13EnumGeneratorC1EPKNS0_14EnumDescriptorEbPNS2_7ContextE T
_ZN6google8protobuf8compiler4java13EnumGeneratorC2EPKNS0_14EnumDescriptorEbPNS2_7ContextE T
_ZN6google8protobuf8compiler4java13EnumGeneratorD1Ev T
_ZN6google8protobuf8compiler4java13EnumGeneratorD2Ev T
_ZN6google8protobuf8compiler4java13EscapeJavadocERKNSt7__cxx1112basic_stringIcSt11char_traitsIcESaIcEEE T
_ZN6google8protobuf8compiler4java13FieldTypeNameENS0_15FieldDescriptor4TypeE T
_ZN6google8protobuf8compiler4java13FileClassNameB5cxx11EPKNS0_14FileDescriptorEb T
_ZN6google8protobuf8compiler4java13FileGenerator16GenerateSiblingsERKNSt7__cxx1112basic_stringIcSt11char_traitsIcESaIcEEEPNS1_16GeneratorContextEPSt6vectorIS9_SaIS9_EESH_ T
_ZN6google8protobuf8compiler4java13FileGenerator23ShouldIncludeDependencyEPKNS0_14FileDescriptorEb T
_ZN6google8protobuf8compiler4java13FileGenerator46GenerateDescriptorInitializationCodeForMutableEPNS0_2io7PrinterE T
_ZN6google8protobuf8compiler4java13FileGenerator48GenerateDescriptorInitializationCodeForImmutableEPNS0_2io7PrinterE T
_ZN6google8protobuf8compiler4java13FileGenerator8GenerateEPNS0_2io7PrinterE T
_ZN6google8protobuf8compiler4java13FileGenerator8ValidateEPNSt7__cxx1112basic_stringIcSt11char_traitsIcESaIcEEE T
_ZN6google8protobuf8compiler4java13FileGeneratorC1EPKNS0_14FileDescriptorERKNS2_7OptionsEb T
_ZN6google8protobuf8compiler4java13FileGeneratorC2EPKNS0_14FileDescriptorERKNS2_7OptionsEb T
_ZN6google8protobuf8compiler4java13FileGeneratorD1Ev T
_ZN6google8protobuf8compiler4java13FileGeneratorD2Ev T
_ZN6google8protobuf8compiler4java13JavaGeneratorC1Ev T
_ZN6google8protobuf8compiler4java13JavaGeneratorC2Ev T
_ZN6google8protobuf8compiler4java13JavaGeneratorD0Ev T
_ZN6google8protobuf8compiler4java13JavaGeneratorD1Ev T
_ZN6google8protobuf8compiler4java13JavaGeneratorD2Ev T
_ZN6google8protobuf8compiler4java14GenerateGetBitB5cxx11Ei T
_ZN6google8protobuf8compiler4java14GenerateSetBitB5cxx11Ei T
_ZN6google8protobuf8compiler4java14kThinSeparatorE R
_ZN6google8protobuf8compiler4java15FileJavaPackageB5cxx11EPKNS0_14FileDescriptorEb T
_ZN6google8protobuf8compiler4java15GetBitFieldNameB5cxx11Ei T
_ZN6google8protobuf8compiler4java15IsReferenceTypeENS2_8JavaTypeE T
_ZN6google8protobuf8compiler4java15kThickSeparatorE R
_ZN6google8protobuf8compiler4java16GenerateClearBitB5cxx11Ei T
_ZN6google8protobuf8compiler4java16GeneratorFactoryC1Ev T
_ZN6google8protobuf8compiler4java16GeneratorFactoryC2Ev T
_ZN6google8protobuf8compiler4java16GeneratorFactoryD0Ev T
_ZN6google8protobuf8compiler4java16GeneratorFactoryD1Ev T
_ZN6google8protobuf8compiler4java16GeneratorFactoryD2Ev T
_ZN6google8protobuf8compiler4java16JavaPackageToDirENSt7__cxx1112basic_stringIcSt11char_traitsIcESaIcEEE T
_ZN6google8protobuf8compiler4java16MessageGeneratorC1EPKNS0_10DescriptorE T
_ZN6google8protobuf8compiler4java16MessageGeneratorC2EPKNS0_10DescriptorE T
_ZN6google8protobuf8compiler4java16MessageGeneratorD0Ev T
_ZN6google8protobuf8compiler4java16MessageGeneratorD1Ev T
_ZN6google8protobuf8compiler4java16MessageGeneratorD2Ev T
_ZN6google8protobuf8compiler4java16ServiceGeneratorC1EPKNS0_17ServiceDescriptorE T
_ZN6google8protobuf8compiler4java16ServiceGeneratorC2EPKNS0_17ServiceDescriptorE T
_ZN6google8protobuf8compiler4java16ServiceGeneratorD0Ev T
_ZN6google8protobuf8compiler4java16ServiceGeneratorD1Ev T
_ZN6google8protobuf8compiler4java16ServiceGeneratorD2Ev T
_ZN6google8protobuf8compiler4java17ClassNameResolver12GetClassNameB5cxx11EPKNS0_10DescriptorEb T
_ZN6google8protobuf8compiler4java17ClassNameResolver12GetClassNameB5cxx11EPKNS0_14EnumDescriptorEb T
_ZN6google8protobuf8compiler4java17ClassNameResolver12GetClassNameB5cxx11EPKNS0_14FileDescriptorEb T
_ZN6google8protobuf8compiler4java17ClassNameResolver12GetClassNameB5cxx11EPKNS0_17ServiceDescriptorEb T
_ZN6google8protobuf8compiler4java17ClassNameResolver16GetClassFullNameERKNSt7__cxx1112basic_stringIcSt11char_traitsIcESaIcEEEPKNS0_14FileDescriptorEbb T
_ZN6google8protobuf8compiler4java17ClassNameResolver16GetFileClassNameB5cxx11EPKNS0_14FileDescriptorEb T
_ZN6google8protobuf8compiler4java17ClassNameResolver20GetJavaClassFullNameERKNSt7__cxx1112basic_stringIcSt11char_traitsIcESaIcEEEPKNS0_14FileDescriptorEb T
_ZN6google8protobuf8compiler4java17ClassNameResolver22GetDescriptorClassNameB5cxx11EPKNS0_14FileDescriptorE T
_ZN6google8protobuf8compiler4java17ClassNameResolver23HasConflictingClassNameEPKNS0_14FileDescriptorERKNSt7__cxx1112basic_stringIcSt11char_traitsIcESaIcEEE T
_ZN6google8protobuf8compiler4java17ClassNameResolver25GetFileImmutableClassNameB5cxx11EPKNS0_14FileDescriptorE T
_ZN6google8protobuf8compiler4java17ClassNameResolver25GetJavaImmutableClassNameB5cxx11EPKNS0_10DescriptorE T
_ZN6google8protobuf8compiler4java17ClassNameResolver25GetJavaImmutableClassNameB5cxx11EPKNS0_14EnumDescriptorE T
_ZN6google8protobuf8compiler4java17ClassNameResolver26GetExtensionIdentifierNameB5cxx11EPKNS0_15FieldDescriptorEb T
_ZN6google8protobuf8compiler4java17ClassNameResolver32GetFileDefaultImmutableClassNameB5cxx11EPKNS0_14FileDescriptorE T
_ZN6google8protobuf8compiler4java17ClassNameResolverC1Ev T
_ZN6google8protobuf8compiler4java17ClassNameResolverC2Ev T
_ZN6google8protobuf8compiler4java17ClassNameResolverD1Ev T
_ZN6google8protobuf8compiler4java17ClassNameResolverD2Ev T
_ZN6google8protobuf8compiler4java17EnumLiteGenerator16CanUseEnumValuesEv T
_ZN6google8protobuf8compiler4java17EnumLiteGenerator8GenerateEPNS0_2io7PrinterE T
_ZN6google8protobuf8compiler4java17EnumLiteGeneratorC1EPKNS0_14EnumDescriptorEbPNS2_7ContextE T
_ZN6google8protobuf8compiler4java17EnumLiteGeneratorC2EPKNS0_14EnumDescriptorEbPNS2_7ContextE T
_ZN6google8protobuf8compiler4java17EnumLiteGeneratorD1Ev T
_ZN6google8protobuf8compiler4java17EnumLiteGeneratorD2Ev T
_ZN6google8protobuf8compiler4java17FieldConstantNameB5cxx11EPKNS0_15FieldDescriptorE T
_ZN6google8protobuf8compiler4java17FieldGeneratorMapINS2_23ImmutableFieldGeneratorEEC1EPKNS0_10DescriptorEPNS2_7ContextE T
_ZN6google8protobuf8compiler4java17FieldGeneratorMapINS2_23ImmutableFieldGeneratorEEC2EPKNS0_10DescriptorEPNS2_7ContextE T
_ZN6google8protobuf8compiler4java17FieldGeneratorMapINS2_23ImmutableFieldGeneratorEED1Ev T
_ZN6google8protobuf8compiler4java17FieldGeneratorMapINS2_23ImmutableFieldGeneratorEED2Ev T
_ZN6google8protobuf8compiler4java17FieldGeneratorMapINS2_27ImmutableFieldLiteGeneratorEEC1EPKNS0_10DescriptorEPNS2_7ContextE T
_ZN6google8protobuf8compiler4java17FieldGeneratorMapINS2_27ImmutableFieldLiteGeneratorEEC2EPKNS0_10DescriptorEPNS2_7ContextE T
_ZN6google8protobuf8compiler4java17FieldGeneratorMapINS2_27ImmutableFieldLiteGeneratorEED1Ev T
_ZN6google8protobuf8compiler4java17FieldGeneratorMapINS2_27ImmutableFieldLiteGeneratorEED2Ev T
_ZN6google8protobuf8compiler4java17HasRepeatedFieldsEPKNS0_10DescriptorE T
_ZN6google8protobuf8compiler4java17HasRequiredFieldsEPKNS0_10DescriptorE T
_ZN6google8protobuf8compiler4java17HasRequiredFieldsEPKNS0_10DescriptorEPNS0_8hash_setIS5_NS0_4hashIS5_EESt8equal_toIS5_EEE T
_ZN6google8protobuf8compiler4java17PrimitiveTypeNameENS2_8JavaTypeE T
_ZN6google8protobuf8compiler4java18AnnotationFileNameINS0_10DescriptorEEENSt7__cxx1112basic_stringIcSt11char_traitsIcESaIcEEEPKT_RKSA_ W
_ZN6google8protobuf8compiler4java18AnnotationFileNameINS0_14EnumDescriptorEEENSt7__cxx1112basic_stringIcSt11char_traitsIcESaIcEEEPKT_RKSA_ W
_ZN6google8protobuf8compiler4java18AnnotationFileNameINS0_17ServiceDescriptorEEENSt7__cxx1112basic_stringIcSt11char_traitsIcESaIcEEEPKT_RKSA_ W
_ZN6google8protobuf8compiler4java18CamelCaseFieldNameB5cxx11EPKNS0_15FieldDescriptorE T
_ZN6google8protobuf8compiler4java18ExtensionGenerator16InitTemplateVarsEPKNS0_15FieldDescriptorERKNSt7__cxx1112basic_stringIcSt11char_traitsIcESaIcEEEbPNS2_17ClassNameResolverEPSt3mapISC_SC_St4lessISC_ESaISt4pairISD_SC_EEE T
_ZN6google8protobuf8compiler4java18GetCapitalizedTypeEPKNS0_15FieldDescriptorEb T
_ZN6google8protobuf8compiler4java18SortFieldsByNumberEPKNS0_10DescriptorE T
_ZN6google8protobuf8compiler4java19EscapeUtf16ToStringEtPNSt7__cxx1112basic_stringIcSt11char_traitsIcESaIcEEE T
_ZN6google8protobuf8compiler4java19PrintExtraFieldInfoERKSt3mapINSt7__cxx1112basic_stringIcSt11char_traitsIcESaIcEEES9_St4lessIS9_ESaISt4pairIKS9_S9_EEEPNS0_2io7PrinterE T
_ZN6google8protobuf8compiler4java19SharedCodeGenerator19GenerateDescriptorsEPNS0_2io7PrinterE T
_ZN6google8protobuf8compiler4java19SharedCodeGenerator8GenerateEPNS1_16GeneratorContextEPSt6vectorINSt7__cxx1112basic_stringIcSt11char_traitsIcESaIcEEESaISC_EESF_ T
_ZN6google8protobuf8compiler4java19SharedCodeGeneratorC1EPKNS0_14FileDescriptorERKNS2_7OptionsE T
_ZN6google8protobuf8compiler4java19SharedCodeGeneratorC2EPKNS0_14FileDescriptorERKNS2_7OptionsE T
_ZN6google8protobuf8compiler4java19SharedCodeGeneratorD1Ev T
_ZN6google8protobuf8compiler4java19SharedCodeGeneratorD2Ev T
_ZN6google8protobuf8compiler4java19WriteEnumDocCommentEPNS0_2io7PrinterEPKNS0_14EnumDescriptorE T
_ZN6google8protobuf8compiler4java20WriteFieldDocCommentEPNS0_2io7PrinterEPKNS0_15FieldDescriptorE T
_ZN6google8protobuf8compiler4java21GenerateSetBitToLocalB5cxx11Ei T
_ZN6google8protobuf8compiler4java21GetBitFieldNameForBitB5cxx11Ei T
_ZN6google8protobuf8compiler4java21WriteMethodDocCommentEPNS0_2io7PrinterEPKNS0_16MethodDescriptorE T
_ZN6google8protobuf8compiler4java22BoxedPrimitiveTypeNameENS2_8JavaTypeE T
_ZN6google8protobuf8compiler4java22ExtraBuilderInterfacesB5cxx11EPKNS0_10DescriptorE T
_ZN6google8protobuf8compiler4java22ExtraMessageInterfacesB5cxx11EPKNS0_10DescriptorE T
_ZN6google8protobuf8compiler4java22UnderscoresToCamelCaseB5cxx11EPKNS0_15FieldDescriptorE T
_ZN6google8protobuf8compiler4java22UnderscoresToCamelCaseB5cxx11EPKNS0_16MethodDescriptorE T
_ZN6google8protobuf8compiler4java22UnderscoresToCamelCaseERKNSt7__cxx1112basic_stringIcSt11char_traitsIcESaIcEEEb T
_ZN6google8protobuf8compiler4java22WriteMessageDocCommentEPNS0_2io7PrinterEPKNS0_10DescriptorE T
_ZN6google8protobuf8compiler4java22WriteServiceDocCommentEPNS0_2io7PrinterEPKNS0_17ServiceDescriptorE T
_ZN6google8protobuf8compiler4java23GenerateGetBitFromLocalB5cxx11Ei T
_ZN6google8protobuf8compiler4java23ImmutableFieldGeneratorD0Ev T
_ZN6google8protobuf8compiler4java23ImmutableFieldGeneratorD1Ev T
_ZN6google8protobuf8compiler4java23ImmutableFieldGeneratorD2Ev T
_ZN6google8protobuf8compiler4java23MessageBuilderGenerator21GenerateIsInitializedEPNS0_2io7PrinterE T
_ZN6google8protobuf8compiler4java23MessageBuilderGenerator25GenerateDescriptorMethodsEPNS0_2io7PrinterE T
_ZN6google8protobuf8compiler4java23MessageBuilderGenerator28GenerateCommonBuilderMethodsEPNS0_2io7PrinterE T
_ZN6google8protobuf8compiler4java23MessageBuilderGenerator29GenerateBuilderParsingMethodsEPNS0_2io7PrinterE T
_ZN6google8protobuf8compiler4java23MessageBuilderGenerator8GenerateEPNS0_2io7PrinterE T
_ZN6google8protobuf8compiler4java23MessageBuilderGeneratorC1EPKNS0_10DescriptorEPNS2_7ContextE T
_ZN6google8protobuf8compiler4java23MessageBuilderGeneratorC2EPKNS0_10DescriptorEPNS2_7ContextE T
_ZN6google8protobuf8compiler4java23MessageBuilderGeneratorD0Ev T
_ZN6google8protobuf8compiler4java23MessageBuilderGeneratorD1Ev T
_ZN6google8protobuf8compiler4java23MessageBuilderGeneratorD2Ev T
_ZN6google8protobuf8compiler4java23SetCommonFieldVariablesEPKNS0_15FieldDescriptorEPKNS2_18FieldGeneratorInfoEPSt3mapINSt7__cxx1112basic_stringIcSt11char_traitsIcESaIcEEESF_St4lessISF_ESaISt4pairIKSF_SF_EEE T
_ZN6google8protobuf8compiler4java23SetCommonOneofVariablesEPKNS0_15FieldDescriptorEPKNS2_18OneofGeneratorInfoEPSt3mapINSt7__cxx1112basic_stringIcSt11char_traitsIcESaIcEEESF_St4lessISF_ESaISt4pairIKSF_SF_EEE T
_ZN6google8protobuf8compiler4java24PrintGeneratedAnnotationEPNS0_2io7PrinterEcRKNSt7__cxx1112basic_stringIcSt11char_traitsIcESaIcEEE T
_ZN6google8protobuf8compiler4java24WriteEnumValueDocCommentEPNS0_2io7PrinterEPKNS0_19EnumValueDescriptorE T
_ZN6google8protobuf8compiler4java25ImmutableGeneratorFactoryC1EPNS2_7ContextE T
_ZN6google8protobuf8compiler4java25ImmutableGeneratorFactoryC2EPNS2_7ContextE T
_ZN6google8protobuf8compiler4java25ImmutableGeneratorFactoryD0Ev T
_ZN6google8protobuf8compiler4java25ImmutableGeneratorFactoryD1Ev T
_ZN6google8protobuf8compiler4java25ImmutableGeneratorFactoryD2Ev T
_ZN6google8protobuf8compiler4java25ImmutableMessageGenerator14GenerateParserEPNS0_2io7PrinterE T
_ZN6google8protobuf8compiler4java25ImmutableMessageGenerator15GenerateBuilderEPNS0_2io7PrinterE T
_ZN6google8protobuf8compiler4java25ImmutableMessageGenerator17GenerateInterfaceEPNS0_2io7PrinterE T
_ZN6google8protobuf8compiler4java25ImmutableMessageGenerator18GenerateAnyMethodsEPNS0_2io7PrinterE T
_ZN6google8protobuf8compiler4java25ImmutableMessageGenerator20GenerateInitializersEPNS0_2io7PrinterE T
_ZN6google8protobuf8compiler4java25ImmutableMessageGenerator21GenerateIsInitializedEPNS0_2io7PrinterE T
_ZN6google8protobuf8compiler4java25ImmutableMessageGenerator23GenerateStaticVariablesEPNS0_2io7PrinterEPi T
_ZN6google8protobuf8compiler4java25ImmutableMessageGenerator24GenerateParseFromMethodsEPNS0_2io7PrinterE T
_ZN6google8protobuf8compiler4java25ImmutableMessageGenerator25GenerateDescriptorMethodsEPNS0_2io7PrinterE T
_ZN6google8protobuf8compiler4java25ImmutableMessageGenerator25GenerateEqualsAndHashCodeEPNS0_2io7PrinterE T
_ZN6google8protobuf8compiler4java25ImmutableMessageGenerator25GenerateSerializeOneFieldEPNS0_2io7PrinterEPKNS0_15FieldDescriptorE T
_ZN6google8protobuf8compiler4java25ImmutableMessageGenerator26GenerateFieldAccessorTableEPNS0_2io7PrinterEPi T
_ZN6google8protobuf8compiler4java25ImmutableMessageGenerator26GenerateParsingConstructorEPNS0_2io7PrinterE T
_ZN6google8protobuf8compiler4java25ImmutableMessageGenerator33GenerateExtensionRegistrationCodeEPNS0_2io7PrinterE T
_ZN6google8protobuf8compiler4java25ImmutableMessageGenerator34GenerateSerializeOneExtensionRangeEPNS0_2io7PrinterEPKNS0_10Descriptor14ExtensionRangeE T
_ZN6google8protobuf8compiler4java25ImmutableMessageGenerator34GenerateStaticVariableInitializersEPNS0_2io7PrinterE T
_ZN6google8protobuf8compiler4java25ImmutableMessageGenerator35GenerateMessageSerializationMethodsEPNS0_2io7PrinterE T
_ZN6google8protobuf8compiler4java25ImmutableMessageGenerator37GenerateFieldAccessorTableInitializerEPNS0_2io7PrinterE T
_ZN6google8protobuf8compiler4java25ImmutableMessageGenerator8GenerateEPNS0_2io7PrinterE T
_ZN6google8protobuf8compiler4java25ImmutableMessageGeneratorC1EPKNS0_10DescriptorEPNS2_7ContextE T
_ZN6google8protobuf8compiler4java25ImmutableMessageGeneratorC2EPKNS0_10DescriptorEPNS2_7ContextE T
_ZN6google8protobuf8compiler4java25ImmutableMessageGeneratorD0Ev T
_ZN6google8protobuf8compiler4java25ImmutableMessageGeneratorD1Ev T
_ZN6google8protobuf8compiler4java25ImmutableMessageGeneratorD2Ev T
_ZN6google8protobuf8compiler4java25ImmutableServiceGenerator12GenerateStubEPNS0_2io7PrinterE T
_ZN6google8protobuf8compiler4java25ImmutableServiceGenerator17GenerateInterfaceEPNS0_2io7PrinterE T
_ZN6google8protobuf8compiler4java25ImmutableServiceGenerator18GenerateCallMethodEPNS0_2io7PrinterE T
_ZN6google8protobuf8compiler4java25ImmutableServiceGenerator20GenerateBlockingStubEPNS0_2io7PrinterE T
_ZN6google8protobuf8compiler4java25ImmutableServiceGenerator20GenerateGetPrototypeENS2_16ServiceGenerator17RequestOrResponseEPNS0_2io7PrinterE T
_ZN6google8protobuf8compiler4java25ImmutableServiceGenerator23GenerateAbstractMethodsEPNS0_2io7PrinterE T
_ZN6google8protobuf8compiler4java25ImmutableServiceGenerator23GenerateMethodSignatureEPNS0_2io7PrinterEPKNS0_16MethodDescriptorENS2_16ServiceGenerator10IsAbstractE T
_ZN6google8protobuf8compiler4java25ImmutableServiceGenerator26GenerateCallBlockingMethodEPNS0_2io7PrinterE T
_ZN6google8protobuf8compiler4java25ImmutableServiceGenerator28GenerateGetDescriptorForTypeEPNS0_2io7PrinterE T
_ZN6google8protobuf8compiler4java25ImmutableServiceGenerator31GenerateBlockingMethodSignatureEPNS0_2io7PrinterEPKNS0_16MethodDescriptorE T
_ZN6google8protobuf8compiler4java25ImmutableServiceGenerator34GenerateNewReflectiveServiceMethodEPNS0_2io7PrinterE T
_ZN6google8protobuf8compiler4java25ImmutableServiceGenerator42GenerateNewReflectiveBlockingServiceMethodEPNS0_2io7PrinterE T
_ZN6google8protobuf8compiler4java25ImmutableServiceGenerator8GenerateEPNS0_2io7PrinterE T
_ZN6google8protobuf8compiler4java25ImmutableServiceGenerator9GetOutputB5cxx11EPKNS0_16MethodDescriptorE T
_ZN6google8protobuf8compiler4java25ImmutableServiceGeneratorC1EPKNS0_17ServiceDescriptorEPNS2_7ContextE T
_ZN6google8protobuf8compiler4java25ImmutableServiceGeneratorC2EPKNS0_17ServiceDescriptorEPNS2_7ContextE T
_ZN6google8protobuf8compiler4java25ImmutableServiceGeneratorD0Ev T
_ZN6google8protobuf8compiler4java25ImmutableServiceGeneratorD1Ev T
_ZN6google8protobuf8compiler4java25ImmutableServiceGeneratorD2Ev T
_ZN6google8protobuf8compiler4java25IsDefaultValueJavaDefaultEPKNS0_15FieldDescriptorE T
_ZN6google8protobuf8compiler4java25UniqueFileScopeIdentifierB5cxx11EPKNS0_10DescriptorE T
_ZN6google8protobuf8compiler4java26GenerateGetBitMutableLocalB5cxx11Ei T
_ZN6google8protobuf8compiler4java26GenerateSetBitMutableLocalB5cxx11Ei T
_ZN6google8protobuf8compiler4java26ImmutableMapFieldGeneratorC1EPKNS0_15FieldDescriptorEiiPNS2_7ContextE T
_ZN6google8protobuf8compiler4java26ImmutableMapFieldGeneratorC2EPKNS0_15FieldDescriptorEiiPNS2_7ContextE T
_ZN6google8protobuf8compiler4java26ImmutableMapFieldGeneratorD0Ev T
_ZN6google8protobuf8compiler4java26ImmutableMapFieldGeneratorD1Ev T
_ZN6google8protobuf8compiler4java26ImmutableMapFieldGeneratorD2Ev T
_ZN6google8protobuf8compiler4java27ImmutableEnumFieldGeneratorC1EPKNS0_15FieldDescriptorEiiPNS2_7ContextE T
_ZN6google8protobuf8compiler4java27ImmutableEnumFieldGeneratorC2EPKNS0_15FieldDescriptorEiiPNS2_7ContextE T
_ZN6google8protobuf8compiler4java27ImmutableEnumFieldGeneratorD0Ev T
_ZN6google8protobuf8compiler4java27ImmutableEnumFieldGeneratorD1Ev T
_ZN6google8protobuf8compiler4java27ImmutableEnumFieldGeneratorD2Ev T
_ZN6google8protobuf8compiler4java27ImmutableExtensionGenerator24GenerateRegistrationCodeEPNS0_2io7PrinterE T
_ZN6google8protobuf8compiler4java27ImmutableExtensionGenerator35GenerateNonNestedInitializationCodeEPNS0_2io7PrinterE T
_ZN6google8protobuf8compiler4java27ImmutableExtensionGenerator8GenerateEPNS0_2io7PrinterE T
_ZN6google8protobuf8compiler4java27ImmutableExtensionGeneratorC1EPKNS0_15FieldDescriptorEPNS2_7ContextE T
_ZN6google8protobuf8compiler4java27ImmutableExtensionGeneratorC2EPKNS0_15FieldDescriptorEPNS2_7ContextE T
_ZN6google8protobuf8compiler4java27ImmutableExtensionGeneratorD0Ev T
_ZN6google8protobuf8compiler4java27ImmutableExtensionGeneratorD1Ev T
_ZN6google8protobuf8compiler4java27ImmutableExtensionGeneratorD2Ev T
_ZN6google8protobuf8compiler4java27ImmutableFieldLiteGeneratorD0Ev T
_ZN6google8protobuf8compiler4java27ImmutableFieldLiteGeneratorD1Ev T
_ZN6google8protobuf8compiler4java27ImmutableFieldLiteGeneratorD2Ev T
_ZN6google8protobuf8compiler4java27MessageBuilderLiteGenerator28GenerateCommonBuilderMethodsEPNS0_2io7PrinterE T
_ZN6google8protobuf8compiler4java27MessageBuilderLiteGenerator8GenerateEPNS0_2io7PrinterE T
_ZN6google8protobuf8compiler4java27MessageBuilderLiteGeneratorC1EPKNS0_10DescriptorEPNS2_7ContextE T
_ZN6google8protobuf8compiler4java27MessageBuilderLiteGeneratorC2EPKNS0_10DescriptorEPNS2_7ContextE T
_ZN6google8protobuf8compiler4java27MessageBuilderLiteGeneratorD0Ev T
_ZN6google8protobuf8compiler4java27MessageBuilderLiteGeneratorD1Ev T
_ZN6google8protobuf8compiler4java27MessageBuilderLiteGeneratorD2Ev T
_ZN6google8protobuf8compiler4java28GetExperimentalJavaFieldTypeEPKNS0_15FieldDescriptorE T
_ZN6google8protobuf8compiler4java29ImmutableMessageLiteGenerator14GenerateParserEPNS0_2io7PrinterE T
_ZN6google8protobuf8compiler4java29ImmutableMessageLiteGenerator15GenerateBuilderEPNS0_2io7PrinterE T
_ZN6google8protobuf8compiler4java29ImmutableMessageLiteGenerator17GenerateInterfaceEPNS0_2io7PrinterE T
_ZN6google8protobuf8compiler4java29ImmutableMessageLiteGenerator19GenerateConstructorEPNS0_2io7PrinterE T
_ZN6google8protobuf8compiler4java29ImmutableMessageLiteGenerator20GenerateInitializersEPNS0_2io7PrinterE T
_ZN6google8protobuf8compiler4java29ImmutableMessageLiteGenerator23GenerateStaticVariablesEPNS0_2io7PrinterEPi T
_ZN6google8protobuf8compiler4java29ImmutableMessageLiteGenerator24GenerateParseFromMethodsEPNS0_2io7PrinterE T
_ZN6google8protobuf8compiler4java29ImmutableMessageLiteGenerator25GenerateSerializeOneFieldEPNS0_2io7PrinterEPKNS0_15FieldDescriptorE T
_ZN6google8protobuf8compiler4java29ImmutableMessageLiteGenerator26GenerateDynamicMethodVisitEPNS0_2io7PrinterE T
_ZN6google8protobuf8compiler4java29ImmutableMessageLiteGenerator31GenerateDynamicMethodNewBuilderEPNS0_2io7PrinterE T
_ZN6google8protobuf8compiler4java29ImmutableMessageLiteGenerator33GenerateExtensionRegistrationCodeEPNS0_2io7PrinterE T
_ZN6google8protobuf8compiler4java29ImmutableMessageLiteGenerator34GenerateDynamicMethodIsInitializedEPNS0_2io7PrinterE T
_ZN6google8protobuf8compiler4java29ImmutableMessageLiteGenerator34GenerateDynamicMethodMakeImmutableEPNS0_2io7PrinterE T
_ZN6google8protobuf8compiler4java29ImmutableMessageLiteGenerator34GenerateSerializeOneExtensionRangeEPNS0_2io7PrinterEPKNS0_10Descriptor14ExtensionRangeE T
_ZN6google8protobuf8compiler4java29ImmutableMessageLiteGenerator34GenerateStaticVariableInitializersEPNS0_2io7PrinterE T
_ZN6google8protobuf8compiler4java29ImmutableMessageLiteGenerator35GenerateMessageSerializationMethodsEPNS0_2io7PrinterE T
_ZN6google8protobuf8compiler4java29ImmutableMessageLiteGenerator36GenerateDynamicMethodMergeFromStreamEPNS0_2io7PrinterE T
_ZN6google8protobuf8compiler4java29ImmutableMessageLiteGenerator8GenerateEPNS0_2io7PrinterE T
_ZN6google8protobuf8compiler4java29ImmutableMessageLiteGeneratorC1EPKNS0_10DescriptorEPNS2_7ContextE T
_ZN6google8protobuf8compiler4java29ImmutableMessageLiteGeneratorC2EPKNS0_10DescriptorEPNS2_7ContextE T
_ZN6google8protobuf8compiler4java29ImmutableMessageLiteGeneratorD0Ev T
_ZN6google8protobuf8compiler4java29ImmutableMessageLiteGeneratorD1Ev T
_ZN6google8protobuf8compiler4java29ImmutableMessageLiteGeneratorD2Ev T
_ZN6google8protobuf8compiler4java29ImmutableStringFieldGeneratorC1EPKNS0_15FieldDescriptorEiiPNS2_7ContextE T
_ZN6google8protobuf8compiler4java29ImmutableStringFieldGeneratorC2EPKNS0_15FieldDescriptorEiiPNS2_7ContextE T
_ZN6google8protobuf8compiler4java29ImmutableStringFieldGeneratorD0Ev T
_ZN6google8protobuf8compiler4java29ImmutableStringFieldGeneratorD1Ev T
_ZN6google8protobuf8compiler4java29ImmutableStringFieldGeneratorD2Ev T
_ZN6google8protobuf8compiler4java30ImmutableMapFieldLiteGeneratorC1EPKNS0_15FieldDescriptorEiiPNS2_7ContextE T
_ZN6google8protobuf8compiler4java30ImmutableMapFieldLiteGeneratorC2EPKNS0_15FieldDescriptorEiiPNS2_7ContextE T
_ZN6google8protobuf8compiler4java30ImmutableMapFieldLiteGeneratorD0Ev T
_ZN6google8protobuf8compiler4java30ImmutableMapFieldLiteGeneratorD1Ev T
_ZN6google8protobuf8compiler4java30ImmutableMapFieldLiteGeneratorD2Ev T
_ZN6google8protobuf8compiler4java30ImmutableMessageFieldGeneratorC1EPKNS0_15FieldDescriptorEiiPNS2_7ContextE T
_ZN6google8protobuf8compiler4java30ImmutableMessageFieldGeneratorC2EPKNS0_15FieldDescriptorEiiPNS2_7ContextE T
_ZN6google8protobuf8compiler4java30ImmutableMessageFieldGeneratorD0Ev T
_ZN6google8protobuf8compiler4java30ImmutableMessageFieldGeneratorD1Ev T
_ZN6google8protobuf8compiler4java30ImmutableMessageFieldGeneratorD2Ev T
_ZN6google8protobuf8compiler4java30WriteUInt32ToUtf16CharSequenceEjPSt6vectorItSaItEE T
_ZN6google8protobuf8compiler4java31ExtraMessageOrBuilderInterfacesB5cxx11EPKNS0_10DescriptorE T
_ZN6google8protobuf8compiler4java31ImmutableEnumFieldLiteGeneratorC1EPKNS0_15FieldDescriptorEiiPNS2_7ContextE T
_ZN6google8protobuf8compiler4java31ImmutableEnumFieldLiteGeneratorC2EPKNS0_15FieldDescriptorEiiPNS2_7ContextE T
_ZN6google8protobuf8compiler4java31ImmutableEnumFieldLiteGeneratorD0Ev T
_ZN6google8protobuf8compiler4java31ImmutableEnumFieldLiteGeneratorD1Ev T
_ZN6google8protobuf8compiler4java31ImmutableEnumFieldLiteGeneratorD2Ev T
_ZN6google8protobuf8compiler4java31ImmutableExtensionLiteGenerator24GenerateRegistrationCodeEPNS0_2io7PrinterE T
_ZN6google8protobuf8compiler4java31ImmutableExtensionLiteGenerator35GenerateNonNestedInitializationCodeEPNS0_2io7PrinterE T
_ZN6google8protobuf8compiler4java31ImmutableExtensionLiteGenerator8GenerateEPNS0_2io7PrinterE T
_ZN6google8protobuf8compiler4java31ImmutableExtensionLiteGeneratorC1EPKNS0_15FieldDescriptorEPNS2_7ContextE T
_ZN6google8protobuf8compiler4java31ImmutableExtensionLiteGeneratorC2EPKNS0_15FieldDescriptorEPNS2_7ContextE T
_ZN6google8protobuf8compiler4java31ImmutableExtensionLiteGeneratorD0Ev T
_ZN6google8protobuf8compiler4java31ImmutableExtensionLiteGeneratorD1Ev T
_ZN6google8protobuf8compiler4java31ImmutableExtensionLiteGeneratorD2Ev T
_ZN6google8protobuf8compiler4java32ImmutableEnumOneofFieldGeneratorC1EPKNS0_15FieldDescriptorEiiPNS2_7ContextE T
_ZN6google8protobuf8compiler4java32ImmutableEnumOneofFieldGeneratorC2EPKNS0_15FieldDescriptorEiiPNS2_7ContextE T
_ZN6google8protobuf8compiler4java32ImmutableEnumOneofFieldGeneratorD0Ev T
_ZN6google8protobuf8compiler4java32ImmutableEnumOneofFieldGeneratorD1Ev T
_ZN6google8protobuf8compiler4java32ImmutableEnumOneofFieldGeneratorD2Ev T
_ZN6google8protobuf8compiler4java32ImmutablePrimitiveFieldGeneratorC1EPKNS0_15FieldDescriptorEiiPNS2_7ContextE T
_ZN6google8protobuf8compiler4java32ImmutablePrimitiveFieldGeneratorC2EPKNS0_15FieldDescriptorEiiPNS2_7ContextE T
_ZN6google8protobuf8compiler4java32ImmutablePrimitiveFieldGeneratorD0Ev T
_ZN6google8protobuf8compiler4java32ImmutablePrimitiveFieldGeneratorD1Ev T
_ZN6google8protobuf8compiler4java32ImmutablePrimitiveFieldGeneratorD2Ev T
_ZN6google8protobuf8compiler4java33ImmutableStringFieldLiteGeneratorC1EPKNS0_15FieldDescriptorEiiPNS2_7ContextE T
_ZN6google8protobuf8compiler4java33ImmutableStringFieldLiteGeneratorC2EPKNS0_15FieldDescriptorEiiPNS2_7ContextE T
_ZN6google8protobuf8compiler4java33ImmutableStringFieldLiteGeneratorD0Ev T
_ZN6google8protobuf8compiler4java33ImmutableStringFieldLiteGeneratorD1Ev T
_ZN6google8protobuf8compiler4java33ImmutableStringFieldLiteGeneratorD2Ev T
_ZN6google8protobuf8compiler4java33UnderscoresToCapitalizedCamelCaseB5cxx11EPKNS0_15FieldDescriptorE T
_ZN6google8protobuf8compiler4java34ImmutableLazyMessageFieldGeneratorC1EPKNS0_15FieldDescriptorEiiPNS2_7ContextE T
_ZN6google8protobuf8compiler4java34ImmutableLazyMessageFieldGeneratorC2EPKNS0_15FieldDescriptorEiiPNS2_7ContextE T
_ZN6google8protobuf8compiler4java34ImmutableLazyMessageFieldGeneratorD0Ev T
_ZN6google8protobuf8compiler4java34ImmutableLazyMessageFieldGeneratorD1Ev T
_ZN6google8protobuf8compiler4java34ImmutableLazyMessageFieldGeneratorD2Ev T
_ZN6google8protobuf8compiler4java34ImmutableMessageFieldLiteGeneratorC1EPKNS0_15FieldDescriptorEiiPNS2_7ContextE T
_ZN6google8protobuf8compiler4java34ImmutableMessageFieldLiteGeneratorC2EPKNS0_15FieldDescriptorEiiPNS2_7ContextE T
_ZN6google8protobuf8compiler4java34ImmutableMessageFieldLiteGeneratorD0Ev T
_ZN6google8protobuf8compiler4java34ImmutableMessageFieldLiteGeneratorD1Ev T
_ZN6google8protobuf8compiler4java34ImmutableMessageFieldLiteGeneratorD2Ev T
_ZN6google8protobuf8compiler4java34ImmutableStringOneofFieldGeneratorC1EPKNS0_15FieldDescriptorEiiPNS2_7ContextE T
_ZN6google8protobuf8compiler4java34ImmutableStringOneofFieldGeneratorC2EPKNS0_15FieldDescriptorEiiPNS2_7ContextE T
_ZN6google8protobuf8compiler4java34ImmutableStringOneofFieldGeneratorD0Ev T
_ZN6google8protobuf8compiler4java34ImmutableStringOneofFieldGeneratorD1Ev T
_ZN6google8protobuf8compiler4java34ImmutableStringOneofFieldGeneratorD2Ev T
_ZN6google8protobuf8compiler4java34IsByteStringWithCustomDefaultValueEPKNS0_15FieldDescriptorE T
_ZN6google8protobuf8compiler4java35ImmutableMessageOneofFieldGeneratorC1EPKNS0_15FieldDescriptorEiiPNS2_7ContextE T
_ZN6google8protobuf8compiler4java35ImmutableMessageOneofFieldGeneratorC2EPKNS0_15FieldDescriptorEiiPNS2_7ContextE T
_ZN6google8protobuf8compiler4java35ImmutableMessageOneofFieldGeneratorD0Ev T
_ZN6google8protobuf8compiler4java35ImmutableMessageOneofFieldGeneratorD1Ev T
_ZN6google8protobuf8compiler4java35ImmutableMessageOneofFieldGeneratorD2Ev T
_ZN6google8protobuf8compiler4java35RepeatedImmutableEnumFieldGeneratorC1EPKNS0_15FieldDescriptorEiiPNS2_7ContextE T
_ZN6google8protobuf8compiler4java35RepeatedImmutableEnumFieldGeneratorC2EPKNS0_15FieldDescriptorEiiPNS2_7ContextE T
_ZN6google8protobuf8compiler4java35RepeatedImmutableEnumFieldGeneratorD0Ev T
_ZN6google8protobuf8compiler4java35RepeatedImmutableEnumFieldGeneratorD1Ev T
_ZN6google8protobuf8compiler4java35RepeatedImmutableEnumFieldGeneratorD2Ev T
_ZN6google8protobuf8compiler4java36ImmutableEnumOneofFieldLiteGeneratorC1EPKNS0_15FieldDescriptorEiiPNS2_7ContextE T
_ZN6google8protobuf8compiler4java36ImmutableEnumOneofFieldLiteGeneratorC2EPKNS0_15FieldDescriptorEiiPNS2_7ContextE T
_ZN6google8protobuf8compiler4java36ImmutableEnumOneofFieldLiteGeneratorD0Ev T
_ZN6google8protobuf8compiler4java36ImmutableEnumOneofFieldLiteGeneratorD1Ev T
_ZN6google8protobuf8compiler4java36ImmutableEnumOneofFieldLiteGeneratorD2Ev T
_ZN6google8protobuf8compiler4java36ImmutablePrimitiveFieldLiteGeneratorC1EPKNS0_15FieldDescriptorEiiPNS2_7ContextE T
_ZN6google8protobuf8compiler4java36ImmutablePrimitiveFieldLiteGeneratorC2EPKNS0_15FieldDescriptorEiiPNS2_7ContextE T
_ZN6google8protobuf8compiler4java36ImmutablePrimitiveFieldLiteGeneratorD0Ev T
_ZN6google8protobuf8compiler4java36ImmutablePrimitiveFieldLiteGeneratorD1Ev T
_ZN6google8protobuf8compiler4java36ImmutablePrimitiveFieldLiteGeneratorD2Ev T
_ZN6google8protobuf8compiler4java37GetExperimentalJavaFieldTypeForPackedEPKNS0_15FieldDescriptorE T
_ZN6google8protobuf8compiler4java37ImmutablePrimitiveOneofFieldGeneratorC1EPKNS0_15FieldDescriptorEiiPNS2_7ContextE T
_ZN6google8protobuf8compiler4java37ImmutablePrimitiveOneofFieldGeneratorC2EPKNS0_15FieldDescriptorEiiPNS2_7ContextE T
_ZN6google8protobuf8compiler4java37ImmutablePrimitiveOneofFieldGeneratorD0Ev T
_ZN6google8protobuf8compiler4java37ImmutablePrimitiveOneofFieldGeneratorD1Ev T
_ZN6google8protobuf8compiler4java37ImmutablePrimitiveOneofFieldGeneratorD2Ev T
_ZN6google8protobuf8compiler4java37RepeatedImmutableStringFieldGeneratorC1EPKNS0_15FieldDescriptorEiiPNS2_7ContextE T
_ZN6google8protobuf8compiler4java37RepeatedImmutableStringFieldGeneratorC2EPKNS0_15FieldDescriptorEiiPNS2_7ContextE T
_ZN6google8protobuf8compiler4java37RepeatedImmutableStringFieldGeneratorD0Ev T
_ZN6google8protobuf8compiler4java37RepeatedImmutableStringFieldGeneratorD1Ev T
_ZN6google8protobuf8compiler4java37RepeatedImmutableStringFieldGeneratorD2Ev T
_ZN6google8protobuf8compiler4java38ImmutableLazyMessageFieldLiteGeneratorC1EPKNS0_15FieldDescriptorEiiPNS2_7ContextE T
_ZN6google8protobuf8compiler4java38ImmutableLazyMessageFieldLiteGeneratorC2EPKNS0_15FieldDescriptorEiiPNS2_7ContextE T
_ZN6google8protobuf8compiler4java38ImmutableLazyMessageFieldLiteGeneratorD0Ev T
_ZN6google8protobuf8compiler4java38ImmutableLazyMessageFieldLiteGeneratorD1Ev T
_ZN6google8protobuf8compiler4java38ImmutableLazyMessageFieldLiteGeneratorD2Ev T
_ZN6google8protobuf8compiler4java38ImmutableStringOneofFieldLiteGeneratorC1EPKNS0_15FieldDescriptorEiiPNS2_7ContextE T
_ZN6google8protobuf8compiler4java38ImmutableStringOneofFieldLiteGeneratorC2EPKNS0_15FieldDescriptorEiiPNS2_7ContextE T
_ZN6google8protobuf8compiler4java38ImmutableStringOneofFieldLiteGeneratorD0Ev T
_ZN6google8protobuf8compiler4java38ImmutableStringOneofFieldLiteGeneratorD1Ev T
_ZN6google8protobuf8compiler4java38ImmutableStringOneofFieldLiteGeneratorD2Ev T
_ZN6google8protobuf8compiler4java38RepeatedImmutableMessageFieldGeneratorC1EPKNS0_15FieldDescriptorEiiPNS2_7ContextE T
_ZN6google8protobuf8compiler4java38RepeatedImmutableMessageFieldGeneratorC2EPKNS0_15FieldDescriptorEiiPNS2_7ContextE T
_ZN6google8protobuf8compiler4java38RepeatedImmutableMessageFieldGeneratorD0Ev T
_ZN6google8protobuf8compiler4java38RepeatedImmutableMessageFieldGeneratorD1Ev T
_ZN6google8protobuf8compiler4java38RepeatedImmutableMessageFieldGeneratorD2Ev T
_ZN6google8protobuf8compiler4java39GetExperimentalJavaFieldTypeForRepeatedEPKNS0_15FieldDescriptorE T
_ZN6google8protobuf8compiler4java39GetExperimentalJavaFieldTypeForSingularEPKNS0_15FieldDescriptorE T
_ZN6google8protobuf8compiler4java39ImmutableLazyMessageOneofFieldGeneratorC1EPKNS0_15FieldDescriptorEiiPNS2_7ContextE T
_ZN6google8protobuf8compiler4java39ImmutableLazyMessageOneofFieldGeneratorC2EPKNS0_15FieldDescriptorEiiPNS2_7ContextE T
_ZN6google8protobuf8compiler4java39ImmutableLazyMessageOneofFieldGeneratorD0Ev T
_ZN6google8protobuf8compiler4java39ImmutableLazyMessageOneofFieldGeneratorD1Ev T
_ZN6google8protobuf8compiler4java39ImmutableLazyMessageOneofFieldGeneratorD2Ev T
_ZN6google8protobuf8compiler4java39ImmutableMessageOneofFieldLiteGeneratorC1EPKNS0_15FieldDescriptorEiiPNS2_7ContextE T
_ZN6google8protobuf8compiler4java39ImmutableMessageOneofFieldLiteGeneratorC2EPKNS0_15FieldDescriptorEiiPNS2_7ContextE T
_ZN6google8protobuf8compiler4java39ImmutableMessageOneofFieldLiteGeneratorD0Ev T
_ZN6google8protobuf8compiler4java39ImmutableMessageOneofFieldLiteGeneratorD1Ev T
_ZN6google8protobuf8compiler4java39ImmutableMessageOneofFieldLiteGeneratorD2Ev T
_ZN6google8protobuf8compiler4java39RepeatedImmutableEnumFieldLiteGeneratorC1EPKNS0_15FieldDescriptorEiiPNS2_7ContextE T
_ZN6google8protobuf8compiler4java39RepeatedImmutableEnumFieldLiteGeneratorC2EPKNS0_15FieldDescriptorEiiPNS2_7ContextE T
_ZN6google8protobuf8compiler4java39RepeatedImmutableEnumFieldLiteGeneratorD0Ev T
_ZN6google8protobuf8compiler4java39RepeatedImmutableEnumFieldLiteGeneratorD1Ev T
_ZN6google8protobuf8compiler4java39RepeatedImmutableEnumFieldLiteGeneratorD2Ev T
_ZN6google8protobuf8compiler4java40RepeatedImmutablePrimitiveFieldGeneratorC1EPKNS0_15FieldDescriptorEiiPNS2_7ContextE T
_ZN6google8protobuf8compiler4java40RepeatedImmutablePrimitiveFieldGeneratorC2EPKNS0_15FieldDescriptorEiiPNS2_7ContextE T
_ZN6google8protobuf8compiler4java40RepeatedImmutablePrimitiveFieldGeneratorD0Ev T
_ZN6google8protobuf8compiler4java40RepeatedImmutablePrimitiveFieldGeneratorD1Ev T
_ZN6google8protobuf8compiler4java40RepeatedImmutablePrimitiveFieldGeneratorD2Ev T
_ZN6google8protobuf8compiler4java41ImmutablePrimitiveOneofFieldLiteGeneratorC1EPKNS0_15FieldDescriptorEiiPNS2_7ContextE T
_ZN6google8protobuf8compiler4java41ImmutablePrimitiveOneofFieldLiteGeneratorC2EPKNS0_15FieldDescriptorEiiPNS2_7ContextE T
_ZN6google8protobuf8compiler4java41ImmutablePrimitiveOneofFieldLiteGeneratorD0Ev T
_ZN6google8protobuf8compiler4java41ImmutablePrimitiveOneofFieldLiteGeneratorD1Ev T
_ZN6google8protobuf8compiler4java41ImmutablePrimitiveOneofFieldLiteGeneratorD2Ev T
_ZN6google8protobuf8compiler4java41RepeatedImmutableStringFieldLiteGeneratorC1EPKNS0_15FieldDescriptorEiiPNS2_7ContextE T
_ZN6google8protobuf8compiler4java41RepeatedImmutableStringFieldLiteGeneratorC2EPKNS0_15FieldDescriptorEiiPNS2_7ContextE T
_ZN6google8protobuf8compiler4java41RepeatedImmutableStringFieldLiteGeneratorD0Ev T
_ZN6google8protobuf8compiler4java41RepeatedImmutableStringFieldLiteGeneratorD1Ev T
_ZN6google8protobuf8compiler4java41RepeatedImmutableStringFieldLiteGeneratorD2Ev T
_ZN6google8protobuf8compiler4java42RepeatedImmutableLazyMessageFieldGeneratorC1EPKNS0_15FieldDescriptorEiiPNS2_7ContextE T
_ZN6google8protobuf8compiler4java42RepeatedImmutableLazyMessageFieldGeneratorC2EPKNS0_15FieldDescriptorEiiPNS2_7ContextE T
_ZN6google8protobuf8compiler4java42RepeatedImmutableLazyMessageFieldGeneratorD0Ev T
_ZN6google8protobuf8compiler4java42RepeatedImmutableLazyMessageFieldGeneratorD1Ev T
_ZN6google8protobuf8compiler4java42RepeatedImmutableLazyMessageFieldGeneratorD2Ev T
_ZN6google8protobuf8compiler4java42RepeatedImmutableMessageFieldLiteGeneratorC1EPKNS0_15FieldDescriptorEiiPNS2_7ContextE T
_ZN6google8protobuf8compiler4java42RepeatedImmutableMessageFieldLiteGeneratorC2EPKNS0_15FieldDescriptorEiiPNS2_7ContextE T
_ZN6google8protobuf8compiler4java42RepeatedImmutableMessageFieldLiteGeneratorD0Ev T
_ZN6google8protobuf8compiler4java42RepeatedImmutableMessageFieldLiteGeneratorD1Ev T
_ZN6google8protobuf8compiler4java42RepeatedImmutableMessageFieldLiteGeneratorD2Ev T
_ZN6google8protobuf8compiler4java43ImmutableLazyMessageOneofFieldLiteGeneratorC1EPKNS0_15FieldDescriptorEiiPNS2_7ContextE T
_ZN6google8protobuf8compiler4java43ImmutableLazyMessageOneofFieldLiteGeneratorC2EPKNS0_15FieldDescriptorEiiPNS2_7ContextE T
_ZN6google8protobuf8compiler4java43ImmutableLazyMessageOneofFieldLiteGeneratorD0Ev T
_ZN6google8protobuf8compiler4java43ImmutableLazyMessageOneofFieldLiteGeneratorD1Ev T
_ZN6google8protobuf8compiler4java43ImmutableLazyMessageOneofFieldLiteGeneratorD2Ev T
_ZN6google8protobuf8compiler4java44RepeatedImmutablePrimitiveFieldLiteGeneratorC1EPKNS0_15FieldDescriptorEiiPNS2_7ContextE T
_ZN6google8protobuf8compiler4java44RepeatedImmutablePrimitiveFieldLiteGeneratorC2EPKNS0_15FieldDescriptorEiiPNS2_7ContextE T
_ZN6google8protobuf8compiler4java44RepeatedImmutablePrimitiveFieldLiteGeneratorD0Ev T
_ZN6google8protobuf8compiler4java44RepeatedImmutablePrimitiveFieldLiteGeneratorD1Ev T
_ZN6google8protobuf8compiler4java44RepeatedImmutablePrimitiveFieldLiteGeneratorD2Ev T
_ZN6google8protobuf8compiler4java46RepeatedImmutableLazyMessageFieldLiteGeneratorC1EPKNS0_15FieldDescriptorEiiPNS2_7ContextE T
_ZN6google8protobuf8compiler4java46RepeatedImmutableLazyMessageFieldLiteGeneratorC2EPKNS0_15FieldDescriptorEiiPNS2_7ContextE T
_ZN6google8protobuf8compiler4java46RepeatedImmutableLazyMessageFieldLiteGeneratorD0Ev T
_ZN6google8protobuf8compiler4java46RepeatedImmutableLazyMessageFieldLiteGeneratorD1Ev T
_ZN6google8protobuf8compiler4java46RepeatedImmutableLazyMessageFieldLiteGeneratorD2Ev T
_ZN6google8protobuf8compiler4java7Context28InitializeFieldGeneratorInfoEPKNS0_14FileDescriptorE T
_ZN6google8protobuf8compiler4java7Context37InitializeFieldGeneratorInfoForFieldsERKSt6vectorIPKNS0_15FieldDescriptorESaIS7_EE T
_ZN6google8protobuf8compiler4java7Context38InitializeFieldGeneratorInfoForMessageEPKNS0_10DescriptorE T
_ZN6google8protobuf8compiler4java7ContextC1EPKNS0_14FileDescriptorERKNS2_7OptionsE T
_ZN6google8protobuf8compiler4java7ContextC2EPKNS0_14FileDescriptorERKNS2_7OptionsE T
_ZN6google8protobuf8compiler4java7ContextD1Ev T
_ZN6google8protobuf8compiler4java7ContextD2Ev T
_ZN6google8protobuf8compiler4java7GetTypeEPKNS0_15FieldDescriptorE T
_ZN6google8protobuf8compiler4java8AllAsciiERKNSt7__cxx1112basic_stringIcSt11char_traitsIcESaIcEEE T
_ZN6google8protobuf8compiler4java9ClassNameB5cxx11EPKNS0_10DescriptorE T
_ZN6google8protobuf8compiler4java9ClassNameB5cxx11EPKNS0_14EnumDescriptorE T
_ZN6google8protobuf8compiler4java9ClassNameB5cxx11EPKNS0_14FileDescriptorE T
_ZN6google8protobuf8compiler4java9ClassNameB5cxx11EPKNS0_17ServiceDescriptorE T
_ZN6google8protobuf8compiler4java9FixedSizeENS0_15FieldDescriptor4TypeE T
_ZN6google8protobuf8compiler4java9bit_masksE D 0000000000000100
_ZN6google8protobuf8compiler4ruby11IntToStringB5cxx11Ei T
_ZN6google8protobuf8compiler4ruby12GenerateEnumEPKNS0_14EnumDescriptorEPNS0_2io7PrinterE T
_ZN6google8protobuf8compiler4ruby12GenerateFileEPKNS0_14FileDescriptorEPNS0_2io7PrinterEPNSt7__cxx1112basic_stringIcSt11char_traitsIcESaIcEEE T
_ZN6google8protobuf8compiler4ruby13GenerateFieldEPKNS0_15FieldDescriptorEPNS0_2io7PrinterE T
_ZN6google8protobuf8compiler4ruby13GenerateOneofEPKNS0_15OneofDescriptorEPNS0_2io7PrinterE T
_ZN6google8protobuf8compiler4ruby13LabelForFieldB5cxx11EPKNS0_15FieldDescriptorE T
_ZN6google8protobuf8compiler4ruby14GetRequireNameERKNSt7__cxx1112basic_stringIcSt11char_traitsIcESaIcEEE T
_ZN6google8protobuf8compiler4ruby14RubifyConstantERKNSt7__cxx1112basic_stringIcSt11char_traitsIcESaIcEEE T
_ZN6google8protobuf8compiler4ruby15GenerateMessageEPKNS0_10DescriptorEPNS0_2io7PrinterE T
_ZN6google8protobuf8compiler4ruby15PackageToModuleERKNSt7__cxx1112basic_stringIcSt11char_traitsIcESaIcEEE T
_ZN6google8protobuf8compiler4ruby16UsesTypeFromFileEPKNS0_10DescriptorEPKNS0_14FileDescriptorEPNSt7__cxx1112basic_stringIcSt11char_traitsIcESaIcEEE T
_ZN6google8protobuf8compiler4ruby17EndPackageModulesEiPNS0_2io7PrinterE T
_ZN6google8protobuf8compiler4ruby17GetOutputFilenameERKNSt7__cxx1112basic_stringIcSt11char_traitsIcESaIcEEE T
_ZN6google8protobuf8compiler4ruby19MaybeEmitDependencyEPKNS0_14FileDescriptorES5_PNS0_2io7PrinterEPNSt7__cxx1112basic_stringIcSt11char_traitsIcESaIcEEE T
_ZN6google8protobuf8compiler4ruby22GenerateEnumAssignmentERKNSt7__cxx1112basic_stringIcSt11char_traitsIcESaIcEEEPKNS0_14EnumDescriptorEPNS0_2io7PrinterE T
_ZN6google8protobuf8compiler4ruby22GeneratePackageModulesENSt7__cxx1112basic_stringIcSt11char_traitsIcESaIcEEEPNS0_2io7PrinterE T
_ZN6google8protobuf8compiler4ruby25GenerateMessageAssignmentERKNSt7__cxx1112basic_stringIcSt11char_traitsIcESaIcEEEPKNS0_10DescriptorEPNS0_2io7PrinterE T
_ZN6google8protobuf8compiler4ruby7IsAlphaEc T
_ZN6google8protobuf8compiler4ruby7IsLowerEc T
_ZN6google8protobuf8compiler4ruby7IsUpperEc T
_ZN6google8protobuf8compiler4ruby7ToUpperEc T
_ZN6google8protobuf8compiler4ruby8TypeNameB5cxx11EPKNS0_15FieldDescriptorE T
_ZN6google8protobuf8compiler4ruby9GeneratorD0Ev W
_ZN6google8protobuf8compiler4ruby9GeneratorD1Ev W
_ZN6google8protobuf8compiler4ruby9GeneratorD2Ev W
_ZN6google8protobuf8compiler6csharp12GenerateFileEPKNS0_14FileDescriptorEPNS0_2io7PrinterEPKNS2_7OptionsE T
_ZN6google8protobuf8compiler6csharp12GetClassNameB5cxx11EPKNS0_10DescriptorE T
_ZN6google8protobuf8compiler6csharp12GetClassNameB5cxx11EPKNS0_14EnumDescriptorE T
_ZN6google8protobuf8compiler6csharp12GetFieldNameB5cxx11EPKNS0_15FieldDescriptorE T
_ZN6google8protobuf8compiler6csharp12GetFixedSizeENS0_15FieldDescriptor4TypeE T
_ZN6google8protobuf8compiler6csharp12ToCSharpNameERKNSt7__cxx1112basic_stringIcSt11char_traitsIcESaIcEEEPKNS0_14FileDescriptorE T
_ZN6google8protobuf8compiler6csharp13EnumGenerator8GenerateEPNS0_2io7PrinterE T
_ZN6google8protobuf8compiler6csharp13EnumGeneratorC1EPKNS0_14EnumDescriptorEPKNS2_7OptionsE T
_ZN6google8protobuf8compiler6csharp13EnumGeneratorC2EPKNS0_14EnumDescriptorEPKNS2_7OptionsE T
_ZN6google8protobuf8compiler6csharp13EnumGeneratorD0Ev T
_ZN6google8protobuf8compiler6csharp13EnumGeneratorD1Ev T
_ZN6google8protobuf8compiler6csharp13EnumGeneratorD2Ev T
_ZN6google8protobuf8compiler6csharp13GetCSharpTypeENS0_15FieldDescriptor4TypeE T
_ZN6google8protobuf8compiler6csharp13GetOutputFileEPKNS0_14FileDescriptorENSt7__cxx1112basic_stringIcSt11char_traitsIcESaIcEEEbSB_PSB_ T
_ZN6google8protobuf8compiler6csharp13StripDotProtoERKNSt7__cxx1112basic_stringIcSt11char_traitsIcESaIcEEE T
_ZN6google8protobuf8compiler6csharp14StringToBase64ERKNSt7__cxx1112basic_stringIcSt11char_traitsIcESaIcEEE T
_ZN6google8protobuf8compiler6csharp15GetFileNameBaseB5cxx11EPKNS0_14FileDescriptorE T
_ZN6google8protobuf8compiler6csharp15GetPropertyNameB5cxx11EPKNS0_15FieldDescriptorE T
_ZN6google8protobuf8compiler6csharp15TryRemovePrefixERKNSt7__cxx1112basic_stringIcSt11char_traitsIcESaIcEEESA_ T
_ZN6google8protobuf8compiler6csharp16GetEnumValueNameERKNSt7__cxx1112basic_stringIcSt11char_traitsIcESaIcEEESA_ T
_ZN6google8protobuf8compiler6csharp16GetFileNamespaceB5cxx11EPKNS0_14FileDescriptorE T
_ZN6google8protobuf8compiler6csharp16MessageGenerator10class_nameB5cxx11Ev T
_ZN6google8protobuf8compiler6csharp16MessageGenerator11field_namesB5cxx11Ev T
_ZN6google8protobuf8compiler6csharp16MessageGenerator15GetFieldOrdinalEPKNS0_15FieldDescriptorE T
_ZN6google8protobuf8compiler6csharp16MessageGenerator15full_class_nameB5cxx11Ev T
_ZN6google8protobuf8compiler6csharp16MessageGenerator16fields_by_numberEv T
_ZN6google8protobuf8compiler6csharp16MessageGenerator17AddDeprecatedFlagEPNS0_2io7PrinterE T
_ZN6google8protobuf8compiler6csharp16MessageGenerator19GenerateCloningCodeEPNS0_2io7PrinterE T
_ZN6google8protobuf8compiler6csharp16MessageGenerator20GenerateFreezingCodeEPNS0_2io7PrinterE T
_ZN6google8protobuf8compiler6csharp16MessageGenerator22GenerateMergingMethodsEPNS0_2io7PrinterE T
_ZN6google8protobuf8compiler6csharp16MessageGenerator23HasNestedGeneratedTypesEv T
_ZN6google8protobuf8compiler6csharp16MessageGenerator24GenerateFrameworkMethodsEPNS0_2io7PrinterE T
_ZN6google8protobuf8compiler6csharp16MessageGenerator28CreateFieldGeneratorInternalEPKNS0_15FieldDescriptorE T
_ZN6google8protobuf8compiler6csharp16MessageGenerator35GenerateMessageSerializationMethodsEPNS0_2io7PrinterE T
_ZN6google8protobuf8compiler6csharp16MessageGenerator8GenerateEPNS0_2io7PrinterE T
_ZN6google8protobuf8compiler6csharp16MessageGeneratorC1EPKNS0_10DescriptorEPKNS2_7OptionsE T
_ZN6google8protobuf8compiler6csharp16MessageGeneratorC2EPKNS0_10DescriptorEPKNS2_7OptionsE T
_ZN6google8protobuf8compiler6csharp16MessageGeneratorD0Ev T
_ZN6google8protobuf8compiler6csharp16MessageGeneratorD1Ev T
_ZN6google8protobuf8compiler6csharp16MessageGeneratorD2Ev T
_ZN6google8protobuf8compiler6csharp17AllPrintableAsciiERKNSt7__cxx1112basic_stringIcSt11char_traitsIcESaIcEEE T
_ZN6google8protobuf8compiler6csharp17MapFieldGenerator11WriteEqualsEPNS0_2io7PrinterE T
_ZN6google8protobuf8compiler6csharp17MapFieldGenerator13WriteToStringEPNS0_2io7PrinterE T
_ZN6google8protobuf8compiler6csharp17MapFieldGenerator15GenerateMembersEPNS0_2io7PrinterE T
_ZN6google8protobuf8compiler6csharp17MapFieldGenerator19GenerateCloningCodeEPNS0_2io7PrinterE T
_ZN6google8protobuf8compiler6csharp17MapFieldGenerator19GenerateMergingCodeEPNS0_2io7PrinterE T
_ZN6google8protobuf8compiler6csharp17MapFieldGenerator19GenerateParsingCodeEPNS0_2io7PrinterE T
_ZN6google8protobuf8compiler6csharp17MapFieldGenerator20GenerateFreezingCodeEPNS0_2io7PrinterE T
_ZN6google8protobuf8compiler6csharp17MapFieldGenerator25GenerateSerializationCodeEPNS0_2io7PrinterE T
_ZN6google8protobuf8compiler6csharp17MapFieldGenerator26GenerateSerializedSizeCodeEPNS0_2io7PrinterE T
_ZN6google8protobuf8compiler6csharp17MapFieldGenerator9WriteHashEPNS0_2io7PrinterE T
_ZN6google8protobuf8compiler6csharp17MapFieldGeneratorC1EPKNS0_15FieldDescriptorEiPKNS2_7OptionsE T
_ZN6google8protobuf8compiler6csharp17MapFieldGeneratorC2EPKNS0_15FieldDescriptorEiPKNS2_7OptionsE T
_ZN6google8protobuf8compiler6csharp17MapFieldGeneratorD0Ev T
_ZN6google8protobuf8compiler6csharp17MapFieldGeneratorD1Ev T
_ZN6google8protobuf8compiler6csharp17MapFieldGeneratorD2Ev T
_ZN6google8protobuf8compiler6csharp18EnumFieldGenerator17GenerateCodecCodeEPNS0_2io7PrinterE T
_ZN6google8protobuf8compiler6csharp18EnumFieldGenerator19GenerateParsingCodeEPNS0_2io7PrinterE T
_ZN6google8protobuf8compiler6csharp18EnumFieldGenerator25GenerateSerializationCodeEPNS0_2io7PrinterE T
_ZN6google8protobuf8compiler6csharp18EnumFieldGenerator26GenerateSerializedSizeCodeEPNS0_2io7PrinterE T
_ZN6google8protobuf8compiler6csharp18EnumFieldGeneratorC1EPKNS0_15FieldDescriptorEiPKNS2_7OptionsE T
_ZN6google8protobuf8compiler6csharp18EnumFieldGeneratorC2EPKNS0_15FieldDescriptorEiPKNS2_7OptionsE T
_ZN6google8protobuf8compiler6csharp18EnumFieldGeneratorD0Ev T
_ZN6google8protobuf8compiler6csharp18EnumFieldGeneratorD1Ev T
_ZN6google8protobuf8compiler6csharp18EnumFieldGeneratorD2Ev T
_ZN6google8protobuf8compiler6csharp18FieldGeneratorBase10oneof_nameB5cxx11Ev T
_ZN6google8protobuf8compiler6csharp18FieldGeneratorBase13default_valueB5cxx11EPKNS0_15FieldDescriptorE T
_ZN6google8protobuf8compiler6csharp18FieldGeneratorBase13default_valueB5cxx11Ev T
_ZN6google8protobuf8compiler6csharp18FieldGeneratorBase13property_nameB5cxx11Ev T
_ZN6google8protobuf8compiler6csharp18FieldGeneratorBase16is_nullable_typeEv T
_ZN6google8protobuf8compiler6csharp18FieldGeneratorBase17AddDeprecatedFlagEPNS0_2io7PrinterE T
_ZN6google8protobuf8compiler6csharp18FieldGeneratorBase17GenerateCodecCodeEPNS0_2io7PrinterE T
_ZN6google8protobuf8compiler6csharp18FieldGeneratorBase17has_default_valueEv T
_ZN6google8protobuf8compiler6csharp18FieldGeneratorBase19oneof_property_nameB5cxx11Ev T
_ZN6google8protobuf8compiler6csharp18FieldGeneratorBase20GenerateFreezingCodeEPNS0_2io7PrinterE T
_ZN6google8protobuf8compiler6csharp18FieldGeneratorBase21capitalized_type_nameB5cxx11Ev T
_ZN6google8protobuf8compiler6csharp18FieldGeneratorBase23SetCommonFieldVariablesEPSt3mapINSt7__cxx1112basic_stringIcSt11char_traitsIcESaIcEEESA_St4lessISA_ESaISt4pairIKSA_SA_EEE T
_ZN6google8protobuf8compiler6csharp18FieldGeneratorBase25AddPublicMemberAttributesEPNS0_2io7PrinterE T
_ZN6google8protobuf8compiler6csharp18FieldGeneratorBase28GetBytesDefaultValueInternalB5cxx11Ev T
_ZN6google8protobuf8compiler6csharp18FieldGeneratorBase28SetCommonOneofFieldVariablesEPSt3mapINSt7__cxx1112basic_stringIcSt11char_traitsIcESaIcEEESA_St4lessISA_ESaISt4pairIKSA_SA_EEE T
_ZN6google8protobuf8compiler6csharp18FieldGeneratorBase29GetStringDefaultValueInternalB5cxx11Ev T
_ZN6google8protobuf8compiler6csharp18FieldGeneratorBase4nameB5cxx11Ev T
_ZN6google8protobuf8compiler6csharp18FieldGeneratorBase6numberB5cxx11Ev T
_ZN6google8protobuf8compiler6csharp18FieldGeneratorBase9type_nameB5cxx11EPKNS0_15FieldDescriptorE T
_ZN6google8protobuf8compiler6csharp18FieldGeneratorBase9type_nameB5cxx11Ev T
_ZN6google8protobuf8compiler6csharp18FieldGeneratorBaseC1EPKNS0_15FieldDescriptorEiPKNS2_7OptionsE T
_ZN6google8protobuf8compiler6csharp18FieldGeneratorBaseC2EPKNS0_15FieldDescriptorEiPKNS2_7OptionsE T
_ZN6google8protobuf8compiler6csharp18FieldGeneratorBaseD0Ev T
_ZN6google8protobuf8compiler6csharp18FieldGeneratorBaseD1Ev T
_ZN6google8protobuf8compiler6csharp18FieldGeneratorBaseD2Ev T
_ZN6google8protobuf8compiler6csharp18ShoutyToPascalCaseERKNSt7__cxx1112basic_stringIcSt11char_traitsIcESaIcEEE T
_ZN6google8protobuf8compiler6csharp19CompareFieldNumbersEPKNS0_15FieldDescriptorES5_ T
_ZN6google8protobuf8compiler6csharp19SourceGeneratorBase18class_access_levelB5cxx11Ev T
_ZN6google8protobuf8compiler6csharp19SourceGeneratorBase28WriteGeneratedCodeAttributesEPNS0_2io7PrinterE T
_ZN6google8protobuf8compiler6csharp19SourceGeneratorBase7optionsEv T
_ZN6google8protobuf8compiler6csharp19SourceGeneratorBaseC1EPKNS0_14FileDescriptorEPKNS2_7OptionsE T
_ZN6google8protobuf8compiler6csharp19SourceGeneratorBaseC2EPKNS0_14FileDescriptorEPKNS2_7OptionsE T
_ZN6google8protobuf8compiler6csharp19SourceGeneratorBaseD0Ev T
_ZN6google8protobuf8compiler6csharp19SourceGeneratorBaseD1Ev T
_ZN6google8protobuf8compiler6csharp19SourceGeneratorBaseD2Ev T
_ZN6google8protobuf8compiler6csharp19WriteEnumDocCommentEPNS0_2io7PrinterEPKNS0_14EnumDescriptorE T
_ZN6google8protobuf8compiler6csharp20CreateFieldGeneratorEPKNS0_15FieldDescriptorEiPKNS2_7OptionsE T
_ZN6google8protobuf8compiler6csharp20GetFieldConstantNameB5cxx11EPKNS0_15FieldDescriptorE T
_ZN6google8protobuf8compiler6csharp21MessageFieldGenerator11WriteEqualsEPNS0_2io7PrinterE T
_ZN6google8protobuf8compiler6csharp21MessageFieldGenerator13WriteToStringEPNS0_2io7PrinterE T
_ZN6google8protobuf8compiler6csharp21MessageFieldGenerator15GenerateMembersEPNS0_2io7PrinterE T
_ZN6google8protobuf8compiler6csharp21MessageFieldGenerator17GenerateCodecCodeEPNS0_2io7PrinterE T
_ZN6google8protobuf8compiler6csharp21MessageFieldGenerator19GenerateCloningCodeEPNS0_2io7PrinterE T
_ZN6google8protobuf8compiler6csharp21MessageFieldGenerator19GenerateMergingCodeEPNS0_2io7PrinterE T
_ZN6google8protobuf8compiler6csharp21MessageFieldGenerator19GenerateParsingCodeEPNS0_2io7PrinterE T
_ZN6google8protobuf8compiler6csharp21MessageFieldGenerator20GenerateFreezingCodeEPNS0_2io7PrinterE T
_ZN6google8protobuf8compiler6csharp21MessageFieldGenerator25GenerateSerializationCodeEPNS0_2io7PrinterE T
_ZN6google8protobuf8compiler6csharp21MessageFieldGenerator26GenerateSerializedSizeCodeEPNS0_2io7PrinterE T
_ZN6google8protobuf8compiler6csharp21MessageFieldGenerator9WriteHashEPNS0_2io7PrinterE T
_ZN6google8protobuf8compiler6csharp21MessageFieldGeneratorC1EPKNS0_15FieldDescriptorEiPKNS2_7OptionsE T
_ZN6google8protobuf8compiler6csharp21MessageFieldGeneratorC2EPKNS0_15FieldDescriptorEiPKNS2_7OptionsE T
_ZN6google8protobuf8compiler6csharp21MessageFieldGeneratorD0Ev T
_ZN6google8protobuf8compiler6csharp21MessageFieldGeneratorD1Ev T
_ZN6google8protobuf8compiler6csharp21MessageFieldGeneratorD2Ev T
_ZN6google8protobuf8compiler6csharp21WrapperFieldGenerator11WriteEqualsEPNS0_2io7PrinterE T
_ZN6google8protobuf8compiler6csharp21WrapperFieldGenerator13WriteToStringEPNS0_2io7PrinterE T
_ZN6google8protobuf8compiler6csharp21WrapperFieldGenerator15GenerateMembersEPNS0_2io7PrinterE T
_ZN6google8protobuf8compiler6csharp21WrapperFieldGenerator17GenerateCodecCodeEPNS0_2io7PrinterE T
_ZN6google8protobuf8compiler6csharp21WrapperFieldGenerator19GenerateCloningCodeEPNS0_2io7PrinterE T
_ZN6google8protobuf8compiler6csharp21WrapperFieldGenerator19GenerateMergingCodeEPNS0_2io7PrinterE T
_ZN6google8protobuf8compiler6csharp21WrapperFieldGenerator19GenerateParsingCodeEPNS0_2io7PrinterE T
_ZN6google8protobuf8compiler6csharp21WrapperFieldGenerator25GenerateSerializationCodeEPNS0_2io7PrinterE T
_ZN6google8protobuf8compiler6csharp21WrapperFieldGenerator26GenerateSerializedSizeCodeEPNS0_2io7PrinterE T
_ZN6google8protobuf8compiler6csharp21WrapperFieldGenerator9WriteHashEPNS0_2io7PrinterE T
_ZN6google8protobuf8compiler6csharp21WrapperFieldGeneratorC1EPKNS0_15FieldDescriptorEiPKNS2_7OptionsE T
_ZN6google8protobuf8compiler6csharp21WrapperFieldGeneratorC2EPKNS0_15FieldDescriptorEiPKNS2_7OptionsE T
_ZN6google8protobuf8compiler6csharp21WrapperFieldGeneratorD0Ev T
_ZN6google8protobuf8compiler6csharp21WrapperFieldGeneratorD1Ev T
_ZN6google8protobuf8compiler6csharp21WrapperFieldGeneratorD2Ev T
_ZN6google8protobuf8compiler6csharp21WriteMethodDocCommentEPNS0_2io7PrinterEPKNS0_16MethodDescriptorE T
_ZN6google8protobuf8compiler6csharp22FileDescriptorToBase64B5cxx11EPKNS0_14FileDescriptorE T
_ZN6google8protobuf8compiler6csharp22GetReflectionClassNameB5cxx11EPKNS0_14FileDescriptorE T
_ZN6google8protobuf8compiler6csharp22UnderscoresToCamelCaseERKNSt7__cxx1112basic_stringIcSt11char_traitsIcESaIcEEEbb T
_ZN6google8protobuf8compiler6csharp22WriteMessageDocCommentEPNS0_2io7PrinterEPKNS0_10DescriptorE T
_ZN6google8protobuf8compiler6csharp23EnumOneofFieldGenerator19GenerateMergingCodeEPNS0_2io7PrinterE T
_ZN6google8protobuf8compiler6csharp23EnumOneofFieldGenerator19GenerateParsingCodeEPNS0_2io7PrinterE T
_ZN6google8protobuf8compiler6csharp23EnumOneofFieldGenerator25GenerateSerializationCodeEPNS0_2io7PrinterE T
_ZN6google8protobuf8compiler6csharp23EnumOneofFieldGenerator26GenerateSerializedSizeCodeEPNS0_2io7PrinterE T
_ZN6google8protobuf8compiler6csharp23EnumOneofFieldGeneratorC1EPKNS0_15FieldDescriptorEiPKNS2_7OptionsE T
_ZN6google8protobuf8compiler6csharp23EnumOneofFieldGeneratorC2EPKNS0_15FieldDescriptorEiPKNS2_7OptionsE T
_ZN6google8protobuf8compiler6csharp23EnumOneofFieldGeneratorD0Ev T
_ZN6google8protobuf8compiler6csharp23EnumOneofFieldGeneratorD1Ev T
_ZN6google8protobuf8compiler6csharp23EnumOneofFieldGeneratorD2Ev T
_ZN6google8protobuf8compiler6csharp23PrimitiveFieldGenerator11WriteEqualsEPNS0_2io7PrinterE T
_ZN6google8protobuf8compiler6csharp23PrimitiveFieldGenerator13WriteToStringEPNS0_2io7PrinterE T
_ZN6google8protobuf8compiler6csharp23PrimitiveFieldGenerator15GenerateMembersEPNS0_2io7PrinterE T
_ZN6google8protobuf8compiler6csharp23PrimitiveFieldGenerator17GenerateCodecCodeEPNS0_2io7PrinterE T
_ZN6google8protobuf8compiler6csharp23PrimitiveFieldGenerator19GenerateCloningCodeEPNS0_2io7PrinterE T
_ZN6google8protobuf8compiler6csharp23PrimitiveFieldGenerator19GenerateMergingCodeEPNS0_2io7PrinterE T
_ZN6google8protobuf8compiler6csharp23PrimitiveFieldGenerator19GenerateParsingCodeEPNS0_2io7PrinterE T
_ZN6google8protobuf8compiler6csharp23PrimitiveFieldGenerator25GenerateSerializationCodeEPNS0_2io7PrinterE T
_ZN6google8protobuf8compiler6csharp23PrimitiveFieldGenerator26GenerateSerializedSizeCodeEPNS0_2io7PrinterE T
_ZN6google8protobuf8compiler6csharp23PrimitiveFieldGenerator9WriteHashEPNS0_2io7PrinterE T
_ZN6google8protobuf8compiler6csharp23PrimitiveFieldGeneratorC1EPKNS0_15FieldDescriptorEiPKNS2_7OptionsE T
_ZN6google8protobuf8compiler6csharp23PrimitiveFieldGeneratorC2EPKNS0_15FieldDescriptorEiPKNS2_7OptionsE T
_ZN6google8protobuf8compiler6csharp23PrimitiveFieldGeneratorD0Ev T
_ZN6google8protobuf8compiler6csharp23PrimitiveFieldGeneratorD1Ev T
_ZN6google8protobuf8compiler6csharp23PrimitiveFieldGeneratorD2Ev T
_ZN6google8protobuf8compiler6csharp23UnderscoresToPascalCaseERKNSt7__cxx1112basic_stringIcSt11char_traitsIcESaIcEEE T
_ZN6google8protobuf8compiler6csharp23WriteDocCommentBodyImplEPNS0_2io7PrinterENS0_14SourceLocationE T
_ZN6google8protobuf8compiler6csharp23WritePropertyDocCommentEPNS0_2io7PrinterEPKNS0_15FieldDescriptorE T
_ZN6google8protobuf8compiler6csharp24ReflectionClassGenerator15WriteDescriptorEPNS0_2io7PrinterE T
_ZN6google8protobuf8compiler6csharp24ReflectionClassGenerator17WriteIntroductionEPNS0_2io7PrinterE T
_ZN6google8protobuf8compiler6csharp24ReflectionClassGenerator22WriteGeneratedCodeInfoEPKNS0_10DescriptorEPNS0_2io7PrinterEb T
_ZN6google8protobuf8compiler6csharp24ReflectionClassGenerator8GenerateEPNS0_2io7PrinterE T
_ZN6google8protobuf8compiler6csharp24ReflectionClassGeneratorC1EPKNS0_14FileDescriptorEPKNS2_7OptionsE T
_ZN6google8protobuf8compiler6csharp24ReflectionClassGeneratorC2EPKNS0_14FileDescriptorEPKNS2_7OptionsE T
_ZN6google8protobuf8compiler6csharp24ReflectionClassGeneratorD0Ev T
_ZN6google8protobuf8compiler6csharp24ReflectionClassGeneratorD1Ev T
_ZN6google8protobuf8compiler6csharp24ReflectionClassGeneratorD2Ev T
_ZN6google8protobuf8compiler6csharp24WriteEnumValueDocCommentEPNS0_2io7PrinterEPKNS0_19EnumValueDescriptorE T
_ZN6google8protobuf8compiler6csharp26MessageOneofFieldGenerator13WriteToStringEPNS0_2io7PrinterE T
_ZN6google8protobuf8compiler6csharp26MessageOneofFieldGenerator15GenerateMembersEPNS0_2io7PrinterE T
_ZN6google8protobuf8compiler6csharp26MessageOneofFieldGenerator19GenerateCloningCodeEPNS0_2io7PrinterE T
_ZN6google8protobuf8compiler6csharp26MessageOneofFieldGenerator19GenerateMergingCodeEPNS0_2io7PrinterE T
_ZN6google8protobuf8compiler6csharp26MessageOneofFieldGenerator19GenerateParsingCodeEPNS0_2io7PrinterE T
_ZN6google8protobuf8compiler6csharp26MessageOneofFieldGeneratorC1EPKNS0_15FieldDescriptorEiPKNS2_7OptionsE T
_ZN6google8protobuf8compiler6csharp26MessageOneofFieldGeneratorC2EPKNS0_15FieldDescriptorEiPKNS2_7OptionsE T
_ZN6google8protobuf8compiler6csharp26MessageOneofFieldGeneratorD0Ev T
_ZN6google8protobuf8compiler6csharp26MessageOneofFieldGeneratorD1Ev T
_ZN6google8protobuf8compiler6csharp26MessageOneofFieldGeneratorD2Ev T
_ZN6google8protobuf8compiler6csharp26RepeatedEnumFieldGenerator11WriteEqualsEPNS0_2io7PrinterE T
_ZN6google8protobuf8compiler6csharp26RepeatedEnumFieldGenerator13WriteToStringEPNS0_2io7PrinterE T
_ZN6google8protobuf8compiler6csharp26RepeatedEnumFieldGenerator15GenerateMembersEPNS0_2io7PrinterE T
_ZN6google8protobuf8compiler6csharp26RepeatedEnumFieldGenerator19GenerateCloningCodeEPNS0_2io7PrinterE T
_ZN6google8protobuf8compiler6csharp26RepeatedEnumFieldGenerator19GenerateMergingCodeEPNS0_2io7PrinterE T
_ZN6google8protobuf8compiler6csharp26RepeatedEnumFieldGenerator19GenerateParsingCodeEPNS0_2io7PrinterE T
_ZN6google8protobuf8compiler6csharp26RepeatedEnumFieldGenerator20GenerateFreezingCodeEPNS0_2io7PrinterE T
_ZN6google8protobuf8compiler6csharp26RepeatedEnumFieldGenerator25GenerateSerializationCodeEPNS0_2io7PrinterE T
_ZN6google8protobuf8compiler6csharp26RepeatedEnumFieldGenerator26GenerateSerializedSizeCodeEPNS0_2io7PrinterE T
_ZN6google8protobuf8compiler6csharp26RepeatedEnumFieldGenerator9WriteHashEPNS0_2io7PrinterE T
_ZN6google8protobuf8compiler6csharp26RepeatedEnumFieldGeneratorC1EPKNS0_15FieldDescriptorEiPKNS2_7OptionsE T
_ZN6google8protobuf8compiler6csharp26RepeatedEnumFieldGeneratorC2EPKNS0_15FieldDescriptorEiPKNS2_7OptionsE T
_ZN6google8protobuf8compiler6csharp26RepeatedEnumFieldGeneratorD0Ev T
_ZN6google8protobuf8compiler6csharp26RepeatedEnumFieldGeneratorD1Ev T
_ZN6google8protobuf8compiler6csharp26RepeatedEnumFieldGeneratorD2Ev T
_ZN6google8protobuf8compiler6csharp26WrapperOneofFieldGenerator15GenerateMembersEPNS0_2io7PrinterE T
_ZN6google8protobuf8compiler6csharp26WrapperOneofFieldGenerator19GenerateMergingCodeEPNS0_2io7PrinterE T
_ZN6google8protobuf8compiler6csharp26WrapperOneofFieldGenerator19GenerateParsingCodeEPNS0_2io7PrinterE T
_ZN6google8protobuf8compiler6csharp26WrapperOneofFieldGenerator25GenerateSerializationCodeEPNS0_2io7PrinterE T
_ZN6google8protobuf8compiler6csharp26WrapperOneofFieldGenerator26GenerateSerializedSizeCodeEPNS0_2io7PrinterE T
_ZN6google8protobuf8compiler6csharp26WrapperOneofFieldGeneratorC1EPKNS0_15FieldDescriptorEiPKNS2_7OptionsE T
_ZN6google8protobuf8compiler6csharp26WrapperOneofFieldGeneratorC2EPKNS0_15FieldDescriptorEiPKNS2_7OptionsE T
_ZN6google8protobuf8compiler6csharp26WrapperOneofFieldGeneratorD0Ev T
_ZN6google8protobuf8compiler6csharp26WrapperOneofFieldGeneratorD1Ev T
_ZN6google8protobuf8compiler6csharp26WrapperOneofFieldGeneratorD2Ev T
_ZN6google8protobuf8compiler6csharp28PrimitiveOneofFieldGenerator13WriteToStringEPNS0_2io7PrinterE T
_ZN6google8protobuf8compiler6csharp28PrimitiveOneofFieldGenerator15GenerateMembersEPNS0_2io7PrinterE T
_ZN6google8protobuf8compiler6csharp28PrimitiveOneofFieldGenerator19GenerateCloningCodeEPNS0_2io7PrinterE T
_ZN6google8protobuf8compiler6csharp28PrimitiveOneofFieldGenerator19GenerateMergingCodeEPNS0_2io7PrinterE T
_ZN6google8protobuf8compiler6csharp28PrimitiveOneofFieldGenerator19GenerateParsingCodeEPNS0_2io7PrinterE T
_ZN6google8protobuf8compiler6csharp28PrimitiveOneofFieldGeneratorC1EPKNS0_15FieldDescriptorEiPKNS2_7OptionsE T
_ZN6google8protobuf8compiler6csharp28PrimitiveOneofFieldGeneratorC2EPKNS0_15FieldDescriptorEiPKNS2_7OptionsE T
_ZN6google8protobuf8compiler6csharp28PrimitiveOneofFieldGeneratorD0Ev T
_ZN6google8protobuf8compiler6csharp28PrimitiveOneofFieldGeneratorD1Ev T
_ZN6google8protobuf8compiler6csharp28PrimitiveOneofFieldGeneratorD2Ev T
_ZN6google8protobuf8compiler6csharp29RepeatedMessageFieldGenerator11WriteEqualsEPNS0_2io7PrinterE T
_ZN6google8protobuf8compiler6csharp29RepeatedMessageFieldGenerator13WriteToStringEPNS0_2io7PrinterE T
_ZN6google8protobuf8compiler6csharp29RepeatedMessageFieldGenerator15GenerateMembersEPNS0_2io7PrinterE T
_ZN6google8protobuf8compiler6csharp29RepeatedMessageFieldGenerator19GenerateCloningCodeEPNS0_2io7PrinterE T
_ZN6google8protobuf8compiler6csharp29RepeatedMessageFieldGenerator19GenerateMergingCodeEPNS0_2io7PrinterE T
_ZN6google8protobuf8compiler6csharp29RepeatedMessageFieldGenerator19GenerateParsingCodeEPNS0_2io7PrinterE T
_ZN6google8protobuf8compiler6csharp29RepeatedMessageFieldGenerator20GenerateFreezingCodeEPNS0_2io7PrinterE T
_ZN6google8protobuf8compiler6csharp29RepeatedMessageFieldGenerator25GenerateSerializationCodeEPNS0_2io7PrinterE T
_ZN6google8protobuf8compiler6csharp29RepeatedMessageFieldGenerator26GenerateSerializedSizeCodeEPNS0_2io7PrinterE T
_ZN6google8protobuf8compiler6csharp29RepeatedMessageFieldGenerator9WriteHashEPNS0_2io7PrinterE T
_ZN6google8protobuf8compiler6csharp29RepeatedMessageFieldGeneratorC1EPKNS0_15FieldDescriptorEiPKNS2_7OptionsE T
_ZN6google8protobuf8compiler6csharp29RepeatedMessageFieldGeneratorC2EPKNS0_15FieldDescriptorEiPKNS2_7OptionsE T
_ZN6google8protobuf8compiler6csharp29RepeatedMessageFieldGeneratorD0Ev T
_ZN6google8protobuf8compiler6csharp29RepeatedMessageFieldGeneratorD1Ev T
_ZN6google8protobuf8compiler6csharp29RepeatedMessageFieldGeneratorD2Ev T
_ZN6google8protobuf8compiler6csharp31RepeatedPrimitiveFieldGenerator11WriteEqualsEPNS0_2io7PrinterE T
_ZN6google8protobuf8compiler6csharp31RepeatedPrimitiveFieldGenerator13WriteToStringEPNS0_2io7PrinterE T
_ZN6google8protobuf8compiler6csharp31RepeatedPrimitiveFieldGenerator15GenerateMembersEPNS0_2io7PrinterE T
_ZN6google8protobuf8compiler6csharp31RepeatedPrimitiveFieldGenerator19GenerateCloningCodeEPNS0_2io7PrinterE T
_ZN6google8protobuf8compiler6csharp31RepeatedPrimitiveFieldGenerator19GenerateMergingCodeEPNS0_2io7PrinterE T
_ZN6google8protobuf8compiler6csharp31RepeatedPrimitiveFieldGenerator19GenerateParsingCodeEPNS0_2io7PrinterE T
_ZN6google8protobuf8compiler6csharp31RepeatedPrimitiveFieldGenerator20GenerateFreezingCodeEPNS0_2io7PrinterE T
_ZN6google8protobuf8compiler6csharp31RepeatedPrimitiveFieldGenerator25GenerateSerializationCodeEPNS0_2io7PrinterE T
_ZN6google8protobuf8compiler6csharp31RepeatedPrimitiveFieldGenerator26GenerateSerializedSizeCodeEPNS0_2io7PrinterE T
_ZN6google8protobuf8compiler6csharp31RepeatedPrimitiveFieldGenerator9WriteHashEPNS0_2io7PrinterE T
_ZN6google8protobuf8compiler6csharp31RepeatedPrimitiveFieldGeneratorC1EPKNS0_15FieldDescriptorEiPKNS2_7OptionsE T
_ZN6google8protobuf8compiler6csharp31RepeatedPrimitiveFieldGeneratorC2EPKNS0_15FieldDescriptorEiPKNS2_7OptionsE T
_ZN6google8protobuf8compiler6csharp31RepeatedPrimitiveFieldGeneratorD0Ev T
_ZN6google8protobuf8compiler6csharp31RepeatedPrimitiveFieldGeneratorD1Ev T
_ZN6google8protobuf8compiler6csharp31RepeatedPrimitiveFieldGeneratorD2Ev T
_ZN6google8protobuf8compiler6csharp33GetReflectionClassUnqualifiedNameB5cxx11EPKNS0_14FileDescriptorE T
_ZN6google8protobuf8compiler6csharp9GeneratorD0Ev W
_ZN6google8protobuf8compiler6csharp9GeneratorD1Ev W
_ZN6google8protobuf8compiler6csharp9GeneratorD2Ev W
_ZN6google8protobuf8compiler6python9GeneratorC1Ev T
_ZN6google8protobuf8compiler6python9GeneratorC2Ev T
_ZN6google8protobuf8compiler6python9GeneratorD0Ev T
_ZN6google8protobuf8compiler6python9GeneratorD1Ev T
_ZN6google8protobuf8compiler6python9GeneratorD2Ev T
_ZN6google8protobuf8compiler7Version10SharedCtorEv T
_ZN6google8protobuf8compiler7Version10SharedDtorEv T
_ZN6google8protobuf8compiler7Version10descriptorEv T
_ZN6google8protobuf8compiler7Version12InternalSwapEPS2_ T
_ZN6google8protobuf8compiler7Version16default_instanceEv T
_ZN6google8protobuf8compiler7Version17kMajorFieldNumberE R
_ZN6google8protobuf8compiler7Version17kMinorFieldNumberE R
_ZN6google8protobuf8compiler7Version17kPatchFieldNumberE R
_ZN6google8protobuf8compiler7Version18kSuffixFieldNumberE R
_ZN6google8protobuf8compiler7Version21InitAsDefaultInstanceEv T
_ZN6google8protobuf8compiler7Version27MergePartialFromCodedStreamEPNS0_2io16CodedInputStreamE T
_ZN6google8protobuf8compiler7Version4SwapEPS2_ T
_ZN6google8protobuf8compiler7Version5ClearEv T
_ZN6google8protobuf8compiler7Version8CopyFromERKNS0_7MessageE T
_ZN6google8protobuf8compiler7Version8CopyFromERKS2_ T
_ZN6google8protobuf8compiler7Version9MergeFromERKNS0_7MessageE T
_ZN6google8protobuf8compiler7Version9MergeFromERKS2_ T
_ZN6google8protobuf8compiler7VersionC1ERKS2_ T
_ZN6google8protobuf8compiler7VersionC1Ev T
_ZN6google8protobuf8compiler7VersionC2ERKS2_ T
_ZN6google8protobuf8compiler7VersionC2Ev T
_ZN6google8protobuf8compiler7VersionD0Ev T
_ZN6google8protobuf8compiler7VersionD1Ev T
_ZN6google8protobuf8compiler7VersionD2Ev T
_ZN6google8protobuf8compiler8javanano10StripProtoERKNSt7__cxx1112basic_stringIcSt11char_traitsIcESaIcEEE T
_ZN6google8protobuf8compiler8javanano10ToJavaNameERKNS2_6ParamsERKNSt7__cxx1112basic_stringIcSt11char_traitsIcESaIcEEEbPKNS0_10DescriptorEPKNS0_14FileDescriptorE T
_ZN6google8protobuf8compiler8javanano11GetJavaTypeENS0_15FieldDescriptor4TypeE T
_ZN6google8protobuf8compiler8javanano11HasMapFieldEPKNS0_10DescriptorE T
_ZN6google8protobuf8compiler8javanano12DefaultValueB5cxx11ERKNS2_6ParamsEPKNS0_15FieldDescriptorE T
_ZN6google8protobuf8compiler8javanano12SetVariablesEPKNS0_15FieldDescriptorENS2_6ParamsEPSt3mapINSt7__cxx1112basic_stringIcSt11char_traitsIcESaIcEEESD_St4lessISD_ESaISt4pairIKSD_SD_EEE T
_ZN6google8protobuf8compiler8javanano13EnumGenerator8GenerateEPNS0_2io7PrinterE T
_ZN6google8protobuf8compiler8javanano13EnumGeneratorC1EPKNS0_14EnumDescriptorERKNS2_6ParamsE T
_ZN6google8protobuf8compiler8javanano13EnumGeneratorC2EPKNS0_14EnumDescriptorERKNS2_6ParamsE T
_ZN6google8protobuf8compiler8javanano13EnumGeneratorD1Ev T
_ZN6google8protobuf8compiler8javanano13EnumGeneratorD2Ev T
_ZN6google8protobuf8compiler8javanano13FileClassNameB5cxx11ERKNS2_6ParamsEPKNS0_14FileDescriptorE T
_ZN6google8protobuf8compiler8javanano13FileGenerator16GenerateSiblingsERKNSt7__cxx1112basic_stringIcSt11char_traitsIcESaIcEEEPNS1_16GeneratorContextEPSt6vectorIS9_SaIS9_EE T
_ZN6google8protobuf8compiler8javanano13FileGenerator8GenerateEPNS0_2io7PrinterE T
_ZN6google8protobuf8compiler8javanano13FileGenerator8ValidateEPNSt7__cxx1112basic_stringIcSt11char_traitsIcESaIcEEE T
_ZN6google8protobuf8compiler8javanano13FileGeneratorC1EPKNS0_14FileDescriptorERKNS2_6ParamsE T
_ZN6google8protobuf8compiler8javanano13FileGeneratorC2EPKNS0_14FileDescriptorERKNS2_6ParamsE T
_ZN6google8protobuf8compiler8javanano13FileGeneratorD1Ev T
_ZN6google8protobuf8compiler8javanano13FileGeneratorD2Ev T
_ZN6google8protobuf8compiler8javanano14EmptyArrayNameB5cxx11ERKNS2_6ParamsEPKNS0_15FieldDescriptorE T
_ZN6google8protobuf8compiler8javanano14FieldGeneratorD0Ev T
_ZN6google8protobuf8compiler8javanano14FieldGeneratorD1Ev T
_ZN6google8protobuf8compiler8javanano14FieldGeneratorD2Ev T
_ZN6google8protobuf8compiler8javanano14GenerateGetBitB5cxx11Ei T
_ZN6google8protobuf8compiler8javanano14GenerateSetBitB5cxx11Ei T
_ZN6google8protobuf8compiler8javanano14RenameKeywordsC1Ev W
_ZN6google8protobuf8compiler8javanano14RenameKeywordsC2Ev W
_ZN6google8protobuf8compiler8javanano14RenameKeywordsD1Ev W
_ZN6google8protobuf8compiler8javanano14RenameKeywordsD2Ev W
_ZN6google8protobuf8compiler8javanano14kThinSeparatorE R
_ZN6google8protobuf8compiler8javanano15FileJavaPackageB5cxx11ERKNS2_6ParamsEPKNS0_14FileDescriptorE T
_ZN6google8protobuf8compiler8javanano15GetBitFieldNameB5cxx11Ei T
_ZN6google8protobuf8compiler8javanano15kThickSeparatorE R
_ZN6google8protobuf8compiler8javanano16GenerateClearBitB5cxx11Ei T
_ZN6google8protobuf8compiler8javanano16MessageGenerator13GenerateClearEPNS0_2io7PrinterE T
_ZN6google8protobuf8compiler8javanano16MessageGenerator13GenerateCloneEPNS0_2io7PrinterE T
_ZN6google8protobuf8compiler8javanano16MessageGenerator14GenerateEqualsEPNS0_2io7PrinterE T
_ZN6google8protobuf8compiler8javanano16MessageGenerator16GenerateHashCodeEPNS0_2io7PrinterE T
_ZN6google8protobuf8compiler8javanano16MessageGenerator23GenerateStaticVariablesEPNS0_2io7PrinterE T
_ZN6google8protobuf8compiler8javanano16MessageGenerator24GenerateMergeFromMethodsEPNS0_2io7PrinterE T
_ZN6google8protobuf8compiler8javanano16MessageGenerator24GenerateParseFromMethodsEPNS0_2io7PrinterE T
_ZN6google8protobuf8compiler8javanano16MessageGenerator25GenerateFieldInitializersEPNS0_2io7PrinterE T
_ZN6google8protobuf8compiler8javanano16MessageGenerator25GenerateSerializeOneFieldEPNS0_2io7PrinterEPKNS0_15FieldDescriptorE T
_ZN6google8protobuf8compiler8javanano16MessageGenerator34GenerateStaticVariableInitializersEPNS0_2io7PrinterE T
_ZN6google8protobuf8compiler8javanano16MessageGenerator35GenerateMessageSerializationMethodsEPNS0_2io7PrinterE T
_ZN6google8protobuf8compiler8javanano16MessageGenerator8GenerateEPNS0_2io7PrinterE T
_ZN6google8protobuf8compiler8javanano16MessageGeneratorC1EPKNS0_10DescriptorERKNS2_6ParamsE T
_ZN6google8protobuf8compiler8javanano16MessageGeneratorC2EPKNS0_10DescriptorERKNS2_6ParamsE T
_ZN6google8protobuf8compiler8javanano16MessageGeneratorD1Ev T
_ZN6google8protobuf8compiler8javanano16MessageGeneratorD2Ev T
_ZN6google8protobuf8compiler8javanano17FieldConstantNameB5cxx11EPKNS0_15FieldDescriptorE T
_ZN6google8protobuf8compiler8javanano17FieldGeneratorMap13MakeGeneratorEPKNS0_15FieldDescriptorERKNS2_6ParamsEPi T
_ZN6google8protobuf8compiler8javanano17FieldGeneratorMapC1EPKNS0_10DescriptorERKNS2_6ParamsE T
_ZN6google8protobuf8compiler8javanano17FieldGeneratorMapC2EPKNS0_10DescriptorERKNS2_6ParamsE T
_ZN6google8protobuf8compiler8javanano17FieldGeneratorMapD1Ev T
_ZN6google8protobuf8compiler8javanano17FieldGeneratorMapD2Ev T
_ZN6google8protobuf8compiler8javanano17JavaNanoGeneratorC1Ev T
_ZN6google8protobuf8compiler8javanano17JavaNanoGeneratorC2Ev T
_ZN6google8protobuf8compiler8javanano17JavaNanoGeneratorD0Ev T
_ZN6google8protobuf8compiler8javanano17JavaNanoGeneratorD1Ev T
_ZN6google8protobuf8compiler8javanano17JavaNanoGeneratorD2Ev T
_ZN6google8protobuf8compiler8javanano17MapFieldGeneratorC1EPKNS0_15FieldDescriptorERKNS2_6ParamsE T
_ZN6google8protobuf8compiler8javanano17MapFieldGeneratorC2EPKNS0_15FieldDescriptorERKNS2_6ParamsE T
_ZN6google8protobuf8compiler8javanano17MapFieldGeneratorD0Ev T
_ZN6google8protobuf8compiler8javanano17MapFieldGeneratorD1Ev T
_ZN6google8protobuf8compiler8javanano17MapFieldGeneratorD2Ev T
_ZN6google8protobuf8compiler8javanano17PrimitiveTypeNameB5cxx11ENS2_8JavaTypeE T
_ZN6google8protobuf8compiler8javanano17PrintFieldCommentEPNS0_2io7PrinterEPKNS0_15FieldDescriptorE T
_ZN6google8protobuf8compiler8javanano18EnumFieldGeneratorC1EPKNS0_15FieldDescriptorERKNS2_6ParamsE T
_ZN6google8protobuf8compiler8javanano18EnumFieldGeneratorC2EPKNS0_15FieldDescriptorERKNS2_6ParamsE T
_ZN6google8protobuf8compiler8javanano18EnumFieldGeneratorD0Ev T
_ZN6google8protobuf8compiler8javanano18EnumFieldGeneratorD1Ev T
_ZN6google8protobuf8compiler8javanano18EnumFieldGeneratorD2Ev T
_ZN6google8protobuf8compiler8javanano18ExtensionGeneratorC1EPKNS0_15FieldDescriptorERKNS2_6ParamsE T
_ZN6google8protobuf8compiler8javanano18ExtensionGeneratorC2EPKNS0_15FieldDescriptorERKNS2_6ParamsE T
_ZN6google8protobuf8compiler8javanano18ExtensionGeneratorD1Ev T
_ZN6google8protobuf8compiler8javanano18ExtensionGeneratorD2Ev T
_ZN6google8protobuf8compiler8javanano18IsOuterClassNeededERKNS2_6ParamsEPKNS0_14FileDescriptorE T
_ZN6google8protobuf8compiler8javanano18RenameJavaKeywordsERKNSt7__cxx1112basic_stringIcSt11char_traitsIcESaIcEEE T
_ZN6google8protobuf8compiler8javanano20GenerateDifferentBitB5cxx11Ei T
_ZN6google8protobuf8compiler8javanano21GetBitFieldNameForBitB5cxx11Ei T
_ZN6google8protobuf8compiler8javanano21MessageFieldGeneratorC1EPKNS0_15FieldDescriptorERKNS2_6ParamsE T
_ZN6google8protobuf8compiler8javanano21MessageFieldGeneratorC2EPKNS0_15FieldDescriptorERKNS2_6ParamsE T
_ZN6google8protobuf8compiler8javanano21MessageFieldGeneratorD0Ev T
_ZN6google8protobuf8compiler8javanano21MessageFieldGeneratorD1Ev T
_ZN6google8protobuf8compiler8javanano21MessageFieldGeneratorD2Ev T
_ZN6google8protobuf8compiler8javanano22BoxedPrimitiveTypeNameB5cxx11ENS2_8JavaTypeE T
_ZN6google8protobuf8compiler8javanano22UnderscoresToCamelCaseB5cxx11EPKNS0_15FieldDescriptorE T
_ZN6google8protobuf8compiler8javanano22UnderscoresToCamelCaseB5cxx11EPKNS0_15OneofDescriptorE T
_ZN6google8protobuf8compiler8javanano22UnderscoresToCamelCaseB5cxx11EPKNS0_16MethodDescriptorE T
_ZN6google8protobuf8compiler8javanano23PrimitiveFieldGeneratorC1EPKNS0_15FieldDescriptorERKNS2_6ParamsE T
_ZN6google8protobuf8compiler8javanano23PrimitiveFieldGeneratorC2EPKNS0_15FieldDescriptorERKNS2_6ParamsE T
_ZN6google8protobuf8compiler8javanano23PrimitiveFieldGeneratorD0Ev T
_ZN6google8protobuf8compiler8javanano23PrimitiveFieldGeneratorD1Ev T
_ZN6google8protobuf8compiler8javanano23PrimitiveFieldGeneratorD2Ev T
_ZN6google8protobuf8compiler8javanano23SetCommonOneofVariablesEPKNS0_15FieldDescriptorEPSt3mapINSt7__cxx1112basic_stringIcSt11char_traitsIcESaIcEEESC_St4lessISC_ESaISt4pairIKSC_SC_EEE T
_ZN6google8protobuf8compiler8javanano23UpdateParamsRecursivelyERNS2_6ParamsEPKNS0_14FileDescriptorE T
_ZN6google8protobuf8compiler8javanano24FieldDefaultConstantNameB5cxx11EPKNS0_15FieldDescriptorE T
_ZN6google8protobuf8compiler8javanano24GenerateOneofFieldEqualsEPKNS0_15FieldDescriptorERKSt3mapINSt7__cxx1112basic_stringIcSt11char_traitsIcESaIcEEESC_St4lessISC_ESaISt4pairIKSC_SC_EEEPNS0_2io7PrinterE T
_ZN6google8protobuf8compiler8javanano24SetBitOperationVariablesENSt7__cxx1112basic_stringIcSt11char_traitsIcESaIcEEEiPSt3mapIS8_S8_St4lessIS8_ESaISt4pairIKS8_S8_EEE T
_ZN6google8protobuf8compiler8javanano26AccessorEnumFieldGeneratorC1EPKNS0_15FieldDescriptorERKNS2_6ParamsEi T
_ZN6google8protobuf8compiler8javanano26AccessorEnumFieldGeneratorC2EPKNS0_15FieldDescriptorERKNS2_6ParamsEi T
_ZN6google8protobuf8compiler8javanano26AccessorEnumFieldGeneratorD0Ev T
_ZN6google8protobuf8compiler8javanano26AccessorEnumFieldGeneratorD1Ev T
_ZN6google8protobuf8compiler8javanano26AccessorEnumFieldGeneratorD2Ev T
_ZN6google8protobuf8compiler8javanano26GenerateOneofFieldHashCodeEPKNS0_15FieldDescriptorERKSt3mapINSt7__cxx1112basic_stringIcSt11char_traitsIcESaIcEEESC_St4lessISC_ESaISt4pairIKSC_SC_EEEPNS0_2io7PrinterE T
_ZN6google8protobuf8compiler8javanano26MessageOneofFieldGeneratorC1EPKNS0_15FieldDescriptorERKNS2_6ParamsE T
_ZN6google8protobuf8compiler8javanano26MessageOneofFieldGeneratorC2EPKNS0_15FieldDescriptorERKNS2_6ParamsE T
_ZN6google8protobuf8compiler8javanano26MessageOneofFieldGeneratorD0Ev T
_ZN6google8protobuf8compiler8javanano26MessageOneofFieldGeneratorD1Ev T
_ZN6google8protobuf8compiler8javanano26MessageOneofFieldGeneratorD2Ev T
_ZN6google8protobuf8compiler8javanano26RepeatedEnumFieldGeneratorC1EPKNS0_15FieldDescriptorERKNS2_6ParamsE T
_ZN6google8protobuf8compiler8javanano26RepeatedEnumFieldGeneratorC2EPKNS0_15FieldDescriptorERKNS2_6ParamsE T
_ZN6google8protobuf8compiler8javanano26RepeatedEnumFieldGeneratorD0Ev T
_ZN6google8protobuf8compiler8javanano26RepeatedEnumFieldGeneratorD1Ev T
_ZN6google8protobuf8compiler8javanano26RepeatedEnumFieldGeneratorD2Ev T
_ZN6google8protobuf8compiler8javanano28PrimitiveOneofFieldGeneratorC1EPKNS0_15FieldDescriptorERKNS2_6ParamsE T
_ZN6google8protobuf8compiler8javanano28PrimitiveOneofFieldGeneratorC2EPKNS0_15FieldDescriptorERKNS2_6ParamsE T
_ZN6google8protobuf8compiler8javanano28PrimitiveOneofFieldGeneratorD0Ev T
_ZN6google8protobuf8compiler8javanano28PrimitiveOneofFieldGeneratorD1Ev T
_ZN6google8protobuf8compiler8javanano28PrimitiveOneofFieldGeneratorD2Ev T
_ZN6google8protobuf8compiler8javanano29RepeatedMessageFieldGeneratorC1EPKNS0_15FieldDescriptorERKNS2_6ParamsE T
_ZN6google8protobuf8compiler8javanano29RepeatedMessageFieldGeneratorC2EPKNS0_15FieldDescriptorERKNS2_6ParamsE T
_ZN6google8protobuf8compiler8javanano29RepeatedMessageFieldGeneratorD0Ev T
_ZN6google8protobuf8compiler8javanano29RepeatedMessageFieldGeneratorD1Ev T
_ZN6google8protobuf8compiler8javanano29RepeatedMessageFieldGeneratorD2Ev T
_ZN6google8protobuf8compiler8javanano31AccessorPrimitiveFieldGeneratorC1EPKNS0_15FieldDescriptorERKNS2_6ParamsEi T
_ZN6google8protobuf8compiler8javanano31AccessorPrimitiveFieldGeneratorC2EPKNS0_15FieldDescriptorERKNS2_6ParamsEi T
_ZN6google8protobuf8compiler8javanano31AccessorPrimitiveFieldGeneratorD0Ev T
_ZN6google8protobuf8compiler8javanano31AccessorPrimitiveFieldGeneratorD1Ev T
_ZN6google8protobuf8compiler8javanano31AccessorPrimitiveFieldGeneratorD2Ev T
_ZN6google8protobuf8compiler8javanano31RepeatedPrimitiveFieldGeneratorC1EPKNS0_15FieldDescriptorERKNS2_6ParamsE T
_ZN6google8protobuf8compiler8javanano31RepeatedPrimitiveFieldGeneratorC2EPKNS0_15FieldDescriptorERKNS2_6ParamsE T
_ZN6google8protobuf8compiler8javanano31RepeatedPrimitiveFieldGeneratorD0Ev T
_ZN6google8protobuf8compiler8javanano31RepeatedPrimitiveFieldGeneratorD1Ev T
_ZN6google8protobuf8compiler8javanano31RepeatedPrimitiveFieldGeneratorD2Ev T
_ZN6google8protobuf8compiler8javanano33UnderscoresToCapitalizedCamelCaseB5cxx11EPKNS0_15FieldDescriptorE T
_ZN6google8protobuf8compiler8javanano33UnderscoresToCapitalizedCamelCaseB5cxx11EPKNS0_15OneofDescriptorE T
_ZN6google8protobuf8compiler8javanano6ParamsD1Ev W
_ZN6google8protobuf8compiler8javanano6ParamsD2Ev W
_ZN6google8protobuf8compiler8javanano9ClassNameB5cxx11ERKNS2_6ParamsEPKNS0_14EnumDescriptorE T
_ZN6google8protobuf8compiler8javanano9ClassNameB5cxx11ERKNS2_6ParamsEPKNS0_14FileDescriptorE T
_ZN6google8protobuf8compiler9ZipWriter14WriteDirectoryEv T
_ZN6google8protobuf8compiler9ZipWriter5WriteERKNSt7__cxx1112basic_stringIcSt11char_traitsIcESaIcEEESA_ T
_ZN6google8protobuf8compiler9ZipWriterC1EPNS0_2io20ZeroCopyOutputStreamE T
_ZN6google8protobuf8compiler9ZipWriterC2EPNS0_2io20ZeroCopyOutputStreamE T
_ZN6google8protobuf8compiler9ZipWriterD1Ev T
_ZN6google8protobuf8compiler9ZipWriterD2Ev T
_ZN6google8protobuf8hash_setINSt7__cxx1112basic_stringIcSt11char_traitsIcESaIcEEENS0_4hashIS7_EESt8equal_toIS7_EED1Ev W
_ZN6google8protobuf8hash_setINSt7__cxx1112basic_stringIcSt11char_traitsIcESaIcEEENS0_4hashIS7_EESt8equal_toIS7_EED2Ev W
_ZN6google8protobuf8internal12scoped_arrayINS1_10scoped_ptrINS0_8compiler10objectivec14FieldGeneratorEEEED1Ev W
_ZN6google8protobuf8internal12scoped_arrayINS1_10scoped_ptrINS0_8compiler10objectivec14FieldGeneratorEEEED2Ev W
_ZN6google8protobuf8internal16FunctionClosure1IPKNS0_15FieldDescriptorEE3RunEv W
_ZN6google8protobuf8internal16FunctionClosure1IPKNS0_15FieldDescriptorEED0Ev W
_ZN6google8protobuf8internal16FunctionClosure1IPKNS0_15FieldDescriptorEED1Ev W
_ZN6google8protobuf8internal16FunctionClosure1IPKNS0_15FieldDescriptorEED2Ev W
_ZN6google8protobuf8internal18GenericTypeHandlerINS0_19FileDescriptorProtoEE5MergeERKS3_PS3_ W
_ZN6google8protobuf8internal18GenericTypeHandlerINS0_8compiler26CodeGeneratorResponse_FileEE5MergeERKS4_PS4_ W
_ZN6google8protobuf8internal19arena_delete_objectINS0_7MessageEEEvPv W
_ZN6google8protobuf8internal19arena_delete_objectINSt7__cxx1112basic_stringIcSt11char_traitsIcESaIcEEEEEvPv W
_ZN6google8protobuf8internal20RepeatedPtrFieldBase18MergeFromInnerLoopINS0_16RepeatedPtrFieldINS0_19FileDescriptorProtoEE11TypeHandlerEEEvPPvS9_ii W
_ZN6google8protobuf8internal20RepeatedPtrFieldBase18MergeFromInnerLoopINS0_16RepeatedPtrFieldINS0_8compiler26CodeGeneratorResponse_FileEE11TypeHandlerEEEvPPvSA_ii W
_ZN6google8protobuf8internal20RepeatedPtrFieldBase18MergeFromInnerLoopINS0_16RepeatedPtrFieldINSt7__cxx1112basic_stringIcSt11char_traitsIcESaIcEEEE11TypeHandlerEEEvPPvSE_ii W
_ZN6google8protobuf8internal20RepeatedPtrFieldBase7DestroyINS0_16RepeatedPtrFieldINS0_19FileDescriptorProtoEE11TypeHandlerEEEvv W
_ZN6google8protobuf8internal20RepeatedPtrFieldBase7DestroyINS0_16RepeatedPtrFieldINS0_8compiler26CodeGeneratorResponse_FileEE11TypeHandlerEEEvv W
_ZN6google8protobuf8internal20RepeatedPtrFieldBase7DestroyINS0_16RepeatedPtrFieldINSt7__cxx1112basic_stringIcSt11char_traitsIcESaIcEEEE11TypeHandlerEEEvv W
_ZN6google8protobuf8internal21arena_destruct_objectINS0_8compiler26CodeGeneratorResponse_FileEEEvPv W
_ZN6google8protobuf8internal21arena_destruct_objectINS1_29InternalMetadataWithArenaBaseINS0_15UnknownFieldSetENS1_25InternalMetadataWithArenaEE9ContainerEEEvPv W
_ZN6google8protobuf8internal21arena_destruct_objectINSt7__cxx1112basic_stringIcSt11char_traitsIcESaIcEEEEEvPv W
_ZN6google8protobuf8internal29InternalMetadataWithArenaBaseINS0_15UnknownFieldSetENS1_25InternalMetadataWithArenaEE27mutable_unknown_fields_slowEv W
_ZN6google8protobuf8internal29InternalMetadataWithArenaBaseINS0_15UnknownFieldSetENS1_25InternalMetadataWithArenaEED1Ev W
_ZN6google8protobuf8internal29InternalMetadataWithArenaBaseINS0_15UnknownFieldSetENS1_25InternalMetadataWithArenaEED2Ev W
_ZNK6google8protobuf10Descriptor11field_countEv W
_ZNK6google8protobuf10Descriptor15extension_countEv W
_ZNK6google8protobuf10Descriptor5fieldEi W
_ZNK6google8protobuf10Descriptor9extensionEi W
_ZNK6google8protobuf11MessageLite16InternalGetTableEv W
_ZNK6google8protobuf11MessageLite20GetMaybeArenaPointerEv W
_ZNK6google8protobuf11MessageLite8GetArenaEv W
_ZNK6google8protobuf15FieldDescriptor6is_mapEv W
_ZNK6google8protobuf19FileDescriptorProto13GetCachedSizeEv W
_ZNK6google8protobuf2io20ZeroCopyOutputStream14AllowsAliasingEv W
_ZNK6google8protobuf7Message13GetReflectionEv W
_ZNK6google8protobuf8compiler10objectivec12ImportWriter5PrintEPNS0_2io7PrinterE T
_ZNK6google8protobuf8compiler10objectivec13FileGenerator24PrintFileRuntimePreambleEPNS0_2io7PrinterERKNSt7__cxx1112basic_stringIcSt11char_traitsIcESaIcEEE T
_ZNK6google8protobuf8compiler10objectivec14FieldGenerator24GenerateFieldDescriptionEPNS0_2io7PrinterEb T
_ZNK6google8protobuf8compiler10objectivec14FieldGenerator25ExtraRuntimeHasBitsNeededEv T
_ZNK6google8protobuf8compiler10objectivec14FieldGenerator27GenerateFieldNumberConstantEPNS0_2io7PrinterE T
_ZNK6google8protobuf8compiler10objectivec14FieldGenerator28DetermineForwardDeclarationsEPSt3setINSt7__cxx1112basic_stringIcSt11char_traitsIcESaIcEEESt4lessISA_ESaISA_EE T
_ZNK6google8protobuf8compiler10objectivec14FieldGenerator29GenerateCFunctionDeclarationsEPNS0_2io7PrinterE T
_ZNK6google8protobuf8compiler10objectivec14FieldGenerator32GenerateCFunctionImplementationsEPNS0_2io7PrinterE T
_ZNK6google8protobuf8compiler10objectivec14FieldGenerator8variableB5cxx11EPKc W
_ZNK6google8protobuf8compiler10objectivec14OneofGenerator14DescriptorNameB5cxx11Ev T
_ZNK6google8protobuf8compiler10objectivec14OneofGenerator16HasIndexAsStringB5cxx11Ev T
_ZNK6google8protobuf8compiler10objectivec16MessageGenerator23IncludesOneOfDefinitionEv T
_ZNK6google8protobuf8compiler10objectivec17FieldGeneratorMap13get_extensionEi T
_ZNK6google8protobuf8compiler10objectivec17FieldGeneratorMap30DoesAnyFieldHaveNonZeroDefaultEv T
_ZNK6google8protobuf8compiler10objectivec17FieldGeneratorMap3getEPKNS0_15FieldDescriptorE T
_ZNK6google8protobuf8compiler10objectivec17MapFieldGenerator28DetermineForwardDeclarationsEPSt3setINSt7__cxx1112basic_stringIcSt11char_traitsIcESaIcEEESt4lessISA_ESaISA_EE T
_ZNK6google8protobuf8compiler10objectivec18EnumFieldGenerator28DetermineForwardDeclarationsEPSt3setINSt7__cxx1112basic_stringIcSt11char_traitsIcESaIcEEESt4lessISA_ESaISA_EE T
_ZNK6google8protobuf8compiler10objectivec18EnumFieldGenerator29GenerateCFunctionDeclarationsEPNS0_2io7PrinterE T
_ZNK6google8protobuf8compiler10objectivec18EnumFieldGenerator32GenerateCFunctionImplementationsEPNS0_2io7PrinterE T
_ZNK6google8protobuf8compiler10objectivec19ObjectiveCGenerator11GenerateAllERKSt6vectorIPKNS0_14FileDescriptorESaIS7_EERKNSt7__cxx1112basic_stringIcSt11char_traitsIcESaIcEEEPNS1_16GeneratorContextEPSH_ T
_ZNK6google8protobuf8compiler10objectivec19ObjectiveCGenerator14HasGenerateAllEv T
_ZNK6google8protobuf8compiler10objectivec19ObjectiveCGenerator8GenerateEPKNS0_14FileDescriptorERKNSt7__cxx1112basic_stringIcSt11char_traitsIcESaIcEEEPNS1_16GeneratorContextEPSC_ T
_ZNK6google8protobuf8compiler10objectivec20SingleFieldGenerator16WantsHasPropertyEv T
_ZNK6google8protobuf8compiler10objectivec20SingleFieldGenerator17RuntimeUsesHasBitEv T
_ZNK6google8protobuf8compiler10objectivec20SingleFieldGenerator27GeneratePropertyDeclarationEPNS0_2io7PrinterE T
_ZNK6google8protobuf8compiler10objectivec20SingleFieldGenerator30GeneratePropertyImplementationEPNS0_2io7PrinterE T
_ZNK6google8protobuf8compiler10objectivec20SingleFieldGenerator31GenerateFieldStorageDeclarationEPNS0_2io7PrinterE T
_ZNK6google8protobuf8compiler10objectivec20TextFormatDecodeData4DataB5cxx11Ev T
_ZNK6google8protobuf8compiler10objectivec21MessageFieldGenerator16WantsHasPropertyEv T
_ZNK6google8protobuf8compiler10objectivec21MessageFieldGenerator28DetermineForwardDeclarationsEPSt3setINSt7__cxx1112basic_stringIcSt11char_traitsIcESaIcEEESt4lessISA_ESaISA_EE T
_ZNK6google8protobuf8compiler10objectivec21ObjCObjFieldGenerator27GeneratePropertyDeclarationEPNS0_2io7PrinterE T
_ZNK6google8protobuf8compiler10objectivec21ObjCObjFieldGenerator31GenerateFieldStorageDeclarationEPNS0_2io7PrinterE T
_ZNK6google8protobuf8compiler10objectivec22RepeatedFieldGenerator16WantsHasPropertyEv T
_ZNK6google8protobuf8compiler10objectivec22RepeatedFieldGenerator17RuntimeUsesHasBitEv T
_ZNK6google8protobuf8compiler10objectivec22RepeatedFieldGenerator27GeneratePropertyDeclarationEPNS0_2io7PrinterE T
_ZNK6google8protobuf8compiler10objectivec22RepeatedFieldGenerator30GeneratePropertyImplementationEPNS0_2io7PrinterE T
_ZNK6google8protobuf8compiler10objectivec22RepeatedFieldGenerator31GenerateFieldStorageDeclarationEPNS0_2io7PrinterE T
_ZNK6google8protobuf8compiler10objectivec23PrimitiveFieldGenerator25ExtraRuntimeHasBitsNeededEv T
_ZNK6google8protobuf8compiler10objectivec23PrimitiveFieldGenerator31GenerateFieldStorageDeclarationEPNS0_2io7PrinterE T
_ZNK6google8protobuf8compiler10objectivec29RepeatedMessageFieldGenerator28DetermineForwardDeclarationsEPSt3setINSt7__cxx1112basic_stringIcSt11char_traitsIcESaIcEEESt4lessISA_ESaISA_EE T
_ZNK6google8protobuf8compiler13CodeGenerator11GenerateAllERKSt6vectorIPKNS0_14FileDescriptorESaIS6_EERKNSt7__cxx1112basic_stringIcSt11char_traitsIcESaIcEEEPNS1_16GeneratorContextEPSG_ T
_ZNK6google8protobuf8compiler13CodeGenerator14HasGenerateAllEv W
_ZNK6google8protobuf8compiler16GeneratorContext18GetCompilerVersionEPNS1_7VersionE T
_ZNK6google8protobuf8compiler20CodeGeneratorRequest11GetMetadataEv T
_ZNK6google8protobuf8compiler20CodeGeneratorRequest12ByteSizeLongEv T
_ZNK6google8protobuf8compiler20CodeGeneratorRequest13GetCachedSizeEv W
_ZNK6google8protobuf8compiler20CodeGeneratorRequest13IsInitializedEv T
_ZNK6google8protobuf8compiler20CodeGeneratorRequest13SetCachedSizeEi T
_ZNK6google8protobuf8compiler20CodeGeneratorRequest24SerializeWithCachedSizesEPNS0_2io17CodedOutputStreamE T
_ZNK6google8protobuf8compiler20CodeGeneratorRequest39InternalSerializeWithCachedSizesToArrayEbPh T
_ZNK6google8protobuf8compiler20CodeGeneratorRequest3NewEPNS0_5ArenaE T
_ZNK6google8protobuf8compiler20CodeGeneratorRequest3NewEv W
_ZNK6google8protobuf8compiler20CommandLineInterface18MemoryOutputStream9ByteCountEv W
_ZNK6google8protobuf8compiler21CodeGeneratorResponse11GetMetadataEv T
_ZNK6google8protobuf8compiler21CodeGeneratorResponse12ByteSizeLongEv T
_ZNK6google8protobuf8compiler21CodeGeneratorResponse13GetCachedSizeEv W
_ZNK6google8protobuf8compiler21CodeGeneratorResponse13IsInitializedEv T
_ZNK6google8protobuf8compiler21CodeGeneratorResponse13SetCachedSizeEi T
_ZNK6google8protobuf8compiler21CodeGeneratorResponse24SerializeWithCachedSizesEPNS0_2io17CodedOutputStreamE T
_ZNK6google8protobuf8compiler21CodeGeneratorResponse39InternalSerializeWithCachedSizesToArrayEbPh T
_ZNK6google8protobuf8compiler21CodeGeneratorResponse3NewEPNS0_5ArenaE T
_ZNK6google8protobuf8compiler21CodeGeneratorResponse3NewEv W
_ZNK6google8protobuf8compiler24GeneratorResponseContext18GetCompilerVersionEPNS1_7VersionE W
_ZNK6google8protobuf8compiler26CodeGeneratorResponse_File11GetMetadataEv T
_ZNK6google8protobuf8compiler26CodeGeneratorResponse_File12ByteSizeLongEv T
_ZNK6google8protobuf8compiler26CodeGeneratorResponse_File13GetCachedSizeEv W
_ZNK6google8protobuf8compiler26CodeGeneratorResponse_File13IsInitializedEv T
_ZNK6google8protobuf8compiler26CodeGeneratorResponse_File13SetCachedSizeEi T
_ZNK6google8protobuf8compiler26CodeGeneratorResponse_File24SerializeWithCachedSizesEPNS0_2io17CodedOutputStreamE T
_ZNK6google8protobuf8compiler26CodeGeneratorResponse_File39InternalSerializeWithCachedSizesToArrayEbPh T
_ZNK6google8protobuf8compiler26CodeGeneratorResponse_File3NewEPNS0_5ArenaE T
_ZNK6google8protobuf8compiler26CodeGeneratorResponse_File3NewEv W
_ZNK6google8protobuf8compiler2js16GeneratorOptions11output_modeEv T
_ZNK6google8protobuf8compiler2js9Generator11GenerateAllERKSt6vectorIPKNS0_14FileDescriptorESaIS7_EERKNSt7__cxx1112basic_stringIcSt11char_traitsIcESaIcEEEPNS1_16GeneratorContextEPSH_ T
_ZNK6google8protobuf8compiler2js9Generator12FindProvidesERKNS2_16GeneratorOptionsEPNS0_2io7PrinterERKSt6vectorIPKNS0_14FileDescriptorESaISD_EEPSt3setINSt7__cxx1112basic_stringIcSt11char_traitsIcESaIcEEESt4lessISO_ESaISO_EE T
_ZNK6google8protobuf8compiler2js9Generator12GenerateEnumERKNS2_16GeneratorOptionsEPNS0_2io7PrinterEPKNS0_14EnumDescriptorE T
_ZNK6google8protobuf8compiler2js9Generator12GenerateFileERKNS2_16GeneratorOptionsEPNS0_2io7PrinterEPKNS0_14FileDescriptorE T
_ZNK6google8protobuf8compiler2js9Generator13GenerateClassERKNS2_16GeneratorOptionsEPNS0_2io7PrinterEPKNS0_10DescriptorE T
_ZNK6google8protobuf8compiler2js9Generator14GenerateHeaderERKNS2_16GeneratorOptionsEPNS0_2io7PrinterE T
_ZNK6google8protobuf8compiler2js9Generator14HasGenerateAllEv W
_ZNK6google8protobuf8compiler2js9Generator16GenerateClassXidERKNS2_16GeneratorOptionsEPNS0_2io7PrinterEPKNS0_10DescriptorE T
_ZNK6google8protobuf8compiler2js9Generator16GenerateProvidesERKNS2_16GeneratorOptionsEPNS0_2io7PrinterEPSt3setINSt7__cxx1112basic_stringIcSt11char_traitsIcESaIcEEESt4lessISG_ESaISG_EE T
_ZNK6google8protobuf8compiler2js9Generator16GenerateTestOnlyERKNS2_16GeneratorOptionsEPNS0_2io7PrinterE T
_ZNK6google8protobuf8compiler2js9Generator17GenerateExtensionERKNS2_16GeneratorOptionsEPNS0_2io7PrinterEPKNS0_15FieldDescriptorE T
_ZNK6google8protobuf8compiler2js9Generator18GenerateClassFieldERKNS2_16GeneratorOptionsEPNS0_2io7PrinterEPKNS0_15FieldDescriptorE T
_ZNK6google8protobuf8compiler2js9Generator19FindProvidesForEnumERKNS2_16GeneratorOptionsEPNS0_2io7PrinterEPKNS0_14EnumDescriptorEPSt3setINSt7__cxx1112basic_stringIcSt11char_traitsIcESaIcEEESt4lessISJ_ESaISJ_EE T
_ZNK6google8protobuf8compiler2js9Generator19FindProvidesForFileERKNS2_16GeneratorOptionsEPNS0_2io7PrinterEPKNS0_14FileDescriptorEPSt3setINSt7__cxx1112basic_stringIcSt11char_traitsIcESaIcEEESt4lessISJ_ESaISJ_EE T
_ZNK6google8protobuf8compiler2js9Generator19GenerateClassFieldsERKNS2_16GeneratorOptionsEPNS0_2io7PrinterEPKNS0_10DescriptorE T
_ZNK6google8protobuf8compiler2js9Generator19GenerateFileAndDepsERKNS2_16GeneratorOptionsEPNS0_2io7PrinterEPKNS0_14FileDescriptorEPSt3setISC_St4lessISC_ESaISC_EESI_ T
_ZNK6google8protobuf8compiler2js9Generator20FindRequiresForFieldERKNS2_16GeneratorOptionsEPKNS0_15FieldDescriptorEPSt3setINSt7__cxx1112basic_stringIcSt11char_traitsIcESaIcEEESt4lessISG_ESaISG_EESL_ T
_ZNK6google8protobuf8compiler2js9Generator20GenerateRequiresImplERKNS2_16GeneratorOptionsEPNS0_2io7PrinterEPSt3setINSt7__cxx1112basic_stringIcSt11char_traitsIcESaIcEEESt4lessISG_ESaISG_EESL_SL_bbb T
_ZNK6google8protobuf8compiler2js9Generator21FindProvidesForFieldsERKNS2_16GeneratorOptionsEPNS0_2io7PrinterERKSt6vectorIPKNS0_15FieldDescriptorESaISD_EEPSt3setINSt7__cxx1112basic_stringIcSt11char_traitsIcESaIcEEESt4lessISO_ESaISO_EE T
_ZNK6google8protobuf8compiler2js9Generator21GenerateClassToObjectERKNS2_16GeneratorOptionsEPNS0_2io7PrinterEPKNS0_10DescriptorE T
_ZNK6google8protobuf8compiler2js9Generator22FindProvidesForMessageERKNS2_16GeneratorOptionsEPNS0_2io7PrinterEPKNS0_10DescriptorEPSt3setINSt7__cxx1112basic_stringIcSt11char_traitsIcESaIcEEESt4lessISJ_ESaISJ_EE T
_ZNK6google8protobuf8compiler2js9Generator22FindRequiresForMessageERKNS2_16GeneratorOptionsEPKNS0_10DescriptorEPSt3setINSt7__cxx1112basic_stringIcSt11char_traitsIcESaIcEEESt4lessISG_ESaISG_EESL_Pb T
_ZNK6google8protobuf8compiler2js9Generator22GenerateClassFieldInfoERKNS2_16GeneratorOptionsEPNS0_2io7PrinterEPKNS0_10DescriptorE T
_ZNK6google8protobuf8compiler2js9Generator23GenerateClassFromObjectERKNS2_16GeneratorOptionsEPNS0_2io7PrinterEPKNS0_10DescriptorE T
_ZNK6google8protobuf8compiler2js9Generator23GenerateClassesAndEnumsERKNS2_16GeneratorOptionsEPNS0_2io7PrinterEPKNS0_14FileDescriptorE T
_ZNK6google8protobuf8compiler2js9Generator23GenerateFilesInDepOrderERKNS2_16GeneratorOptionsEPNS0_2io7PrinterERKSt6vectorIPKNS0_14FileDescriptorESaISD_EE T
_ZNK6google8protobuf8compiler2js9Generator24FindRequiresForExtensionERKNS2_16GeneratorOptionsEPKNS0_15FieldDescriptorEPSt3setINSt7__cxx1112basic_stringIcSt11char_traitsIcESaIcEEESt4lessISG_ESaISG_EESL_ T
_ZNK6google8protobuf8compiler2js9Generator24GenerateClassConstructorERKNS2_16GeneratorOptionsEPNS0_2io7PrinterEPKNS0_10DescriptorE T
_ZNK6google8protobuf8compiler2js9Generator25GenerateClassRegistrationERKNS2_16GeneratorOptionsEPNS0_2io7PrinterEPKNS0_10DescriptorE T
_ZNK6google8protobuf8compiler2js9Generator26GenerateClassFieldToObjectERKNS2_16GeneratorOptionsEPNS0_2io7PrinterEPKNS0_15FieldDescriptorE T
_ZNK6google8protobuf8compiler2js9Generator26GenerateRequiresForLibraryERKNS2_16GeneratorOptionsEPNS0_2io7PrinterERKSt6vectorIPKNS0_14FileDescriptorESaISD_EEPSt3setINSt7__cxx1112basic_stringIcSt11char_traitsIcESaIcEEESt4lessISO_ESaISO_EE T
_ZNK6google8protobuf8compiler2js9Generator26GenerateRequiresForMessageERKNS2_16GeneratorOptionsEPNS0_2io7PrinterEPKNS0_10DescriptorEPSt3setINSt7__cxx1112basic_stringIcSt11char_traitsIcESaIcEEESt4lessISJ_ESaISJ_EE T
_ZNK6google8protobuf8compiler2js9Generator27GenerateOneofCaseDefinitionERKNS2_16GeneratorOptionsEPNS0_2io7PrinterEPKNS0_15OneofDescriptorE T
_ZNK6google8protobuf8compiler2js9Generator28GenerateClassFieldFromObjectERKNS2_16GeneratorOptionsEPNS0_2io7PrinterEPKNS0_15FieldDescriptorE T
_ZNK6google8protobuf8compiler2js9Generator28GenerateClassSerializeBinaryERKNS2_16GeneratorOptionsEPNS0_2io7PrinterEPKNS0_10DescriptorE T
_ZNK6google8protobuf8compiler2js9Generator28GenerateFieldValueExpressionEPNS0_2io7PrinterEPKcPKNS0_15FieldDescriptorEb T
_ZNK6google8protobuf8compiler2js9Generator29GenerateRequiresForExtensionsERKNS2_16GeneratorOptionsEPNS0_2io7PrinterERKSt6vectorIPKNS0_15FieldDescriptorESaISD_EEPSt3setINSt7__cxx1112basic_stringIcSt11char_traitsIcESaIcEEESt4lessISO_ESaISO_EE T
_ZNK6google8protobuf8compiler2js9Generator30GenerateClassDeserializeBinaryERKNS2_16GeneratorOptionsEPNS0_2io7PrinterEPKNS0_10DescriptorE T
_ZNK6google8protobuf8compiler2js9Generator31GenerateClassExtensionFieldInfoERKNS2_16GeneratorOptionsEPNS0_2io7PrinterEPKNS0_10DescriptorE T
_ZNK6google8protobuf8compiler2js9Generator33GenerateClassSerializeBinaryFieldERKNS2_16GeneratorOptionsEPNS0_2io7PrinterEPKNS0_15FieldDescriptorE T
_ZNK6google8protobuf8compiler2js9Generator35GenerateClassDeserializeBinaryFieldERKNS2_16GeneratorOptionsEPNS0_2io7PrinterEPKNS0_15FieldDescriptorE T
_ZNK6google8protobuf8compiler2js9Generator36GenerateRepeatedMessageHelperMethodsERKNS2_16GeneratorOptionsEPNS0_2io7PrinterEPKNS0_15FieldDescriptorE T
_ZNK6google8protobuf8compiler2js9Generator38GenerateRepeatedPrimitiveHelperMethodsERKNS2_16GeneratorOptionsEPNS0_2io7PrinterEPKNS0_15FieldDescriptorEb T
_ZNK6google8protobuf8compiler2js9Generator8GenerateEPKNS0_14FileDescriptorERKNSt7__cxx1112basic_stringIcSt11char_traitsIcESaIcEEEPNS1_16GeneratorContextEPSC_ W
_ZNK6google8protobuf8compiler3cpp12CppGenerator8GenerateEPKNS0_14FileDescriptorERKNSt7__cxx1112basic_stringIcSt11char_traitsIcESaIcEEEPNS1_16GeneratorContextEPSC_ T
_ZNK6google8protobuf8compiler3cpp13FileGenerator19ForwardDeclarations5PrintEPNS0_2io7PrinterERKNS2_7OptionsE W
_ZNK6google8protobuf8compiler3cpp14FieldGenerator21GenerateStaticMembersEPNS0_2io7PrinterE W
_ZNK6google8protobuf8compiler3cpp14FieldGenerator22GenerateDestructorCodeEPNS0_2io7PrinterE W
_ZNK6google8protobuf8compiler3cpp14FieldGenerator27GenerateArenaDestructorCodeEPNS0_2io7PrinterE W
_ZNK6google8protobuf8compiler3cpp14FieldGenerator27GenerateMessageClearingCodeEPNS0_2io7PrinterE W
_ZNK6google8protobuf8compiler3cpp14FieldGenerator32GenerateDefaultInstanceAllocatorEPNS0_2io7PrinterE W
_ZNK6google8protobuf8compiler3cpp14FieldGenerator36GenerateNonInlineAccessorDefinitionsEPNS0_2io7PrinterE W
_ZNK6google8protobuf8compiler3cpp14FieldGenerator37GenerateDependentAccessorDeclarationsEPNS0_2io7PrinterE W
_ZNK6google8protobuf8compiler3cpp14FieldGenerator39GenerateMergeFromCodedStreamWithPackingEPNS0_2io7PrinterE T
_ZNK6google8protobuf8compiler3cpp14FieldGenerator42GenerateDependentInlineAccessorDefinitionsEPNS0_2io7PrinterE W
_ZNK6google8protobuf8compiler3cpp16MessageGenerator11HasBitsSizeEv T
_ZNK6google8protobuf8compiler3cpp16MessageGenerator21RequiredFieldsBitMaskEv T
_ZNK6google8protobuf8compiler3cpp16MessageGenerator23GenerateConstructorBodyEPNS0_2io7PrinterESt6vectorIbSaIbEEb T
_ZNK6google8protobuf8compiler3cpp17FieldGeneratorMap3getEPKNS0_15FieldDescriptorE T
_ZNK6google8protobuf8compiler3cpp17MapFieldGenerator16GenerateByteSizeEPNS0_2io7PrinterE T
_ZNK6google8protobuf8compiler3cpp17MapFieldGenerator19GenerateMergingCodeEPNS0_2io7PrinterE T
_ZNK6google8protobuf8compiler3cpp17MapFieldGenerator20GenerateClearingCodeEPNS0_2io7PrinterE T
_ZNK6google8protobuf8compiler3cpp17MapFieldGenerator20GenerateSwappingCodeEPNS0_2io7PrinterE T
_ZNK6google8protobuf8compiler3cpp17MapFieldGenerator22GeneratePrivateMembersEPNS0_2io7PrinterE T
_ZNK6google8protobuf8compiler3cpp17MapFieldGenerator23GenerateConstructorCodeEPNS0_2io7PrinterE W
_ZNK6google8protobuf8compiler3cpp17MapFieldGenerator27GenerateCopyConstructorCodeEPNS0_2io7PrinterE T
_ZNK6google8protobuf8compiler3cpp17MapFieldGenerator28GenerateAccessorDeclarationsEPNS0_2io7PrinterE T
_ZNK6google8protobuf8compiler3cpp17MapFieldGenerator28GenerateMergeFromCodedStreamEPNS0_2io7PrinterE T
_ZNK6google8protobuf8compiler3cpp17MapFieldGenerator32GenerateSerializeWithCachedSizesEPNS0_2io7PrinterE T
_ZNK6google8protobuf8compiler3cpp17MapFieldGenerator32GenerateSerializeWithCachedSizesEPNS0_2io7PrinterERKSt3mapINSt7__cxx1112basic_stringIcSt11char_traitsIcESaIcEEESD_St4lessISD_ESaISt4pairIKSD_SD_EEE T
_ZNK6google8protobuf8compiler3cpp17MapFieldGenerator33GenerateInlineAccessorDefinitionsEPNS0_2io7PrinterE T
_ZNK6google8protobuf8compiler3cpp17MapFieldGenerator39GenerateSerializeWithCachedSizesToArrayEPNS0_2io7PrinterE T
_ZNK6google8protobuf8compiler3cpp18EnumFieldGenerator16GenerateByteSizeEPNS0_2io7PrinterE T
_ZNK6google8protobuf8compiler3cpp18EnumFieldGenerator19GenerateMergingCodeEPNS0_2io7PrinterE T
_ZNK6google8protobuf8compiler3cpp18EnumFieldGenerator20GenerateClearingCodeEPNS0_2io7PrinterE T
_ZNK6google8protobuf8compiler3cpp18EnumFieldGenerator20GenerateSwappingCodeEPNS0_2io7PrinterE T
_ZNK6google8protobuf8compiler3cpp18EnumFieldGenerator22GeneratePrivateMembersEPNS0_2io7PrinterE T
_ZNK6google8protobuf8compiler3cpp18EnumFieldGenerator23GenerateConstructorCodeEPNS0_2io7PrinterE T
_ZNK6google8protobuf8compiler3cpp18EnumFieldGenerator27GenerateCopyConstructorCodeEPNS0_2io7PrinterE T
_ZNK6google8protobuf8compiler3cpp18EnumFieldGenerator28GenerateAccessorDeclarationsEPNS0_2io7PrinterE T
_ZNK6google8protobuf8compiler3cpp18EnumFieldGenerator28GenerateMergeFromCodedStreamEPNS0_2io7PrinterE T
_ZNK6google8protobuf8compiler3cpp18EnumFieldGenerator32GenerateSerializeWithCachedSizesEPNS0_2io7PrinterE T
_ZNK6google8protobuf8compiler3cpp18EnumFieldGenerator33GenerateInlineAccessorDefinitionsEPNS0_2io7PrinterE T
_ZNK6google8protobuf8compiler3cpp18EnumFieldGenerator39GenerateSerializeWithCachedSizesToArrayEPNS0_2io7PrinterE T
_ZNK6google8protobuf8compiler3cpp20StringFieldGenerator16GenerateByteSizeEPNS0_2io7PrinterE T
_ZNK6google8protobuf8compiler3cpp20StringFieldGenerator19GenerateMergingCodeEPNS0_2io7PrinterE T
_ZNK6google8protobuf8compiler3cpp20StringFieldGenerator20GenerateClearingCodeEPNS0_2io7PrinterE T
_ZNK6google8protobuf8compiler3cpp20StringFieldGenerator20GenerateSwappingCodeEPNS0_2io7PrinterE T
_ZNK6google8protobuf8compiler3cpp20StringFieldGenerator21GenerateStaticMembersEPNS0_2io7PrinterE T
_ZNK6google8protobuf8compiler3cpp20StringFieldGenerator22GenerateDestructorCodeEPNS0_2io7PrinterE T
_ZNK6google8protobuf8compiler3cpp20StringFieldGenerator22GeneratePrivateMembersEPNS0_2io7PrinterE T
_ZNK6google8protobuf8compiler3cpp20StringFieldGenerator23GenerateConstructorCodeEPNS0_2io7PrinterE T
_ZNK6google8protobuf8compiler3cpp20StringFieldGenerator27GenerateCopyConstructorCodeEPNS0_2io7PrinterE T
_ZNK6google8protobuf8compiler3cpp20StringFieldGenerator27GenerateMessageClearingCodeEPNS0_2io7PrinterE T
_ZNK6google8protobuf8compiler3cpp20StringFieldGenerator28GenerateAccessorDeclarationsEPNS0_2io7PrinterE T
_ZNK6google8protobuf8compiler3cpp20StringFieldGenerator28GenerateMergeFromCodedStreamEPNS0_2io7PrinterE T
_ZNK6google8protobuf8compiler3cpp20StringFieldGenerator32GenerateDefaultInstanceAllocatorEPNS0_2io7PrinterE T
_ZNK6google8protobuf8compiler3cpp20StringFieldGenerator32GenerateSerializeWithCachedSizesEPNS0_2io7PrinterE T
_ZNK6google8protobuf8compiler3cpp20StringFieldGenerator33GenerateInlineAccessorDefinitionsEPNS0_2io7PrinterE T
_ZNK6google8protobuf8compiler3cpp20StringFieldGenerator36GenerateNonInlineAccessorDefinitionsEPNS0_2io7PrinterE T
_ZNK6google8protobuf8compiler3cpp20StringFieldGenerator39GenerateSerializeWithCachedSizesToArrayEPNS0_2io7PrinterE T
_ZNK6google8protobuf8compiler3cpp21MessageFieldGenerator16GenerateByteSizeEPNS0_2io7PrinterE T
_ZNK6google8protobuf8compiler3cpp21MessageFieldGenerator19GenerateMergingCodeEPNS0_2io7PrinterE T
_ZNK6google8protobuf8compiler3cpp21MessageFieldGenerator20GenerateClearingCodeEPNS0_2io7PrinterE T
_ZNK6google8protobuf8compiler3cpp21MessageFieldGenerator20GenerateSwappingCodeEPNS0_2io7PrinterE T
_ZNK6google8protobuf8compiler3cpp21MessageFieldGenerator22GenerateDestructorCodeEPNS0_2io7PrinterE T
_ZNK6google8protobuf8compiler3cpp21MessageFieldGenerator22GeneratePrivateMembersEPNS0_2io7PrinterE T
_ZNK6google8protobuf8compiler3cpp21MessageFieldGenerator23GenerateConstructorCodeEPNS0_2io7PrinterE T
_ZNK6google8protobuf8compiler3cpp21MessageFieldGenerator27GenerateCopyConstructorCodeEPNS0_2io7PrinterE T
_ZNK6google8protobuf8compiler3cpp21MessageFieldGenerator27GenerateMessageClearingCodeEPNS0_2io7PrinterE T
_ZNK6google8protobuf8compiler3cpp21MessageFieldGenerator28GenerateAccessorDeclarationsEPNS0_2io7PrinterE T
_ZNK6google8protobuf8compiler3cpp21MessageFieldGenerator28GenerateMergeFromCodedStreamEPNS0_2io7PrinterE T
_ZNK6google8protobuf8compiler3cpp21MessageFieldGenerator32GenerateSerializeWithCachedSizesEPNS0_2io7PrinterE T
_ZNK6google8protobuf8compiler3cpp21MessageFieldGenerator33GenerateInlineAccessorDefinitionsEPNS0_2io7PrinterE T
_ZNK6google8protobuf8compiler3cpp21MessageFieldGenerator36GenerateNonInlineAccessorDefinitionsEPNS0_2io7PrinterE T
_ZNK6google8protobuf8compiler3cpp21MessageFieldGenerator37GenerateDependentAccessorDeclarationsEPNS0_2io7PrinterE T
_ZNK6google8protobuf8compiler3cpp21MessageFieldGenerator39GenerateSerializeWithCachedSizesToArrayEPNS0_2io7PrinterE T
_ZNK6google8protobuf8compiler3cpp21MessageFieldGenerator42GenerateDependentInlineAccessorDefinitionsEPNS0_2io7PrinterE T
_ZNK6google8protobuf8compiler3cpp23EnumOneofFieldGenerator20GenerateClearingCodeEPNS0_2io7PrinterE T
_ZNK6google8protobuf8compiler3cpp23EnumOneofFieldGenerator20GenerateSwappingCodeEPNS0_2io7PrinterE T
_ZNK6google8protobuf8compiler3cpp23EnumOneofFieldGenerator23GenerateConstructorCodeEPNS0_2io7PrinterE T
_ZNK6google8protobuf8compiler3cpp23EnumOneofFieldGenerator33GenerateInlineAccessorDefinitionsEPNS0_2io7PrinterE T
_ZNK6google8protobuf8compiler3cpp23PrimitiveFieldGenerator16GenerateByteSizeEPNS0_2io7PrinterE T
_ZNK6google8protobuf8compiler3cpp23PrimitiveFieldGenerator19GenerateMergingCodeEPNS0_2io7PrinterE T
_ZNK6google8protobuf8compiler3cpp23PrimitiveFieldGenerator20GenerateClearingCodeEPNS0_2io7PrinterE T
_ZNK6google8protobuf8compiler3cpp23PrimitiveFieldGenerator20GenerateSwappingCodeEPNS0_2io7PrinterE T
_ZNK6google8protobuf8compiler3cpp23PrimitiveFieldGenerator22GeneratePrivateMembersEPNS0_2io7PrinterE T
_ZNK6google8protobuf8compiler3cpp23PrimitiveFieldGenerator23GenerateConstructorCodeEPNS0_2io7PrinterE T
_ZNK6google8protobuf8compiler3cpp23PrimitiveFieldGenerator27GenerateCopyConstructorCodeEPNS0_2io7PrinterE T
_ZNK6google8protobuf8compiler3cpp23PrimitiveFieldGenerator28GenerateAccessorDeclarationsEPNS0_2io7PrinterE T
_ZNK6google8protobuf8compiler3cpp23PrimitiveFieldGenerator28GenerateMergeFromCodedStreamEPNS0_2io7PrinterE T
_ZNK6google8protobuf8compiler3cpp23PrimitiveFieldGenerator32GenerateSerializeWithCachedSizesEPNS0_2io7PrinterE T
_ZNK6google8protobuf8compiler3cpp23PrimitiveFieldGenerator33GenerateInlineAccessorDefinitionsEPNS0_2io7PrinterE T
_ZNK6google8protobuf8compiler3cpp23PrimitiveFieldGenerator39GenerateSerializeWithCachedSizesToArrayEPNS0_2io7PrinterE T
_ZNK6google8protobuf8compiler3cpp25StringOneofFieldGenerator20GenerateClearingCodeEPNS0_2io7PrinterE T
_ZNK6google8protobuf8compiler3cpp25StringOneofFieldGenerator20GenerateSwappingCodeEPNS0_2io7PrinterE T
_ZNK6google8protobuf8compiler3cpp25StringOneofFieldGenerator22GenerateDestructorCodeEPNS0_2io7PrinterE T
_ZNK6google8protobuf8compiler3cpp25StringOneofFieldGenerator23GenerateConstructorCodeEPNS0_2io7PrinterE T
_ZNK6google8protobuf8compiler3cpp25StringOneofFieldGenerator27GenerateMessageClearingCodeEPNS0_2io7PrinterE T
_ZNK6google8protobuf8compiler3cpp25StringOneofFieldGenerator28GenerateMergeFromCodedStreamEPNS0_2io7PrinterE T
_ZNK6google8protobuf8compiler3cpp25StringOneofFieldGenerator33GenerateInlineAccessorDefinitionsEPNS0_2io7PrinterE T
_ZNK6google8protobuf8compiler3cpp26MessageOneofFieldGenerator20GenerateClearingCodeEPNS0_2io7PrinterE T
_ZNK6google8protobuf8compiler3cpp26MessageOneofFieldGenerator20GenerateSwappingCodeEPNS0_2io7PrinterE T
_ZNK6google8protobuf8compiler3cpp26MessageOneofFieldGenerator22GenerateDestructorCodeEPNS0_2io7PrinterE T
_ZNK6google8protobuf8compiler3cpp26MessageOneofFieldGenerator23GenerateConstructorCodeEPNS0_2io7PrinterE T
_ZNK6google8protobuf8compiler3cpp26MessageOneofFieldGenerator27GenerateMessageClearingCodeEPNS0_2io7PrinterE T
_ZNK6google8protobuf8compiler3cpp26MessageOneofFieldGenerator33GenerateInlineAccessorDefinitionsEPNS0_2io7PrinterE T
_ZNK6google8protobuf8compiler3cpp26MessageOneofFieldGenerator36GenerateNonInlineAccessorDefinitionsEPNS0_2io7PrinterE T
_ZNK6google8protobuf8compiler3cpp26MessageOneofFieldGenerator41InternalGenerateInlineAccessorDefinitionsERKSt3mapINSt7__cxx1112basic_stringIcSt11char_traitsIcESaIcEEESA_St4lessISA_ESaISt4pairIKSA_SA_EEEPNS0_2io7PrinterE T
_ZNK6google8protobuf8compiler3cpp26MessageOneofFieldGenerator42GenerateDependentInlineAccessorDefinitionsEPNS0_2io7PrinterE T
_ZNK6google8protobuf8compiler3cpp26RepeatedEnumFieldGenerator16GenerateByteSizeEPNS0_2io7PrinterE T
_ZNK6google8protobuf8compiler3cpp26RepeatedEnumFieldGenerator19GenerateMergingCodeEPNS0_2io7PrinterE T
_ZNK6google8protobuf8compiler3cpp26RepeatedEnumFieldGenerator20GenerateClearingCodeEPNS0_2io7PrinterE T
_ZNK6google8protobuf8compiler3cpp26RepeatedEnumFieldGenerator20GenerateSwappingCodeEPNS0_2io7PrinterE T
_ZNK6google8protobuf8compiler3cpp26RepeatedEnumFieldGenerator22GeneratePrivateMembersEPNS0_2io7PrinterE T
_ZNK6google8protobuf8compiler3cpp26RepeatedEnumFieldGenerator23GenerateConstructorCodeEPNS0_2io7PrinterE T
_ZNK6google8protobuf8compiler3cpp26RepeatedEnumFieldGenerator27GenerateCopyConstructorCodeEPNS0_2io7PrinterE W
_ZNK6google8protobuf8compiler3cpp26RepeatedEnumFieldGenerator28GenerateAccessorDeclarationsEPNS0_2io7PrinterE T
_ZNK6google8protobuf8compiler3cpp26RepeatedEnumFieldGenerator28GenerateMergeFromCodedStreamEPNS0_2io7PrinterE T
_ZNK6google8protobuf8compiler3cpp26RepeatedEnumFieldGenerator32GenerateSerializeWithCachedSizesEPNS0_2io7PrinterE T
_ZNK6google8protobuf8compiler3cpp26RepeatedEnumFieldGenerator33GenerateInlineAccessorDefinitionsEPNS0_2io7PrinterE T
_ZNK6google8protobuf8compiler3cpp26RepeatedEnumFieldGenerator39GenerateMergeFromCodedStreamWithPackingEPNS0_2io7PrinterE T
_ZNK6google8protobuf8compiler3cpp26RepeatedEnumFieldGenerator39GenerateSerializeWithCachedSizesToArrayEPNS0_2io7PrinterE T
_ZNK6google8protobuf8compiler3cpp28PrimitiveOneofFieldGenerator20GenerateClearingCodeEPNS0_2io7PrinterE T
_ZNK6google8protobuf8compiler3cpp28PrimitiveOneofFieldGenerator20GenerateSwappingCodeEPNS0_2io7PrinterE T
_ZNK6google8protobuf8compiler3cpp28PrimitiveOneofFieldGenerator23GenerateConstructorCodeEPNS0_2io7PrinterE T
_ZNK6google8protobuf8compiler3cpp28PrimitiveOneofFieldGenerator28GenerateMergeFromCodedStreamEPNS0_2io7PrinterE T
_ZNK6google8protobuf8compiler3cpp28PrimitiveOneofFieldGenerator33GenerateInlineAccessorDefinitionsEPNS0_2io7PrinterE T
_ZNK6google8protobuf8compiler3cpp28RepeatedStringFieldGenerator16GenerateByteSizeEPNS0_2io7PrinterE T
_ZNK6google8protobuf8compiler3cpp28RepeatedStringFieldGenerator19GenerateMergingCodeEPNS0_2io7PrinterE T
_ZNK6google8protobuf8compiler3cpp28RepeatedStringFieldGenerator20GenerateClearingCodeEPNS0_2io7PrinterE T
_ZNK6google8protobuf8compiler3cpp28RepeatedStringFieldGenerator20GenerateSwappingCodeEPNS0_2io7PrinterE T
_ZNK6google8protobuf8compiler3cpp28RepeatedStringFieldGenerator22GeneratePrivateMembersEPNS0_2io7PrinterE T
_ZNK6google8protobuf8compiler3cpp28RepeatedStringFieldGenerator23GenerateConstructorCodeEPNS0_2io7PrinterE T
_ZNK6google8protobuf8compiler3cpp28RepeatedStringFieldGenerator27GenerateCopyConstructorCodeEPNS0_2io7PrinterE T
_ZNK6google8protobuf8compiler3cpp28RepeatedStringFieldGenerator28GenerateAccessorDeclarationsEPNS0_2io7PrinterE T
_ZNK6google8protobuf8compiler3cpp28RepeatedStringFieldGenerator28GenerateMergeFromCodedStreamEPNS0_2io7PrinterE T
_ZNK6google8protobuf8compiler3cpp28RepeatedStringFieldGenerator32GenerateSerializeWithCachedSizesEPNS0_2io7PrinterE T
_ZNK6google8protobuf8compiler3cpp28RepeatedStringFieldGenerator33GenerateInlineAccessorDefinitionsEPNS0_2io7PrinterE T
_ZNK6google8protobuf8compiler3cpp28RepeatedStringFieldGenerator39GenerateSerializeWithCachedSizesToArrayEPNS0_2io7PrinterE T
_ZNK6google8protobuf8compiler3cpp29RepeatedMessageFieldGenerator16GenerateByteSizeEPNS0_2io7PrinterE T
_ZNK6google8protobuf8compiler3cpp29RepeatedMessageFieldGenerator19GenerateMergingCodeEPNS0_2io7PrinterE T
_ZNK6google8protobuf8compiler3cpp29RepeatedMessageFieldGenerator20GenerateClearingCodeEPNS0_2io7PrinterE T
_ZNK6google8protobuf8compiler3cpp29RepeatedMessageFieldGenerator20GenerateSwappingCodeEPNS0_2io7PrinterE T
_ZNK6google8protobuf8compiler3cpp29RepeatedMessageFieldGenerator22GeneratePrivateMembersEPNS0_2io7PrinterE T
_ZNK6google8protobuf8compiler3cpp29RepeatedMessageFieldGenerator23GenerateConstructorCodeEPNS0_2io7PrinterE T
_ZNK6google8protobuf8compiler3cpp29RepeatedMessageFieldGenerator27GenerateCopyConstructorCodeEPNS0_2io7PrinterE W
_ZNK6google8protobuf8compiler3cpp29RepeatedMessageFieldGenerator28GenerateAccessorDeclarationsEPNS0_2io7PrinterE T
_ZNK6google8protobuf8compiler3cpp29RepeatedMessageFieldGenerator28GenerateMergeFromCodedStreamEPNS0_2io7PrinterE T
_ZNK6google8protobuf8compiler3cpp29RepeatedMessageFieldGenerator32GenerateSerializeWithCachedSizesEPNS0_2io7PrinterE T
_ZNK6google8protobuf8compiler3cpp29RepeatedMessageFieldGenerator33GenerateInlineAccessorDefinitionsEPNS0_2io7PrinterE T
_ZNK6google8protobuf8compiler3cpp29RepeatedMessageFieldGenerator37GenerateDependentAccessorDeclarationsEPNS0_2io7PrinterE T
_ZNK6google8protobuf8compiler3cpp29RepeatedMessageFieldGenerator39GenerateSerializeWithCachedSizesToArrayEPNS0_2io7PrinterE T
_ZNK6google8protobuf8compiler3cpp29RepeatedMessageFieldGenerator42GenerateDependentInlineAccessorDefinitionsEPNS0_2io7PrinterE T
_ZNK6google8protobuf8compiler3cpp29RepeatedMessageFieldGenerator49InternalGenerateTypeDependentAccessorDeclarationsEPNS0_2io7PrinterE T
_ZNK6google8protobuf8compiler3cpp31RepeatedPrimitiveFieldGenerator16GenerateByteSizeEPNS0_2io7PrinterE T
_ZNK6google8protobuf8compiler3cpp31RepeatedPrimitiveFieldGenerator19GenerateMergingCodeEPNS0_2io7PrinterE T
_ZNK6google8protobuf8compiler3cpp31RepeatedPrimitiveFieldGenerator20GenerateClearingCodeEPNS0_2io7PrinterE T
_ZNK6google8protobuf8compiler3cpp31RepeatedPrimitiveFieldGenerator20GenerateSwappingCodeEPNS0_2io7PrinterE T
_ZNK6google8protobuf8compiler3cpp31RepeatedPrimitiveFieldGenerator22GeneratePrivateMembersEPNS0_2io7PrinterE T
_ZNK6google8protobuf8compiler3cpp31RepeatedPrimitiveFieldGenerator23GenerateConstructorCodeEPNS0_2io7PrinterE T
_ZNK6google8protobuf8compiler3cpp31RepeatedPrimitiveFieldGenerator27GenerateCopyConstructorCodeEPNS0_2io7PrinterE T
_ZNK6google8protobuf8compiler3cpp31RepeatedPrimitiveFieldGenerator28GenerateAccessorDeclarationsEPNS0_2io7PrinterE T
_ZNK6google8protobuf8compiler3cpp31RepeatedPrimitiveFieldGenerator28GenerateMergeFromCodedStreamEPNS0_2io7PrinterE T
_ZNK6google8protobuf8compiler3cpp31RepeatedPrimitiveFieldGenerator32GenerateSerializeWithCachedSizesEPNS0_2io7PrinterE T
_ZNK6google8protobuf8compiler3cpp31RepeatedPrimitiveFieldGenerator33GenerateInlineAccessorDefinitionsEPNS0_2io7PrinterE T
_ZNK6google8protobuf8compiler3cpp31RepeatedPrimitiveFieldGenerator39GenerateMergeFromCodedStreamWithPackingEPNS0_2io7PrinterE T
_ZNK6google8protobuf8compiler3cpp31RepeatedPrimitiveFieldGenerator39GenerateSerializeWithCachedSizesToArrayEPNS0_2io7PrinterE T
_ZNK6google8protobuf8compiler3php9Generator8GenerateEPKNS0_14FileDescriptorERKNSt7__cxx1112basic_stringIcSt11char_traitsIcESaIcEEEPNS1_16GeneratorContextEPSC_ T
_ZNK6google8protobuf8compiler4java13JavaGenerator8GenerateEPKNS0_14FileDescriptorERKNSt7__cxx1112basic_stringIcSt11char_traitsIcESaIcEEEPNS1_16GeneratorContextEPSC_ T
_ZNK6google8protobuf8compiler4java23ImmutableFieldGenerator29GenerateParsingCodeFromPackedEPNS0_2io7PrinterE T
_ZNK6google8protobuf8compiler4java25ImmutableGeneratorFactory19NewMessageGeneratorEPKNS0_10DescriptorE T
_ZNK6google8protobuf8compiler4java25ImmutableGeneratorFactory19NewServiceGeneratorEPKNS0_17ServiceDescriptorE T
_ZNK6google8protobuf8compiler4java25ImmutableGeneratorFactory21NewExtensionGeneratorEPKNS0_15FieldDescriptorE T
_ZNK6google8protobuf8compiler4java26ImmutableMapFieldGenerator12GetBoxedTypeB5cxx11Ev T
_ZNK6google8protobuf8compiler4java26ImmutableMapFieldGenerator15GenerateMembersEPNS0_2io7PrinterE T
_ZNK6google8protobuf8compiler4java26ImmutableMapFieldGenerator16GenerateHashCodeEPNS0_2io7PrinterE T
_ZNK6google8protobuf8compiler4java26ImmutableMapFieldGenerator18GenerateEqualsCodeEPNS0_2io7PrinterE T
_ZNK6google8protobuf8compiler4java26ImmutableMapFieldGenerator18GenerateMapGettersEPNS0_2io7PrinterE T
_ZNK6google8protobuf8compiler4java26ImmutableMapFieldGenerator19GenerateMergingCodeEPNS0_2io7PrinterE T
_ZNK6google8protobuf8compiler4java26ImmutableMapFieldGenerator19GenerateParsingCodeEPNS0_2io7PrinterE T
_ZNK6google8protobuf8compiler4java26ImmutableMapFieldGenerator20GenerateBuildingCodeEPNS0_2io7PrinterE T
_ZNK6google8protobuf8compiler4java26ImmutableMapFieldGenerator20GetNumBitsForBuilderEv T
_ZNK6google8protobuf8compiler4java26ImmutableMapFieldGenerator20GetNumBitsForMessageEv T
_ZNK6google8protobuf8compiler4java26ImmutableMapFieldGenerator22GenerateBuilderMembersEPNS0_2io7PrinterE T
_ZNK6google8protobuf8compiler4java26ImmutableMapFieldGenerator23GenerateParsingDoneCodeEPNS0_2io7PrinterE T
_ZNK6google8protobuf8compiler4java26ImmutableMapFieldGenerator24GenerateBuilderClearCodeEPNS0_2io7PrinterE T
_ZNK6google8protobuf8compiler4java26ImmutableMapFieldGenerator24GenerateInterfaceMembersEPNS0_2io7PrinterE T
_ZNK6google8protobuf8compiler4java26ImmutableMapFieldGenerator25GenerateSerializationCodeEPNS0_2io7PrinterE T
_ZNK6google8protobuf8compiler4java26ImmutableMapFieldGenerator26GenerateInitializationCodeEPNS0_2io7PrinterE T
_ZNK6google8protobuf8compiler4java26ImmutableMapFieldGenerator26GenerateSerializedSizeCodeEPNS0_2io7PrinterE T
_ZNK6google8protobuf8compiler4java26ImmutableMapFieldGenerator38GenerateFieldBuilderInitializationCodeEPNS0_2io7PrinterE T
_ZNK6google8protobuf8compiler4java27ImmutableEnumFieldGenerator12GetBoxedTypeB5cxx11Ev T
_ZNK6google8protobuf8compiler4java27ImmutableEnumFieldGenerator15GenerateMembersEPNS0_2io7PrinterE T
_ZNK6google8protobuf8compiler4java27ImmutableEnumFieldGenerator16GenerateHashCodeEPNS0_2io7PrinterE T
_ZNK6google8protobuf8compiler4java27ImmutableEnumFieldGenerator18GenerateEqualsCodeEPNS0_2io7PrinterE T
_ZNK6google8protobuf8compiler4java27ImmutableEnumFieldGenerator19GenerateMergingCodeEPNS0_2io7PrinterE T
_ZNK6google8protobuf8compiler4java27ImmutableEnumFieldGenerator19GenerateParsingCodeEPNS0_2io7PrinterE T
_ZNK6google8protobuf8compiler4java27ImmutableEnumFieldGenerator20GenerateBuildingCodeEPNS0_2io7PrinterE T
_ZNK6google8protobuf8compiler4java27ImmutableEnumFieldGenerator20GetNumBitsForBuilderEv T
_ZNK6google8protobuf8compiler4java27ImmutableEnumFieldGenerator20GetNumBitsForMessageEv T
_ZNK6google8protobuf8compiler4java27ImmutableEnumFieldGenerator22GenerateBuilderMembersEPNS0_2io7PrinterE T
_ZNK6google8protobuf8compiler4java27ImmutableEnumFieldGenerator23GenerateParsingDoneCodeEPNS0_2io7PrinterE T
_ZNK6google8protobuf8compiler4java27ImmutableEnumFieldGenerator24GenerateBuilderClearCodeEPNS0_2io7PrinterE T
_ZNK6google8protobuf8compiler4java27ImmutableEnumFieldGenerator24GenerateInterfaceMembersEPNS0_2io7PrinterE T
_ZNK6google8protobuf8compiler4java27ImmutableEnumFieldGenerator25GenerateSerializationCodeEPNS0_2io7PrinterE T
_ZNK6google8protobuf8compiler4java27ImmutableEnumFieldGenerator26GenerateInitializationCodeEPNS0_2io7PrinterE T
_ZNK6google8protobuf8compiler4java27ImmutableEnumFieldGenerator26GenerateSerializedSizeCodeEPNS0_2io7PrinterE T
_ZNK6google8protobuf8compiler4java27ImmutableEnumFieldGenerator38GenerateFieldBuilderInitializationCodeEPNS0_2io7PrinterE T
_ZNK6google8protobuf8compiler4java27ImmutableFieldLiteGenerator29GenerateParsingCodeFromPackedEPNS0_2io7PrinterE T
_ZNK6google8protobuf8compiler4java29ImmutableStringFieldGenerator12GetBoxedTypeB5cxx11Ev T
_ZNK6google8protobuf8compiler4java29ImmutableStringFieldGenerator15GenerateMembersEPNS0_2io7PrinterE T
_ZNK6google8protobuf8compiler4java29ImmutableStringFieldGenerator16GenerateHashCodeEPNS0_2io7PrinterE T
_ZNK6google8protobuf8compiler4java29ImmutableStringFieldGenerator18GenerateEqualsCodeEPNS0_2io7PrinterE T
_ZNK6google8protobuf8compiler4java29ImmutableStringFieldGenerator19GenerateMergingCodeEPNS0_2io7PrinterE T
_ZNK6google8protobuf8compiler4java29ImmutableStringFieldGenerator19GenerateParsingCodeEPNS0_2io7PrinterE T
_ZNK6google8protobuf8compiler4java29ImmutableStringFieldGenerator20GenerateBuildingCodeEPNS0_2io7PrinterE T
_ZNK6google8protobuf8compiler4java29ImmutableStringFieldGenerator20GetNumBitsForBuilderEv T
_ZNK6google8protobuf8compiler4java29ImmutableStringFieldGenerator20GetNumBitsForMessageEv T
_ZNK6google8protobuf8compiler4java29ImmutableStringFieldGenerator22GenerateBuilderMembersEPNS0_2io7PrinterE T
_ZNK6google8protobuf8compiler4java29ImmutableStringFieldGenerator23GenerateParsingDoneCodeEPNS0_2io7PrinterE T
_ZNK6google8protobuf8compiler4java29ImmutableStringFieldGenerator24GenerateBuilderClearCodeEPNS0_2io7PrinterE T
_ZNK6google8protobuf8compiler4java29ImmutableStringFieldGenerator24GenerateInterfaceMembersEPNS0_2io7PrinterE T
_ZNK6google8protobuf8compiler4java29ImmutableStringFieldGenerator25GenerateSerializationCodeEPNS0_2io7PrinterE T
_ZNK6google8protobuf8compiler4java29ImmutableStringFieldGenerator26GenerateInitializationCodeEPNS0_2io7PrinterE T
_ZNK6google8protobuf8compiler4java29ImmutableStringFieldGenerator26GenerateSerializedSizeCodeEPNS0_2io7PrinterE T
_ZNK6google8protobuf8compiler4java29ImmutableStringFieldGenerator38GenerateFieldBuilderInitializationCodeEPNS0_2io7PrinterE T
_ZNK6google8protobuf8compiler4java30ImmutableMapFieldLiteGenerator12GetBoxedTypeB5cxx11Ev T
_ZNK6google8protobuf8compiler4java30ImmutableMapFieldLiteGenerator15GenerateMembersEPNS0_2io7PrinterE T
_ZNK6google8protobuf8compiler4java30ImmutableMapFieldLiteGenerator16GenerateHashCodeEPNS0_2io7PrinterE T
_ZNK6google8protobuf8compiler4java30ImmutableMapFieldLiteGenerator17GenerateVisitCodeEPNS0_2io7PrinterE T
_ZNK6google8protobuf8compiler4java30ImmutableMapFieldLiteGenerator18GenerateEqualsCodeEPNS0_2io7PrinterE T
_ZNK6google8protobuf8compiler4java30ImmutableMapFieldLiteGenerator19GenerateParsingCodeEPNS0_2io7PrinterE T
_ZNK6google8protobuf8compiler4java30ImmutableMapFieldLiteGenerator20GetNumBitsForBuilderEv T
_ZNK6google8protobuf8compiler4java30ImmutableMapFieldLiteGenerator20GetNumBitsForMessageEv T
_ZNK6google8protobuf8compiler4java30ImmutableMapFieldLiteGenerator22GenerateBuilderMembersEPNS0_2io7PrinterE T
_ZNK6google8protobuf8compiler4java30ImmutableMapFieldLiteGenerator23GenerateParsingDoneCodeEPNS0_2io7PrinterE T
_ZNK6google8protobuf8compiler4java30ImmutableMapFieldLiteGenerator24GenerateInterfaceMembersEPNS0_2io7PrinterE T
_ZNK6google8protobuf8compiler4java30ImmutableMapFieldLiteGenerator25GenerateSerializationCodeEPNS0_2io7PrinterE T
_ZNK6google8protobuf8compiler4java30ImmutableMapFieldLiteGenerator26GenerateInitializationCodeEPNS0_2io7PrinterE T
_ZNK6google8protobuf8compiler4java30ImmutableMapFieldLiteGenerator26GenerateSerializedSizeCodeEPNS0_2io7PrinterE T
_ZNK6google8protobuf8compiler4java30ImmutableMapFieldLiteGenerator38GenerateDynamicMethodMakeImmutableCodeEPNS0_2io7PrinterE T
_ZNK6google8protobuf8compiler4java30ImmutableMapFieldLiteGenerator38GenerateFieldBuilderInitializationCodeEPNS0_2io7PrinterE T
_ZNK6google8protobuf8compiler4java30ImmutableMessageFieldGenerator12GetBoxedTypeB5cxx11Ev T
_ZNK6google8protobuf8compiler4java30ImmutableMessageFieldGenerator15GenerateMembersEPNS0_2io7PrinterE T
_ZNK6google8protobuf8compiler4java30ImmutableMessageFieldGenerator16GenerateHashCodeEPNS0_2io7PrinterE T
_ZNK6google8protobuf8compiler4java30ImmutableMessageFieldGenerator18GenerateEqualsCodeEPNS0_2io7PrinterE T
_ZNK6google8protobuf8compiler4java30ImmutableMessageFieldGenerator19GenerateMergingCodeEPNS0_2io7PrinterE T
_ZNK6google8protobuf8compiler4java30ImmutableMessageFieldGenerator19GenerateParsingCodeEPNS0_2io7PrinterE T
_ZNK6google8protobuf8compiler4java30ImmutableMessageFieldGenerator20GenerateBuildingCodeEPNS0_2io7PrinterE T
_ZNK6google8protobuf8compiler4java30ImmutableMessageFieldGenerator20GetNumBitsForBuilderEv T
_ZNK6google8protobuf8compiler4java30ImmutableMessageFieldGenerator20GetNumBitsForMessageEv T
_ZNK6google8protobuf8compiler4java30ImmutableMessageFieldGenerator22GenerateBuilderMembersEPNS0_2io7PrinterE T
_ZNK6google8protobuf8compiler4java30ImmutableMessageFieldGenerator23GenerateParsingDoneCodeEPNS0_2io7PrinterE T
_ZNK6google8protobuf8compiler4java30ImmutableMessageFieldGenerator24GenerateBuilderClearCodeEPNS0_2io7PrinterE T
_ZNK6google8protobuf8compiler4java30ImmutableMessageFieldGenerator24GenerateInterfaceMembersEPNS0_2io7PrinterE T
_ZNK6google8protobuf8compiler4java30ImmutableMessageFieldGenerator25GenerateSerializationCodeEPNS0_2io7PrinterE T
_ZNK6google8protobuf8compiler4java30ImmutableMessageFieldGenerator26GenerateInitializationCodeEPNS0_2io7PrinterE T
_ZNK6google8protobuf8compiler4java30ImmutableMessageFieldGenerator26GenerateSerializedSizeCodeEPNS0_2io7PrinterE T
_ZNK6google8protobuf8compiler4java30ImmutableMessageFieldGenerator26PrintNestedBuilderFunctionEPNS0_2io7PrinterEPKcS8_S8_S8_ T
_ZNK6google8protobuf8compiler4java30ImmutableMessageFieldGenerator27PrintNestedBuilderConditionEPNS0_2io7PrinterEPKcS8_ T
_ZNK6google8protobuf8compiler4java30ImmutableMessageFieldGenerator38GenerateFieldBuilderInitializationCodeEPNS0_2io7PrinterE T
_ZNK6google8protobuf8compiler4java31ImmutableEnumFieldLiteGenerator12GetBoxedTypeB5cxx11Ev T
_ZNK6google8protobuf8compiler4java31ImmutableEnumFieldLiteGenerator15GenerateMembersEPNS0_2io7PrinterE T
_ZNK6google8protobuf8compiler4java31ImmutableEnumFieldLiteGenerator16GenerateHashCodeEPNS0_2io7PrinterE T
_ZNK6google8protobuf8compiler4java31ImmutableEnumFieldLiteGenerator17GenerateVisitCodeEPNS0_2io7PrinterE T
_ZNK6google8protobuf8compiler4java31ImmutableEnumFieldLiteGenerator18GenerateEqualsCodeEPNS0_2io7PrinterE T
_ZNK6google8protobuf8compiler4java31ImmutableEnumFieldLiteGenerator19GenerateParsingCodeEPNS0_2io7PrinterE T
_ZNK6google8protobuf8compiler4java31ImmutableEnumFieldLiteGenerator20GetNumBitsForBuilderEv T
_ZNK6google8protobuf8compiler4java31ImmutableEnumFieldLiteGenerator20GetNumBitsForMessageEv T
_ZNK6google8protobuf8compiler4java31ImmutableEnumFieldLiteGenerator22GenerateBuilderMembersEPNS0_2io7PrinterE T
_ZNK6google8protobuf8compiler4java31ImmutableEnumFieldLiteGenerator23GenerateParsingDoneCodeEPNS0_2io7PrinterE T
_ZNK6google8protobuf8compiler4java31ImmutableEnumFieldLiteGenerator24GenerateInterfaceMembersEPNS0_2io7PrinterE T
_ZNK6google8protobuf8compiler4java31ImmutableEnumFieldLiteGenerator25GenerateSerializationCodeEPNS0_2io7PrinterE T
_ZNK6google8protobuf8compiler4java31ImmutableEnumFieldLiteGenerator26GenerateInitializationCodeEPNS0_2io7PrinterE T
_ZNK6google8protobuf8compiler4java31ImmutableEnumFieldLiteGenerator26GenerateSerializedSizeCodeEPNS0_2io7PrinterE T
_ZNK6google8protobuf8compiler4java31ImmutableEnumFieldLiteGenerator38GenerateDynamicMethodMakeImmutableCodeEPNS0_2io7PrinterE T
_ZNK6google8protobuf8compiler4java31ImmutableEnumFieldLiteGenerator38GenerateFieldBuilderInitializationCodeEPNS0_2io7PrinterE T
_ZNK6google8protobuf8compiler4java32ImmutableEnumOneofFieldGenerator15GenerateMembersEPNS0_2io7PrinterE T
_ZNK6google8protobuf8compiler4java32ImmutableEnumOneofFieldGenerator16GenerateHashCodeEPNS0_2io7PrinterE T
_ZNK6google8protobuf8compiler4java32ImmutableEnumOneofFieldGenerator18GenerateEqualsCodeEPNS0_2io7PrinterE T
_ZNK6google8protobuf8compiler4java32ImmutableEnumOneofFieldGenerator19GenerateMergingCodeEPNS0_2io7PrinterE T
_ZNK6google8protobuf8compiler4java32ImmutableEnumOneofFieldGenerator19GenerateParsingCodeEPNS0_2io7PrinterE T
_ZNK6google8protobuf8compiler4java32ImmutableEnumOneofFieldGenerator20GenerateBuildingCodeEPNS0_2io7PrinterE T
_ZNK6google8protobuf8compiler4java32ImmutableEnumOneofFieldGenerator22GenerateBuilderMembersEPNS0_2io7PrinterE T
_ZNK6google8protobuf8compiler4java32ImmutableEnumOneofFieldGenerator25GenerateSerializationCodeEPNS0_2io7PrinterE T
_ZNK6google8protobuf8compiler4java32ImmutableEnumOneofFieldGenerator26GenerateSerializedSizeCodeEPNS0_2io7PrinterE T
_ZNK6google8protobuf8compiler4java32ImmutablePrimitiveFieldGenerator12GetBoxedTypeB5cxx11Ev T
_ZNK6google8protobuf8compiler4java32ImmutablePrimitiveFieldGenerator15GenerateMembersEPNS0_2io7PrinterE T
_ZNK6google8protobuf8compiler4java32ImmutablePrimitiveFieldGenerator16GenerateHashCodeEPNS0_2io7PrinterE T
_ZNK6google8protobuf8compiler4java32ImmutablePrimitiveFieldGenerator18GenerateEqualsCodeEPNS0_2io7PrinterE T
_ZNK6google8protobuf8compiler4java32ImmutablePrimitiveFieldGenerator19GenerateMergingCodeEPNS0_2io7PrinterE T
_ZNK6google8protobuf8compiler4java32ImmutablePrimitiveFieldGenerator19GenerateParsingCodeEPNS0_2io7PrinterE T
_ZNK6google8protobuf8compiler4java32ImmutablePrimitiveFieldGenerator20GenerateBuildingCodeEPNS0_2io7PrinterE T
_ZNK6google8protobuf8compiler4java32ImmutablePrimitiveFieldGenerator20GetNumBitsForBuilderEv T
_ZNK6google8protobuf8compiler4java32ImmutablePrimitiveFieldGenerator20GetNumBitsForMessageEv T
_ZNK6google8protobuf8compiler4java32ImmutablePrimitiveFieldGenerator22GenerateBuilderMembersEPNS0_2io7PrinterE T
_ZNK6google8protobuf8compiler4java32ImmutablePrimitiveFieldGenerator23GenerateParsingDoneCodeEPNS0_2io7PrinterE T
_ZNK6google8protobuf8compiler4java32ImmutablePrimitiveFieldGenerator24GenerateBuilderClearCodeEPNS0_2io7PrinterE T
_ZNK6google8protobuf8compiler4java32ImmutablePrimitiveFieldGenerator24GenerateInterfaceMembersEPNS0_2io7PrinterE T
_ZNK6google8protobuf8compiler4java32ImmutablePrimitiveFieldGenerator25GenerateSerializationCodeEPNS0_2io7PrinterE T
_ZNK6google8protobuf8compiler4java32ImmutablePrimitiveFieldGenerator26GenerateInitializationCodeEPNS0_2io7PrinterE T
_ZNK6google8protobuf8compiler4java32ImmutablePrimitiveFieldGenerator26GenerateSerializedSizeCodeEPNS0_2io7PrinterE T
_ZNK6google8protobuf8compiler4java32ImmutablePrimitiveFieldGenerator38GenerateFieldBuilderInitializationCodeEPNS0_2io7PrinterE T
_ZNK6google8protobuf8compiler4java33ImmutableStringFieldLiteGenerator12GetBoxedTypeB5cxx11Ev T
_ZNK6google8protobuf8compiler4java33ImmutableStringFieldLiteGenerator15GenerateMembersEPNS0_2io7PrinterE T
_ZNK6google8protobuf8compiler4java33ImmutableStringFieldLiteGenerator16GenerateHashCodeEPNS0_2io7PrinterE T
_ZNK6google8protobuf8compiler4java33ImmutableStringFieldLiteGenerator17GenerateVisitCodeEPNS0_2io7PrinterE T
_ZNK6google8protobuf8compiler4java33ImmutableStringFieldLiteGenerator18GenerateEqualsCodeEPNS0_2io7PrinterE T
_ZNK6google8protobuf8compiler4java33ImmutableStringFieldLiteGenerator19GenerateParsingCodeEPNS0_2io7PrinterE T
_ZNK6google8protobuf8compiler4java33ImmutableStringFieldLiteGenerator20GetNumBitsForBuilderEv T
_ZNK6google8protobuf8compiler4java33ImmutableStringFieldLiteGenerator20GetNumBitsForMessageEv T
_ZNK6google8protobuf8compiler4java33ImmutableStringFieldLiteGenerator22GenerateBuilderMembersEPNS0_2io7PrinterE T
_ZNK6google8protobuf8compiler4java33ImmutableStringFieldLiteGenerator23GenerateParsingDoneCodeEPNS0_2io7PrinterE T
_ZNK6google8protobuf8compiler4java33ImmutableStringFieldLiteGenerator24GenerateInterfaceMembersEPNS0_2io7PrinterE T
_ZNK6google8protobuf8compiler4java33ImmutableStringFieldLiteGenerator25GenerateSerializationCodeEPNS0_2io7PrinterE T
_ZNK6google8protobuf8compiler4java33ImmutableStringFieldLiteGenerator26GenerateInitializationCodeEPNS0_2io7PrinterE T
_ZNK6google8protobuf8compiler4java33ImmutableStringFieldLiteGenerator26GenerateSerializedSizeCodeEPNS0_2io7PrinterE T
_ZNK6google8protobuf8compiler4java33ImmutableStringFieldLiteGenerator38GenerateDynamicMethodMakeImmutableCodeEPNS0_2io7PrinterE T
_ZNK6google8protobuf8compiler4java33ImmutableStringFieldLiteGenerator38GenerateFieldBuilderInitializationCodeEPNS0_2io7PrinterE T
_ZNK6google8protobuf8compiler4java34ImmutableLazyMessageFieldGenerator15GenerateMembersEPNS0_2io7PrinterE T
_ZNK6google8protobuf8compiler4java34ImmutableLazyMessageFieldGenerator19GenerateMergingCodeEPNS0_2io7PrinterE T
_ZNK6google8protobuf8compiler4java34ImmutableLazyMessageFieldGenerator19GenerateParsingCodeEPNS0_2io7PrinterE T
_ZNK6google8protobuf8compiler4java34ImmutableLazyMessageFieldGenerator20GenerateBuildingCodeEPNS0_2io7PrinterE T
_ZNK6google8protobuf8compiler4java34ImmutableLazyMessageFieldGenerator22GenerateBuilderMembersEPNS0_2io7PrinterE T
_ZNK6google8protobuf8compiler4java34ImmutableLazyMessageFieldGenerator24GenerateBuilderClearCodeEPNS0_2io7PrinterE T
_ZNK6google8protobuf8compiler4java34ImmutableLazyMessageFieldGenerator25GenerateSerializationCodeEPNS0_2io7PrinterE T
_ZNK6google8protobuf8compiler4java34ImmutableLazyMessageFieldGenerator26GenerateInitializationCodeEPNS0_2io7PrinterE T
_ZNK6google8protobuf8compiler4java34ImmutableLazyMessageFieldGenerator26GenerateSerializedSizeCodeEPNS0_2io7PrinterE T
_ZNK6google8protobuf8compiler4java34ImmutableMessageFieldLiteGenerator12GetBoxedTypeB5cxx11Ev T
_ZNK6google8protobuf8compiler4java34ImmutableMessageFieldLiteGenerator15GenerateMembersEPNS0_2io7PrinterE T
_ZNK6google8protobuf8compiler4java34ImmutableMessageFieldLiteGenerator16GenerateHashCodeEPNS0_2io7PrinterE T
_ZNK6google8protobuf8compiler4java34ImmutableMessageFieldLiteGenerator17GenerateVisitCodeEPNS0_2io7PrinterE T
_ZNK6google8protobuf8compiler4java34ImmutableMessageFieldLiteGenerator18GenerateEqualsCodeEPNS0_2io7PrinterE T
_ZNK6google8protobuf8compiler4java34ImmutableMessageFieldLiteGenerator19GenerateParsingCodeEPNS0_2io7PrinterE T
_ZNK6google8protobuf8compiler4java34ImmutableMessageFieldLiteGenerator20GetNumBitsForBuilderEv T
_ZNK6google8protobuf8compiler4java34ImmutableMessageFieldLiteGenerator20GetNumBitsForMessageEv T
_ZNK6google8protobuf8compiler4java34ImmutableMessageFieldLiteGenerator22GenerateBuilderMembersEPNS0_2io7PrinterE T
_ZNK6google8protobuf8compiler4java34ImmutableMessageFieldLiteGenerator23GenerateParsingDoneCodeEPNS0_2io7PrinterE T
_ZNK6google8protobuf8compiler4java34ImmutableMessageFieldLiteGenerator24GenerateInterfaceMembersEPNS0_2io7PrinterE T
_ZNK6google8protobuf8compiler4java34ImmutableMessageFieldLiteGenerator25GenerateSerializationCodeEPNS0_2io7PrinterE T
_ZNK6google8protobuf8compiler4java34ImmutableMessageFieldLiteGenerator26GenerateInitializationCodeEPNS0_2io7PrinterE T
_ZNK6google8protobuf8compiler4java34ImmutableMessageFieldLiteGenerator26GenerateSerializedSizeCodeEPNS0_2io7PrinterE T
_ZNK6google8protobuf8compiler4java34ImmutableMessageFieldLiteGenerator38GenerateDynamicMethodMakeImmutableCodeEPNS0_2io7PrinterE T
_ZNK6google8protobuf8compiler4java34ImmutableMessageFieldLiteGenerator38GenerateFieldBuilderInitializationCodeEPNS0_2io7PrinterE T
_ZNK6google8protobuf8compiler4java34ImmutableStringOneofFieldGenerator15GenerateMembersEPNS0_2io7PrinterE T
_ZNK6google8protobuf8compiler4java34ImmutableStringOneofFieldGenerator19GenerateMergingCodeEPNS0_2io7PrinterE T
_ZNK6google8protobuf8compiler4java34ImmutableStringOneofFieldGenerator19GenerateParsingCodeEPNS0_2io7PrinterE T
_ZNK6google8protobuf8compiler4java34ImmutableStringOneofFieldGenerator20GenerateBuildingCodeEPNS0_2io7PrinterE T
_ZNK6google8protobuf8compiler4java34ImmutableStringOneofFieldGenerator22GenerateBuilderMembersEPNS0_2io7PrinterE T
_ZNK6google8protobuf8compiler4java34ImmutableStringOneofFieldGenerator25GenerateSerializationCodeEPNS0_2io7PrinterE T
_ZNK6google8protobuf8compiler4java34ImmutableStringOneofFieldGenerator26GenerateSerializedSizeCodeEPNS0_2io7PrinterE T
_ZNK6google8protobuf8compiler4java35ImmutableMessageOneofFieldGenerator15GenerateMembersEPNS0_2io7PrinterE T
_ZNK6google8protobuf8compiler4java35ImmutableMessageOneofFieldGenerator19GenerateMergingCodeEPNS0_2io7PrinterE T
_ZNK6google8protobuf8compiler4java35ImmutableMessageOneofFieldGenerator19GenerateParsingCodeEPNS0_2io7PrinterE T
_ZNK6google8protobuf8compiler4java35ImmutableMessageOneofFieldGenerator20GenerateBuildingCodeEPNS0_2io7PrinterE T
_ZNK6google8protobuf8compiler4java35ImmutableMessageOneofFieldGenerator22GenerateBuilderMembersEPNS0_2io7PrinterE T
_ZNK6google8protobuf8compiler4java35ImmutableMessageOneofFieldGenerator25GenerateSerializationCodeEPNS0_2io7PrinterE T
_ZNK6google8protobuf8compiler4java35ImmutableMessageOneofFieldGenerator26GenerateSerializedSizeCodeEPNS0_2io7PrinterE T
_ZNK6google8protobuf8compiler4java35RepeatedImmutableEnumFieldGenerator12GetBoxedTypeB5cxx11Ev T
_ZNK6google8protobuf8compiler4java35RepeatedImmutableEnumFieldGenerator15GenerateMembersEPNS0_2io7PrinterE T
_ZNK6google8protobuf8compiler4java35RepeatedImmutableEnumFieldGenerator16GenerateHashCodeEPNS0_2io7PrinterE T
_ZNK6google8protobuf8compiler4java35RepeatedImmutableEnumFieldGenerator18GenerateEqualsCodeEPNS0_2io7PrinterE T
_ZNK6google8protobuf8compiler4java35RepeatedImmutableEnumFieldGenerator19GenerateMergingCodeEPNS0_2io7PrinterE T
_ZNK6google8protobuf8compiler4java35RepeatedImmutableEnumFieldGenerator19GenerateParsingCodeEPNS0_2io7PrinterE T
_ZNK6google8protobuf8compiler4java35RepeatedImmutableEnumFieldGenerator20GenerateBuildingCodeEPNS0_2io7PrinterE T
_ZNK6google8protobuf8compiler4java35RepeatedImmutableEnumFieldGenerator20GetNumBitsForBuilderEv T
_ZNK6google8protobuf8compiler4java35RepeatedImmutableEnumFieldGenerator20GetNumBitsForMessageEv T
_ZNK6google8protobuf8compiler4java35RepeatedImmutableEnumFieldGenerator22GenerateBuilderMembersEPNS0_2io7PrinterE T
_ZNK6google8protobuf8compiler4java35RepeatedImmutableEnumFieldGenerator23GenerateParsingDoneCodeEPNS0_2io7PrinterE T
_ZNK6google8protobuf8compiler4java35RepeatedImmutableEnumFieldGenerator24GenerateBuilderClearCodeEPNS0_2io7PrinterE T
_ZNK6google8protobuf8compiler4java35RepeatedImmutableEnumFieldGenerator24GenerateInterfaceMembersEPNS0_2io7PrinterE T
_ZNK6google8protobuf8compiler4java35RepeatedImmutableEnumFieldGenerator25GenerateSerializationCodeEPNS0_2io7PrinterE T
_ZNK6google8protobuf8compiler4java35RepeatedImmutableEnumFieldGenerator26GenerateInitializationCodeEPNS0_2io7PrinterE T
_ZNK6google8protobuf8compiler4java35RepeatedImmutableEnumFieldGenerator26GenerateSerializedSizeCodeEPNS0_2io7PrinterE T
_ZNK6google8protobuf8compiler4java35RepeatedImmutableEnumFieldGenerator29GenerateParsingCodeFromPackedEPNS0_2io7PrinterE T
_ZNK6google8protobuf8compiler4java35RepeatedImmutableEnumFieldGenerator38GenerateFieldBuilderInitializationCodeEPNS0_2io7PrinterE T
_ZNK6google8protobuf8compiler4java36ImmutableEnumOneofFieldLiteGenerator15GenerateMembersEPNS0_2io7PrinterE T
_ZNK6google8protobuf8compiler4java36ImmutableEnumOneofFieldLiteGenerator16GenerateHashCodeEPNS0_2io7PrinterE T
_ZNK6google8protobuf8compiler4java36ImmutableEnumOneofFieldLiteGenerator17GenerateVisitCodeEPNS0_2io7PrinterE T
_ZNK6google8protobuf8compiler4java36ImmutableEnumOneofFieldLiteGenerator18GenerateEqualsCodeEPNS0_2io7PrinterE T
_ZNK6google8protobuf8compiler4java36ImmutableEnumOneofFieldLiteGenerator19GenerateParsingCodeEPNS0_2io7PrinterE T
_ZNK6google8protobuf8compiler4java36ImmutableEnumOneofFieldLiteGenerator22GenerateBuilderMembersEPNS0_2io7PrinterE T
_ZNK6google8protobuf8compiler4java36ImmutableEnumOneofFieldLiteGenerator25GenerateSerializationCodeEPNS0_2io7PrinterE T
_ZNK6google8protobuf8compiler4java36ImmutableEnumOneofFieldLiteGenerator26GenerateSerializedSizeCodeEPNS0_2io7PrinterE T
_ZNK6google8protobuf8compiler4java36ImmutablePrimitiveFieldLiteGenerator12GetBoxedTypeB5cxx11Ev T
_ZNK6google8protobuf8compiler4java36ImmutablePrimitiveFieldLiteGenerator15GenerateMembersEPNS0_2io7PrinterE T
_ZNK6google8protobuf8compiler4java36ImmutablePrimitiveFieldLiteGenerator16GenerateHashCodeEPNS0_2io7PrinterE T
_ZNK6google8protobuf8compiler4java36ImmutablePrimitiveFieldLiteGenerator17GenerateVisitCodeEPNS0_2io7PrinterE T
_ZNK6google8protobuf8compiler4java36ImmutablePrimitiveFieldLiteGenerator18GenerateEqualsCodeEPNS0_2io7PrinterE T
_ZNK6google8protobuf8compiler4java36ImmutablePrimitiveFieldLiteGenerator19GenerateParsingCodeEPNS0_2io7PrinterE T
_ZNK6google8protobuf8compiler4java36ImmutablePrimitiveFieldLiteGenerator20GenerateBuildingCodeEPNS0_2io7PrinterE T
_ZNK6google8protobuf8compiler4java36ImmutablePrimitiveFieldLiteGenerator20GetNumBitsForBuilderEv T
_ZNK6google8protobuf8compiler4java36ImmutablePrimitiveFieldLiteGenerator20GetNumBitsForMessageEv T
_ZNK6google8protobuf8compiler4java36ImmutablePrimitiveFieldLiteGenerator22GenerateBuilderMembersEPNS0_2io7PrinterE T
_ZNK6google8protobuf8compiler4java36ImmutablePrimitiveFieldLiteGenerator23GenerateParsingDoneCodeEPNS0_2io7PrinterE T
_ZNK6google8protobuf8compiler4java36ImmutablePrimitiveFieldLiteGenerator24GenerateBuilderClearCodeEPNS0_2io7PrinterE T
_ZNK6google8protobuf8compiler4java36ImmutablePrimitiveFieldLiteGenerator24GenerateInterfaceMembersEPNS0_2io7PrinterE T
_ZNK6google8protobuf8compiler4java36ImmutablePrimitiveFieldLiteGenerator25GenerateSerializationCodeEPNS0_2io7PrinterE T
_ZNK6google8protobuf8compiler4java36ImmutablePrimitiveFieldLiteGenerator26GenerateInitializationCodeEPNS0_2io7PrinterE T
_ZNK6google8protobuf8compiler4java36ImmutablePrimitiveFieldLiteGenerator26GenerateSerializedSizeCodeEPNS0_2io7PrinterE T
_ZNK6google8protobuf8compiler4java36ImmutablePrimitiveFieldLiteGenerator38GenerateDynamicMethodMakeImmutableCodeEPNS0_2io7PrinterE T
_ZNK6google8protobuf8compiler4java36ImmutablePrimitiveFieldLiteGenerator38GenerateFieldBuilderInitializationCodeEPNS0_2io7PrinterE T
_ZNK6google8protobuf8compiler4java37ImmutablePrimitiveOneofFieldGenerator15GenerateMembersEPNS0_2io7PrinterE T
_ZNK6google8protobuf8compiler4java37ImmutablePrimitiveOneofFieldGenerator19GenerateMergingCodeEPNS0_2io7PrinterE T
_ZNK6google8protobuf8compiler4java37ImmutablePrimitiveOneofFieldGenerator19GenerateParsingCodeEPNS0_2io7PrinterE T
_ZNK6google8protobuf8compiler4java37ImmutablePrimitiveOneofFieldGenerator20GenerateBuildingCodeEPNS0_2io7PrinterE T
_ZNK6google8protobuf8compiler4java37ImmutablePrimitiveOneofFieldGenerator22GenerateBuilderMembersEPNS0_2io7PrinterE T
_ZNK6google8protobuf8compiler4java37ImmutablePrimitiveOneofFieldGenerator25GenerateSerializationCodeEPNS0_2io7PrinterE T
_ZNK6google8protobuf8compiler4java37ImmutablePrimitiveOneofFieldGenerator26GenerateSerializedSizeCodeEPNS0_2io7PrinterE T
_ZNK6google8protobuf8compiler4java37RepeatedImmutableStringFieldGenerator12GetBoxedTypeB5cxx11Ev T
_ZNK6google8protobuf8compiler4java37RepeatedImmutableStringFieldGenerator15GenerateMembersEPNS0_2io7PrinterE T
_ZNK6google8protobuf8compiler4java37RepeatedImmutableStringFieldGenerator16GenerateHashCodeEPNS0_2io7PrinterE T
_ZNK6google8protobuf8compiler4java37RepeatedImmutableStringFieldGenerator18GenerateEqualsCodeEPNS0_2io7PrinterE T
_ZNK6google8protobuf8compiler4java37RepeatedImmutableStringFieldGenerator19GenerateMergingCodeEPNS0_2io7PrinterE T
_ZNK6google8protobuf8compiler4java37RepeatedImmutableStringFieldGenerator19GenerateParsingCodeEPNS0_2io7PrinterE T
_ZNK6google8protobuf8compiler4java37RepeatedImmutableStringFieldGenerator20GenerateBuildingCodeEPNS0_2io7PrinterE T
_ZNK6google8protobuf8compiler4java37RepeatedImmutableStringFieldGenerator20GetNumBitsForBuilderEv T
_ZNK6google8protobuf8compiler4java37RepeatedImmutableStringFieldGenerator20GetNumBitsForMessageEv T
_ZNK6google8protobuf8compiler4java37RepeatedImmutableStringFieldGenerator22GenerateBuilderMembersEPNS0_2io7PrinterE T
_ZNK6google8protobuf8compiler4java37RepeatedImmutableStringFieldGenerator23GenerateParsingDoneCodeEPNS0_2io7PrinterE T
_ZNK6google8protobuf8compiler4java37RepeatedImmutableStringFieldGenerator24GenerateBuilderClearCodeEPNS0_2io7PrinterE T
_ZNK6google8protobuf8compiler4java37RepeatedImmutableStringFieldGenerator24GenerateInterfaceMembersEPNS0_2io7PrinterE T
_ZNK6google8protobuf8compiler4java37RepeatedImmutableStringFieldGenerator25GenerateSerializationCodeEPNS0_2io7PrinterE T
_ZNK6google8protobuf8compiler4java37RepeatedImmutableStringFieldGenerator26GenerateInitializationCodeEPNS0_2io7PrinterE T
_ZNK6google8protobuf8compiler4java37RepeatedImmutableStringFieldGenerator26GenerateSerializedSizeCodeEPNS0_2io7PrinterE T
_ZNK6google8protobuf8compiler4java37RepeatedImmutableStringFieldGenerator38GenerateFieldBuilderInitializationCodeEPNS0_2io7PrinterE T
_ZNK6google8protobuf8compiler4java38ImmutableLazyMessageFieldLiteGenerator15GenerateMembersEPNS0_2io7PrinterE T
_ZNK6google8protobuf8compiler4java38ImmutableLazyMessageFieldLiteGenerator17GenerateVisitCodeEPNS0_2io7PrinterE T
_ZNK6google8protobuf8compiler4java38ImmutableLazyMessageFieldLiteGenerator19GenerateParsingCodeEPNS0_2io7PrinterE T
_ZNK6google8protobuf8compiler4java38ImmutableLazyMessageFieldLiteGenerator22GenerateBuilderMembersEPNS0_2io7PrinterE T
_ZNK6google8protobuf8compiler4java38ImmutableLazyMessageFieldLiteGenerator25GenerateSerializationCodeEPNS0_2io7PrinterE T
_ZNK6google8protobuf8compiler4java38ImmutableLazyMessageFieldLiteGenerator26GenerateInitializationCodeEPNS0_2io7PrinterE T
_ZNK6google8protobuf8compiler4java38ImmutableLazyMessageFieldLiteGenerator26GenerateSerializedSizeCodeEPNS0_2io7PrinterE T
_ZNK6google8protobuf8compiler4java38ImmutableStringOneofFieldLiteGenerator15GenerateMembersEPNS0_2io7PrinterE T
_ZNK6google8protobuf8compiler4java38ImmutableStringOneofFieldLiteGenerator17GenerateVisitCodeEPNS0_2io7PrinterE T
_ZNK6google8protobuf8compiler4java38ImmutableStringOneofFieldLiteGenerator19GenerateParsingCodeEPNS0_2io7PrinterE T
_ZNK6google8protobuf8compiler4java38ImmutableStringOneofFieldLiteGenerator22GenerateBuilderMembersEPNS0_2io7PrinterE T
_ZNK6google8protobuf8compiler4java38ImmutableStringOneofFieldLiteGenerator25GenerateSerializationCodeEPNS0_2io7PrinterE T
_ZNK6google8protobuf8compiler4java38ImmutableStringOneofFieldLiteGenerator26GenerateSerializedSizeCodeEPNS0_2io7PrinterE T
_ZNK6google8protobuf8compiler4java38RepeatedImmutableMessageFieldGenerator12GetBoxedTypeB5cxx11Ev T
_ZNK6google8protobuf8compiler4java38RepeatedImmutableMessageFieldGenerator15GenerateMembersEPNS0_2io7PrinterE T
_ZNK6google8protobuf8compiler4java38RepeatedImmutableMessageFieldGenerator16GenerateHashCodeEPNS0_2io7PrinterE T
_ZNK6google8protobuf8compiler4java38RepeatedImmutableMessageFieldGenerator18GenerateEqualsCodeEPNS0_2io7PrinterE T
_ZNK6google8protobuf8compiler4java38RepeatedImmutableMessageFieldGenerator19GenerateMergingCodeEPNS0_2io7PrinterE T
_ZNK6google8protobuf8compiler4java38RepeatedImmutableMessageFieldGenerator19GenerateParsingCodeEPNS0_2io7PrinterE T
_ZNK6google8protobuf8compiler4java38RepeatedImmutableMessageFieldGenerator20GenerateBuildingCodeEPNS0_2io7PrinterE T
_ZNK6google8protobuf8compiler4java38RepeatedImmutableMessageFieldGenerator20GetNumBitsForBuilderEv T
_ZNK6google8protobuf8compiler4java38RepeatedImmutableMessageFieldGenerator20GetNumBitsForMessageEv T
_ZNK6google8protobuf8compiler4java38RepeatedImmutableMessageFieldGenerator22GenerateBuilderMembersEPNS0_2io7PrinterE T
_ZNK6google8protobuf8compiler4java38RepeatedImmutableMessageFieldGenerator23GenerateParsingDoneCodeEPNS0_2io7PrinterE T
_ZNK6google8protobuf8compiler4java38RepeatedImmutableMessageFieldGenerator24GenerateBuilderClearCodeEPNS0_2io7PrinterE T
_ZNK6google8protobuf8compiler4java38RepeatedImmutableMessageFieldGenerator24GenerateInterfaceMembersEPNS0_2io7PrinterE T
_ZNK6google8protobuf8compiler4java38RepeatedImmutableMessageFieldGenerator25GenerateSerializationCodeEPNS0_2io7PrinterE T
_ZNK6google8protobuf8compiler4java38RepeatedImmutableMessageFieldGenerator26GenerateInitializationCodeEPNS0_2io7PrinterE T
_ZNK6google8protobuf8compiler4java38RepeatedImmutableMessageFieldGenerator26GenerateSerializedSizeCodeEPNS0_2io7PrinterE T
_ZNK6google8protobuf8compiler4java38RepeatedImmutableMessageFieldGenerator26PrintNestedBuilderFunctionEPNS0_2io7PrinterEPKcS8_S8_S8_ T
_ZNK6google8protobuf8compiler4java38RepeatedImmutableMessageFieldGenerator27PrintNestedBuilderConditionEPNS0_2io7PrinterEPKcS8_ T
_ZNK6google8protobuf8compiler4java38RepeatedImmutableMessageFieldGenerator38GenerateFieldBuilderInitializationCodeEPNS0_2io7PrinterE T
_ZNK6google8protobuf8compiler4java39ImmutableLazyMessageOneofFieldGenerator15GenerateMembersEPNS0_2io7PrinterE T
_ZNK6google8protobuf8compiler4java39ImmutableLazyMessageOneofFieldGenerator19GenerateMergingCodeEPNS0_2io7PrinterE T
_ZNK6google8protobuf8compiler4java39ImmutableLazyMessageOneofFieldGenerator19GenerateParsingCodeEPNS0_2io7PrinterE T
_ZNK6google8protobuf8compiler4java39ImmutableLazyMessageOneofFieldGenerator20GenerateBuildingCodeEPNS0_2io7PrinterE T
_ZNK6google8protobuf8compiler4java39ImmutableLazyMessageOneofFieldGenerator22GenerateBuilderMembersEPNS0_2io7PrinterE T
_ZNK6google8protobuf8compiler4java39ImmutableLazyMessageOneofFieldGenerator25GenerateSerializationCodeEPNS0_2io7PrinterE T
_ZNK6google8protobuf8compiler4java39ImmutableLazyMessageOneofFieldGenerator26GenerateSerializedSizeCodeEPNS0_2io7PrinterE T
_ZNK6google8protobuf8compiler4java39ImmutableMessageOneofFieldLiteGenerator15GenerateMembersEPNS0_2io7PrinterE T
_ZNK6google8protobuf8compiler4java39ImmutableMessageOneofFieldLiteGenerator17GenerateVisitCodeEPNS0_2io7PrinterE T
_ZNK6google8protobuf8compiler4java39ImmutableMessageOneofFieldLiteGenerator19GenerateParsingCodeEPNS0_2io7PrinterE T
_ZNK6google8protobuf8compiler4java39ImmutableMessageOneofFieldLiteGenerator22GenerateBuilderMembersEPNS0_2io7PrinterE T
_ZNK6google8protobuf8compiler4java39ImmutableMessageOneofFieldLiteGenerator25GenerateSerializationCodeEPNS0_2io7PrinterE T
_ZNK6google8protobuf8compiler4java39ImmutableMessageOneofFieldLiteGenerator26GenerateSerializedSizeCodeEPNS0_2io7PrinterE T
_ZNK6google8protobuf8compiler4java39RepeatedImmutableEnumFieldLiteGenerator12GetBoxedTypeB5cxx11Ev T
_ZNK6google8protobuf8compiler4java39RepeatedImmutableEnumFieldLiteGenerator15GenerateMembersEPNS0_2io7PrinterE T
_ZNK6google8protobuf8compiler4java39RepeatedImmutableEnumFieldLiteGenerator16GenerateHashCodeEPNS0_2io7PrinterE T
_ZNK6google8protobuf8compiler4java39RepeatedImmutableEnumFieldLiteGenerator17GenerateVisitCodeEPNS0_2io7PrinterE T
_ZNK6google8protobuf8compiler4java39RepeatedImmutableEnumFieldLiteGenerator18GenerateEqualsCodeEPNS0_2io7PrinterE T
_ZNK6google8protobuf8compiler4java39RepeatedImmutableEnumFieldLiteGenerator19GenerateParsingCodeEPNS0_2io7PrinterE T
_ZNK6google8protobuf8compiler4java39RepeatedImmutableEnumFieldLiteGenerator20GetNumBitsForBuilderEv T
_ZNK6google8protobuf8compiler4java39RepeatedImmutableEnumFieldLiteGenerator20GetNumBitsForMessageEv T
_ZNK6google8protobuf8compiler4java39RepeatedImmutableEnumFieldLiteGenerator22GenerateBuilderMembersEPNS0_2io7PrinterE T
_ZNK6google8protobuf8compiler4java39RepeatedImmutableEnumFieldLiteGenerator23GenerateParsingDoneCodeEPNS0_2io7PrinterE T
_ZNK6google8protobuf8compiler4java39RepeatedImmutableEnumFieldLiteGenerator24GenerateInterfaceMembersEPNS0_2io7PrinterE T
_ZNK6google8protobuf8compiler4java39RepeatedImmutableEnumFieldLiteGenerator25GenerateSerializationCodeEPNS0_2io7PrinterE T
_ZNK6google8protobuf8compiler4java39RepeatedImmutableEnumFieldLiteGenerator26GenerateInitializationCodeEPNS0_2io7PrinterE T
_ZNK6google8protobuf8compiler4java39RepeatedImmutableEnumFieldLiteGenerator26GenerateSerializedSizeCodeEPNS0_2io7PrinterE T
_ZNK6google8protobuf8compiler4java39RepeatedImmutableEnumFieldLiteGenerator29GenerateParsingCodeFromPackedEPNS0_2io7PrinterE T
_ZNK6google8protobuf8compiler4java39RepeatedImmutableEnumFieldLiteGenerator38GenerateDynamicMethodMakeImmutableCodeEPNS0_2io7PrinterE T
_ZNK6google8protobuf8compiler4java39RepeatedImmutableEnumFieldLiteGenerator38GenerateFieldBuilderInitializationCodeEPNS0_2io7PrinterE T
_ZNK6google8protobuf8compiler4java40RepeatedImmutablePrimitiveFieldGenerator12GetBoxedTypeB5cxx11Ev T
_ZNK6google8protobuf8compiler4java40RepeatedImmutablePrimitiveFieldGenerator15GenerateMembersEPNS0_2io7PrinterE T
_ZNK6google8protobuf8compiler4java40RepeatedImmutablePrimitiveFieldGenerator16GenerateHashCodeEPNS0_2io7PrinterE T
_ZNK6google8protobuf8compiler4java40RepeatedImmutablePrimitiveFieldGenerator18GenerateEqualsCodeEPNS0_2io7PrinterE T
_ZNK6google8protobuf8compiler4java40RepeatedImmutablePrimitiveFieldGenerator19GenerateMergingCodeEPNS0_2io7PrinterE T
_ZNK6google8protobuf8compiler4java40RepeatedImmutablePrimitiveFieldGenerator19GenerateParsingCodeEPNS0_2io7PrinterE T
_ZNK6google8protobuf8compiler4java40RepeatedImmutablePrimitiveFieldGenerator20GenerateBuildingCodeEPNS0_2io7PrinterE T
_ZNK6google8protobuf8compiler4java40RepeatedImmutablePrimitiveFieldGenerator20GetNumBitsForBuilderEv T
_ZNK6google8protobuf8compiler4java40RepeatedImmutablePrimitiveFieldGenerator20GetNumBitsForMessageEv T
_ZNK6google8protobuf8compiler4java40RepeatedImmutablePrimitiveFieldGenerator22GenerateBuilderMembersEPNS0_2io7PrinterE T
_ZNK6google8protobuf8compiler4java40RepeatedImmutablePrimitiveFieldGenerator23GenerateParsingDoneCodeEPNS0_2io7PrinterE T
_ZNK6google8protobuf8compiler4java40RepeatedImmutablePrimitiveFieldGenerator24GenerateBuilderClearCodeEPNS0_2io7PrinterE T
_ZNK6google8protobuf8compiler4java40RepeatedImmutablePrimitiveFieldGenerator24GenerateInterfaceMembersEPNS0_2io7PrinterE T
_ZNK6google8protobuf8compiler4java40RepeatedImmutablePrimitiveFieldGenerator25GenerateSerializationCodeEPNS0_2io7PrinterE T
_ZNK6google8protobuf8compiler4java40RepeatedImmutablePrimitiveFieldGenerator26GenerateInitializationCodeEPNS0_2io7PrinterE T
_ZNK6google8protobuf8compiler4java40RepeatedImmutablePrimitiveFieldGenerator26GenerateSerializedSizeCodeEPNS0_2io7PrinterE T
_ZNK6google8protobuf8compiler4java40RepeatedImmutablePrimitiveFieldGenerator29GenerateParsingCodeFromPackedEPNS0_2io7PrinterE T
_ZNK6google8protobuf8compiler4java40RepeatedImmutablePrimitiveFieldGenerator38GenerateFieldBuilderInitializationCodeEPNS0_2io7PrinterE T
_ZNK6google8protobuf8compiler4java41ImmutablePrimitiveOneofFieldLiteGenerator15GenerateMembersEPNS0_2io7PrinterE T
_ZNK6google8protobuf8compiler4java41ImmutablePrimitiveOneofFieldLiteGenerator17GenerateVisitCodeEPNS0_2io7PrinterE T
_ZNK6google8protobuf8compiler4java41ImmutablePrimitiveOneofFieldLiteGenerator19GenerateParsingCodeEPNS0_2io7PrinterE T
_ZNK6google8protobuf8compiler4java41ImmutablePrimitiveOneofFieldLiteGenerator20GenerateBuildingCodeEPNS0_2io7PrinterE T
_ZNK6google8protobuf8compiler4java41ImmutablePrimitiveOneofFieldLiteGenerator22GenerateBuilderMembersEPNS0_2io7PrinterE T
_ZNK6google8protobuf8compiler4java41ImmutablePrimitiveOneofFieldLiteGenerator25GenerateSerializationCodeEPNS0_2io7PrinterE T
_ZNK6google8protobuf8compiler4java41ImmutablePrimitiveOneofFieldLiteGenerator26GenerateSerializedSizeCodeEPNS0_2io7PrinterE T
_ZNK6google8protobuf8compiler4java41RepeatedImmutableStringFieldLiteGenerator12GetBoxedTypeB5cxx11Ev T
_ZNK6google8protobuf8compiler4java41RepeatedImmutableStringFieldLiteGenerator15GenerateMembersEPNS0_2io7PrinterE T
_ZNK6google8protobuf8compiler4java41RepeatedImmutableStringFieldLiteGenerator16GenerateHashCodeEPNS0_2io7PrinterE T
_ZNK6google8protobuf8compiler4java41RepeatedImmutableStringFieldLiteGenerator17GenerateVisitCodeEPNS0_2io7PrinterE T
_ZNK6google8protobuf8compiler4java41RepeatedImmutableStringFieldLiteGenerator18GenerateEqualsCodeEPNS0_2io7PrinterE T
_ZNK6google8protobuf8compiler4java41RepeatedImmutableStringFieldLiteGenerator19GenerateParsingCodeEPNS0_2io7PrinterE T
_ZNK6google8protobuf8compiler4java41RepeatedImmutableStringFieldLiteGenerator20GetNumBitsForBuilderEv T
_ZNK6google8protobuf8compiler4java41RepeatedImmutableStringFieldLiteGenerator20GetNumBitsForMessageEv T
_ZNK6google8protobuf8compiler4java41RepeatedImmutableStringFieldLiteGenerator22GenerateBuilderMembersEPNS0_2io7PrinterE T
_ZNK6google8protobuf8compiler4java41RepeatedImmutableStringFieldLiteGenerator23GenerateParsingDoneCodeEPNS0_2io7PrinterE T
_ZNK6google8protobuf8compiler4java41RepeatedImmutableStringFieldLiteGenerator24GenerateInterfaceMembersEPNS0_2io7PrinterE T
_ZNK6google8protobuf8compiler4java41RepeatedImmutableStringFieldLiteGenerator25GenerateSerializationCodeEPNS0_2io7PrinterE T
_ZNK6google8protobuf8compiler4java41RepeatedImmutableStringFieldLiteGenerator26GenerateInitializationCodeEPNS0_2io7PrinterE T
_ZNK6google8protobuf8compiler4java41RepeatedImmutableStringFieldLiteGenerator26GenerateSerializedSizeCodeEPNS0_2io7PrinterE T
_ZNK6google8protobuf8compiler4java41RepeatedImmutableStringFieldLiteGenerator38GenerateDynamicMethodMakeImmutableCodeEPNS0_2io7PrinterE T
_ZNK6google8protobuf8compiler4java41RepeatedImmutableStringFieldLiteGenerator38GenerateFieldBuilderInitializationCodeEPNS0_2io7PrinterE T
_ZNK6google8protobuf8compiler4java42RepeatedImmutableLazyMessageFieldGenerator15GenerateMembersEPNS0_2io7PrinterE T
_ZNK6google8protobuf8compiler4java42RepeatedImmutableLazyMessageFieldGenerator19GenerateParsingCodeEPNS0_2io7PrinterE T
_ZNK6google8protobuf8compiler4java42RepeatedImmutableLazyMessageFieldGenerator22GenerateBuilderMembersEPNS0_2io7PrinterE T
_ZNK6google8protobuf8compiler4java42RepeatedImmutableLazyMessageFieldGenerator25GenerateSerializationCodeEPNS0_2io7PrinterE T
_ZNK6google8protobuf8compiler4java42RepeatedImmutableLazyMessageFieldGenerator26GenerateSerializedSizeCodeEPNS0_2io7PrinterE T
_ZNK6google8protobuf8compiler4java42RepeatedImmutableMessageFieldLiteGenerator12GetBoxedTypeB5cxx11Ev T
_ZNK6google8protobuf8compiler4java42RepeatedImmutableMessageFieldLiteGenerator15GenerateMembersEPNS0_2io7PrinterE T
_ZNK6google8protobuf8compiler4java42RepeatedImmutableMessageFieldLiteGenerator16GenerateHashCodeEPNS0_2io7PrinterE T
_ZNK6google8protobuf8compiler4java42RepeatedImmutableMessageFieldLiteGenerator17GenerateVisitCodeEPNS0_2io7PrinterE T
_ZNK6google8protobuf8compiler4java42RepeatedImmutableMessageFieldLiteGenerator18GenerateEqualsCodeEPNS0_2io7PrinterE T
_ZNK6google8protobuf8compiler4java42RepeatedImmutableMessageFieldLiteGenerator19GenerateParsingCodeEPNS0_2io7PrinterE T
_ZNK6google8protobuf8compiler4java42RepeatedImmutableMessageFieldLiteGenerator20GetNumBitsForBuilderEv T
_ZNK6google8protobuf8compiler4java42RepeatedImmutableMessageFieldLiteGenerator20GetNumBitsForMessageEv T
_ZNK6google8protobuf8compiler4java42RepeatedImmutableMessageFieldLiteGenerator22GenerateBuilderMembersEPNS0_2io7PrinterE T
_ZNK6google8protobuf8compiler4java42RepeatedImmutableMessageFieldLiteGenerator23GenerateParsingDoneCodeEPNS0_2io7PrinterE T
_ZNK6google8protobuf8compiler4java42RepeatedImmutableMessageFieldLiteGenerator24GenerateInterfaceMembersEPNS0_2io7PrinterE T
_ZNK6google8protobuf8compiler4java42RepeatedImmutableMessageFieldLiteGenerator25GenerateSerializationCodeEPNS0_2io7PrinterE T
_ZNK6google8protobuf8compiler4java42RepeatedImmutableMessageFieldLiteGenerator26GenerateInitializationCodeEPNS0_2io7PrinterE T
_ZNK6google8protobuf8compiler4java42RepeatedImmutableMessageFieldLiteGenerator26GenerateSerializedSizeCodeEPNS0_2io7PrinterE T
_ZNK6google8protobuf8compiler4java42RepeatedImmutableMessageFieldLiteGenerator38GenerateDynamicMethodMakeImmutableCodeEPNS0_2io7PrinterE T
_ZNK6google8protobuf8compiler4java42RepeatedImmutableMessageFieldLiteGenerator38GenerateFieldBuilderInitializationCodeEPNS0_2io7PrinterE T
_ZNK6google8protobuf8compiler4java43ImmutableLazyMessageOneofFieldLiteGenerator15GenerateMembersEPNS0_2io7PrinterE T
_ZNK6google8protobuf8compiler4java43ImmutableLazyMessageOneofFieldLiteGenerator17GenerateVisitCodeEPNS0_2io7PrinterE T
_ZNK6google8protobuf8compiler4java43ImmutableLazyMessageOneofFieldLiteGenerator19GenerateParsingCodeEPNS0_2io7PrinterE T
_ZNK6google8protobuf8compiler4java43ImmutableLazyMessageOneofFieldLiteGenerator22GenerateBuilderMembersEPNS0_2io7PrinterE T
_ZNK6google8protobuf8compiler4java43ImmutableLazyMessageOneofFieldLiteGenerator25GenerateSerializationCodeEPNS0_2io7PrinterE T
_ZNK6google8protobuf8compiler4java43ImmutableLazyMessageOneofFieldLiteGenerator26GenerateSerializedSizeCodeEPNS0_2io7PrinterE T
_ZNK6google8protobuf8compiler4java44RepeatedImmutablePrimitiveFieldLiteGenerator12GetBoxedTypeB5cxx11Ev T
_ZNK6google8protobuf8compiler4java44RepeatedImmutablePrimitiveFieldLiteGenerator15GenerateMembersEPNS0_2io7PrinterE T
_ZNK6google8protobuf8compiler4java44RepeatedImmutablePrimitiveFieldLiteGenerator16GenerateHashCodeEPNS0_2io7PrinterE T
_ZNK6google8protobuf8compiler4java44RepeatedImmutablePrimitiveFieldLiteGenerator17GenerateVisitCodeEPNS0_2io7PrinterE T
_ZNK6google8protobuf8compiler4java44RepeatedImmutablePrimitiveFieldLiteGenerator18GenerateEqualsCodeEPNS0_2io7PrinterE T
_ZNK6google8protobuf8compiler4java44RepeatedImmutablePrimitiveFieldLiteGenerator19GenerateParsingCodeEPNS0_2io7PrinterE T
_ZNK6google8protobuf8compiler4java44RepeatedImmutablePrimitiveFieldLiteGenerator20GenerateBuildingCodeEPNS0_2io7PrinterE T
_ZNK6google8protobuf8compiler4java44RepeatedImmutablePrimitiveFieldLiteGenerator20GetNumBitsForBuilderEv T
_ZNK6google8protobuf8compiler4java44RepeatedImmutablePrimitiveFieldLiteGenerator20GetNumBitsForMessageEv T
_ZNK6google8protobuf8compiler4java44RepeatedImmutablePrimitiveFieldLiteGenerator22GenerateBuilderMembersEPNS0_2io7PrinterE T
_ZNK6google8protobuf8compiler4java44RepeatedImmutablePrimitiveFieldLiteGenerator23GenerateParsingDoneCodeEPNS0_2io7PrinterE T
_ZNK6google8protobuf8compiler4java44RepeatedImmutablePrimitiveFieldLiteGenerator24GenerateBuilderClearCodeEPNS0_2io7PrinterE T
_ZNK6google8protobuf8compiler4java44RepeatedImmutablePrimitiveFieldLiteGenerator24GenerateInterfaceMembersEPNS0_2io7PrinterE T
_ZNK6google8protobuf8compiler4java44RepeatedImmutablePrimitiveFieldLiteGenerator25GenerateSerializationCodeEPNS0_2io7PrinterE T
_ZNK6google8protobuf8compiler4java44RepeatedImmutablePrimitiveFieldLiteGenerator26GenerateInitializationCodeEPNS0_2io7PrinterE T
_ZNK6google8protobuf8compiler4java44RepeatedImmutablePrimitiveFieldLiteGenerator26GenerateSerializedSizeCodeEPNS0_2io7PrinterE T
_ZNK6google8protobuf8compiler4java44RepeatedImmutablePrimitiveFieldLiteGenerator29GenerateParsingCodeFromPackedEPNS0_2io7PrinterE T
_ZNK6google8protobuf8compiler4java44RepeatedImmutablePrimitiveFieldLiteGenerator38GenerateDynamicMethodMakeImmutableCodeEPNS0_2io7PrinterE T
_ZNK6google8protobuf8compiler4java44RepeatedImmutablePrimitiveFieldLiteGenerator38GenerateFieldBuilderInitializationCodeEPNS0_2io7PrinterE T
_ZNK6google8protobuf8compiler4java46RepeatedImmutableLazyMessageFieldLiteGenerator15GenerateMembersEPNS0_2io7PrinterE T
_ZNK6google8protobuf8compiler4java46RepeatedImmutableLazyMessageFieldLiteGenerator19GenerateParsingCodeEPNS0_2io7PrinterE T
_ZNK6google8protobuf8compiler4java46RepeatedImmutableLazyMessageFieldLiteGenerator22GenerateBuilderMembersEPNS0_2io7PrinterE T
_ZNK6google8protobuf8compiler4java46RepeatedImmutableLazyMessageFieldLiteGenerator25GenerateSerializationCodeEPNS0_2io7PrinterE T
_ZNK6google8protobuf8compiler4java46RepeatedImmutableLazyMessageFieldLiteGenerator26GenerateSerializedSizeCodeEPNS0_2io7PrinterE T
_ZNK6google8protobuf8compiler4java7Context15GetNameResolverEv T
_ZNK6google8protobuf8compiler4java7Context19HasGeneratedMethodsEPKNS0_10DescriptorE T
_ZNK6google8protobuf8compiler4java7Context21GetFieldGeneratorInfoEPKNS0_15FieldDescriptorE T
_ZNK6google8protobuf8compiler4java7Context21GetOneofGeneratorInfoEPKNS0_15OneofDescriptorE T
_ZNK6google8protobuf8compiler4ruby9Generator8GenerateEPKNS0_14FileDescriptorERKNSt7__cxx1112basic_stringIcSt11char_traitsIcESaIcEEEPNS1_16GeneratorContextEPSC_ T
_ZNK6google8protobuf8compiler6csharp9Generator8GenerateEPKNS0_14FileDescriptorERKNSt7__cxx1112basic_stringIcSt11char_traitsIcESaIcEEEPNS1_16GeneratorContextEPSC_ T
_ZNK6google8protobuf8compiler6python9Generator12OptionsValueERKNSt7__cxx1112basic_stringIcSt11char_traitsIcESaIcEEESB_ T
_ZNK6google8protobuf8compiler6python9Generator12PrintImportsEv T
_ZNK6google8protobuf8compiler6python9Generator12PrintMessageERKNS0_10DescriptorERKNSt7__cxx1112basic_stringIcSt11char_traitsIcESaIcEEEPSt6vectorISC_SaISC_EE T
_ZNK6google8protobuf8compiler6python9Generator13PrintMessagesEv T
_ZNK6google8protobuf8compiler6python9Generator13PrintServicesEv T
_ZNK6google8protobuf8compiler6python9Generator15PrintDescriptorERKNS0_10DescriptorE T
_ZNK6google8protobuf8compiler6python9Generator16PrintNestedEnumsERKNS0_10DescriptorE T
_ZNK6google8protobuf8compiler6python9Generator16PrintServiceStubERKNS0_17ServiceDescriptorE T
_ZNK6google8protobuf8compiler6python9Generator17FixOptionsForEnumERKNS0_14EnumDescriptorE T
_ZNK6google8protobuf8compiler6python9Generator17PrintServiceClassERKNS0_17ServiceDescriptorE T
_ZNK6google8protobuf8compiler6python9Generator18FixOptionsForFieldERKNS0_15FieldDescriptorE T
_ZNK6google8protobuf8compiler6python9Generator18FixOptionsForOneofERKNS0_15OneofDescriptorE T
_ZNK6google8protobuf8compiler6python9Generator18PrintTopLevelEnumsEv T
_ZNK6google8protobuf8compiler6python9Generator19PrintFileDescriptorEv T
_ZNK6google8protobuf8compiler6python9Generator19PrintNestedMessagesERKNS0_10DescriptorERKNSt7__cxx1112basic_stringIcSt11char_traitsIcESaIcEEEPSt6vectorISC_SaISC_EE T
_ZNK6google8protobuf8compiler6python9Generator20FixOptionsForMessageERKNS0_10DescriptorE T
_ZNK6google8protobuf8compiler6python9Generator20PrintFieldDescriptorERKNS0_15FieldDescriptorEb T
_ZNK6google8protobuf8compiler6python9Generator22ModuleLevelMessageNameB5cxx11ERKNS0_10DescriptorE T
_ZNK6google8protobuf8compiler6python9Generator22PrintNestedDescriptorsERKNS0_10DescriptorE T
_ZNK6google8protobuf8compiler6python9Generator22PrintServiceDescriptorERKNS0_17ServiceDescriptorE T
_ZNK6google8protobuf8compiler6python9Generator23AddEnumToFileDescriptorERKNS0_14EnumDescriptorE T
_ZNK6google8protobuf8compiler6python9Generator23FixAllDescriptorOptionsEv T
_ZNK6google8protobuf8compiler6python9Generator23FixForeignFieldsInFieldEPKNS0_10DescriptorERKNS0_15FieldDescriptorERKNSt7__cxx1112basic_stringIcSt11char_traitsIcESaIcEEE T
_ZNK6google8protobuf8compiler6python9Generator23PrintFieldsInDescriptorERKNS0_10DescriptorE T
_ZNK6google8protobuf8compiler6python9Generator23PrintMessageDescriptorsEv T
_ZNK6google8protobuf8compiler6python9Generator23PrintServiceDescriptorsEv T
_ZNK6google8protobuf8compiler6python9Generator23PrintTopLevelExtensionsEv T
_ZNK6google8protobuf8compiler6python9Generator24PrintEnumValueDescriptorERKNS0_19EnumValueDescriptorE T
_ZNK6google8protobuf8compiler6python9Generator25GeneratingDescriptorProtoEv T
_ZNK6google8protobuf8compiler6python9Generator25ModuleLevelDescriptorNameINS0_10DescriptorEEENSt7__cxx1112basic_stringIcSt11char_traitsIcESaIcEEERKT_ W
_ZNK6google8protobuf8compiler6python9Generator25ModuleLevelDescriptorNameINS0_14EnumDescriptorEEENSt7__cxx1112basic_stringIcSt11char_traitsIcESaIcEEERKT_ W
_ZNK6google8protobuf8compiler6python9Generator25PrintAllNestedEnumsInFileEv T
_ZNK6google8protobuf8compiler6python9Generator25PrintSerializedPbIntervalINS0_10DescriptorENS0_15DescriptorProtoEEEvRKT_RT0_ W
_ZNK6google8protobuf8compiler6python9Generator25PrintSerializedPbIntervalINS0_14EnumDescriptorENS0_19EnumDescriptorProtoEEEvRKT_RT0_ W
_ZNK6google8protobuf8compiler6python9Generator25PrintSerializedPbIntervalINS0_17ServiceDescriptorENS0_22ServiceDescriptorProtoEEEvRKT_RT0_ W
_ZNK6google8protobuf8compiler6python9Generator26AddMessageToFileDescriptorERKNS0_10DescriptorE T
_ZNK6google8protobuf8compiler6python9Generator26AddServiceToFileDescriptorERKNS0_17ServiceDescriptorE T
_ZNK6google8protobuf8compiler6python9Generator26FieldReferencingExpressionEPKNS0_10DescriptorERKNS0_15FieldDescriptorERKNSt7__cxx1112basic_stringIcSt11char_traitsIcESaIcEEE T
_ZNK6google8protobuf8compiler6python9Generator27FixForeignFieldsInExtensionERKNS0_15FieldDescriptorE T
_ZNK6google8protobuf8compiler6python9Generator27PrintExtensionsInDescriptorERKNS0_10DescriptorE T
_ZNK6google8protobuf8compiler6python9Generator28AddExtensionToFileDescriptorERKNS0_15FieldDescriptorE T
_ZNK6google8protobuf8compiler6python9Generator28FixForeignFieldsInDescriptorERKNS0_10DescriptorEPS5_ T
_ZNK6google8protobuf8compiler6python9Generator28FixForeignFieldsInExtensionsEv T
_ZNK6google8protobuf8compiler6python9Generator29CopyPublicDependenciesAliasesERKNSt7__cxx1112basic_stringIcSt11char_traitsIcESaIcEEEPKNS0_14FileDescriptorE T
_ZNK6google8protobuf8compiler6python9Generator29FixContainingTypeInDescriptorINS0_10DescriptorEEEvRKT_PKS5_ W
_ZNK6google8protobuf8compiler6python9Generator29FixContainingTypeInDescriptorINS0_14EnumDescriptorEEEvRKT_PKNS0_10DescriptorE W
_ZNK6google8protobuf8compiler6python9Generator29FixForeignFieldsInDescriptorsEv T
_ZNK6google8protobuf8compiler6python9Generator31PrintDescriptorKeyAndModuleNameERKNS0_17ServiceDescriptorE T
_ZNK6google8protobuf8compiler6python9Generator32ModuleLevelServiceDescriptorNameB5cxx11ERKNS0_17ServiceDescriptorE T
_ZNK6google8protobuf8compiler6python9Generator33PrintFieldDescriptorsInDescriptorERKNS0_10DescriptorEbRKNSt7__cxx1112basic_stringIcSt11char_traitsIcESaIcEEEMS4_KFivEMS4_KFPKNS0_15FieldDescriptorEiE T
_ZNK6google8protobuf8compiler6python9Generator34FixForeignFieldsInNestedExtensionsERKNS0_10DescriptorE T
_ZNK6google8protobuf8compiler6python9Generator8GenerateEPKNS0_14FileDescriptorERKNSt7__cxx1112basic_stringIcSt11char_traitsIcESaIcEEEPNS1_16GeneratorContextEPSC_ T
_ZNK6google8protobuf8compiler6python9Generator9PrintEnumERKNS0_14EnumDescriptorE T
_ZNK6google8protobuf8compiler7Version11GetMetadataEv T
_ZNK6google8protobuf8compiler7Version12ByteSizeLongEv T
_ZNK6google8protobuf8compiler7Version13GetCachedSizeEv W
_ZNK6google8protobuf8compiler7Version13IsInitializedEv T
_ZNK6google8protobuf8compiler7Version13SetCachedSizeEi T
_ZNK6google8protobuf8compiler7Version24SerializeWithCachedSizesEPNS0_2io17CodedOutputStreamE T
_ZNK6google8protobuf8compiler7Version39InternalSerializeWithCachedSizesToArrayEbPh T
_ZNK6google8protobuf8compiler7Version3NewEPNS0_5ArenaE T
_ZNK6google8protobuf8compiler7Version3NewEv W
_ZNK6google8protobuf8compiler8javanano14FieldGenerator18SavedDefaultNeededEv T
_ZNK6google8protobuf8compiler8javanano14FieldGenerator21GenerateFixClonedCodeEPNS0_2io7PrinterE W
_ZNK6google8protobuf8compiler8javanano14FieldGenerator28GenerateInitSavedDefaultCodeEPNS0_2io7PrinterE T
_ZNK6google8protobuf8compiler8javanano14FieldGenerator29GenerateMergingCodeFromPackedEPNS0_2io7PrinterE T
_ZNK6google8protobuf8compiler8javanano17FieldGeneratorMap3getEPKNS0_15FieldDescriptorE T
_ZNK6google8protobuf8compiler8javanano17JavaNanoGenerator8GenerateEPKNS0_14FileDescriptorERKNSt7__cxx1112basic_stringIcSt11char_traitsIcESaIcEEEPNS1_16GeneratorContextEPSC_ T
_ZNK6google8protobuf8compiler8javanano17MapFieldGenerator15GenerateMembersEPNS0_2io7PrinterEb T
_ZNK6google8protobuf8compiler8javanano17MapFieldGenerator17GenerateClearCodeEPNS0_2io7PrinterE T
_ZNK6google8protobuf8compiler8javanano17MapFieldGenerator18GenerateEqualsCodeEPNS0_2io7PrinterE T
_ZNK6google8protobuf8compiler8javanano17MapFieldGenerator19GenerateMergingCodeEPNS0_2io7PrinterE T
_ZNK6google8protobuf8compiler8javanano17MapFieldGenerator20GenerateHashCodeCodeEPNS0_2io7PrinterE T
_ZNK6google8protobuf8compiler8javanano17MapFieldGenerator25GenerateSerializationCodeEPNS0_2io7PrinterE T
_ZNK6google8protobuf8compiler8javanano17MapFieldGenerator26GenerateSerializedSizeCodeEPNS0_2io7PrinterE T
_ZNK6google8protobuf8compiler8javanano18EnumFieldGenerator15GenerateMembersEPNS0_2io7PrinterEb T
_ZNK6google8protobuf8compiler8javanano18EnumFieldGenerator17GenerateClearCodeEPNS0_2io7PrinterE T
_ZNK6google8protobuf8compiler8javanano18EnumFieldGenerator18GenerateEqualsCodeEPNS0_2io7PrinterE T
_ZNK6google8protobuf8compiler8javanano18EnumFieldGenerator19GenerateMergingCodeEPNS0_2io7PrinterE T
_ZNK6google8protobuf8compiler8javanano18EnumFieldGenerator20GenerateHashCodeCodeEPNS0_2io7PrinterE T
_ZNK6google8protobuf8compiler8javanano18EnumFieldGenerator25GenerateSerializationCodeEPNS0_2io7PrinterE T
_ZNK6google8protobuf8compiler8javanano18EnumFieldGenerator26GenerateSerializedSizeCodeEPNS0_2io7PrinterE T
_ZNK6google8protobuf8compiler8javanano18ExtensionGenerator8GenerateEPNS0_2io7PrinterE T
_ZNK6google8protobuf8compiler8javanano21MessageFieldGenerator15GenerateMembersEPNS0_2io7PrinterEb T
_ZNK6google8protobuf8compiler8javanano21MessageFieldGenerator17GenerateClearCodeEPNS0_2io7PrinterE T
_ZNK6google8protobuf8compiler8javanano21MessageFieldGenerator18GenerateEqualsCodeEPNS0_2io7PrinterE T
_ZNK6google8protobuf8compiler8javanano21MessageFieldGenerator19GenerateMergingCodeEPNS0_2io7PrinterE T
_ZNK6google8protobuf8compiler8javanano21MessageFieldGenerator20GenerateHashCodeCodeEPNS0_2io7PrinterE T
_ZNK6google8protobuf8compiler8javanano21MessageFieldGenerator21GenerateFixClonedCodeEPNS0_2io7PrinterE T
_ZNK6google8protobuf8compiler8javanano21MessageFieldGenerator25GenerateSerializationCodeEPNS0_2io7PrinterE T
_ZNK6google8protobuf8compiler8javanano21MessageFieldGenerator26GenerateSerializedSizeCodeEPNS0_2io7PrinterE T
_ZNK6google8protobuf8compiler8javanano23PrimitiveFieldGenerator15GenerateMembersEPNS0_2io7PrinterEb T
_ZNK6google8protobuf8compiler8javanano23PrimitiveFieldGenerator17GenerateClearCodeEPNS0_2io7PrinterE T
_ZNK6google8protobuf8compiler8javanano23PrimitiveFieldGenerator18GenerateEqualsCodeEPNS0_2io7PrinterE T
_ZNK6google8protobuf8compiler8javanano23PrimitiveFieldGenerator18SavedDefaultNeededEv T
_ZNK6google8protobuf8compiler8javanano23PrimitiveFieldGenerator19GenerateMergingCodeEPNS0_2io7PrinterE T
_ZNK6google8protobuf8compiler8javanano23PrimitiveFieldGenerator20GenerateHashCodeCodeEPNS0_2io7PrinterE T
_ZNK6google8protobuf8compiler8javanano23PrimitiveFieldGenerator25GenerateSerializationCodeEPNS0_2io7PrinterE T
_ZNK6google8protobuf8compiler8javanano23PrimitiveFieldGenerator26GenerateSerializedSizeCodeEPNS0_2io7PrinterE T
_ZNK6google8protobuf8compiler8javanano23PrimitiveFieldGenerator28GenerateInitSavedDefaultCodeEPNS0_2io7PrinterE T
_ZNK6google8protobuf8compiler8javanano23PrimitiveFieldGenerator32GenerateSerializationConditionalEPNS0_2io7PrinterE T
_ZNK6google8protobuf8compiler8javanano26AccessorEnumFieldGenerator15GenerateMembersEPNS0_2io7PrinterEb T
_ZNK6google8protobuf8compiler8javanano26AccessorEnumFieldGenerator17GenerateClearCodeEPNS0_2io7PrinterE T
_ZNK6google8protobuf8compiler8javanano26AccessorEnumFieldGenerator18GenerateEqualsCodeEPNS0_2io7PrinterE T
_ZNK6google8protobuf8compiler8javanano26AccessorEnumFieldGenerator19GenerateMergingCodeEPNS0_2io7PrinterE T
_ZNK6google8protobuf8compiler8javanano26AccessorEnumFieldGenerator20GenerateHashCodeCodeEPNS0_2io7PrinterE T
_ZNK6google8protobuf8compiler8javanano26AccessorEnumFieldGenerator25GenerateSerializationCodeEPNS0_2io7PrinterE T
_ZNK6google8protobuf8compiler8javanano26AccessorEnumFieldGenerator26GenerateSerializedSizeCodeEPNS0_2io7PrinterE T
_ZNK6google8protobuf8compiler8javanano26MessageOneofFieldGenerator15GenerateMembersEPNS0_2io7PrinterEb T
_ZNK6google8protobuf8compiler8javanano26MessageOneofFieldGenerator17GenerateClearCodeEPNS0_2io7PrinterE T
_ZNK6google8protobuf8compiler8javanano26MessageOneofFieldGenerator18GenerateEqualsCodeEPNS0_2io7PrinterE T
_ZNK6google8protobuf8compiler8javanano26MessageOneofFieldGenerator19GenerateMergingCodeEPNS0_2io7PrinterE T
_ZNK6google8protobuf8compiler8javanano26MessageOneofFieldGenerator20GenerateHashCodeCodeEPNS0_2io7PrinterE T
_ZNK6google8protobuf8compiler8javanano26MessageOneofFieldGenerator21GenerateFixClonedCodeEPNS0_2io7PrinterE T
_ZNK6google8protobuf8compiler8javanano26MessageOneofFieldGenerator25GenerateSerializationCodeEPNS0_2io7PrinterE T
_ZNK6google8protobuf8compiler8javanano26MessageOneofFieldGenerator26GenerateSerializedSizeCodeEPNS0_2io7PrinterE T
_ZNK6google8protobuf8compiler8javanano26RepeatedEnumFieldGenerator15GenerateMembersEPNS0_2io7PrinterEb T
_ZNK6google8protobuf8compiler8javanano26RepeatedEnumFieldGenerator17GenerateClearCodeEPNS0_2io7PrinterE T
_ZNK6google8protobuf8compiler8javanano26RepeatedEnumFieldGenerator18GenerateEqualsCodeEPNS0_2io7PrinterE T
_ZNK6google8protobuf8compiler8javanano26RepeatedEnumFieldGenerator19GenerateMergingCodeEPNS0_2io7PrinterE T
_ZNK6google8protobuf8compiler8javanano26RepeatedEnumFieldGenerator20GenerateHashCodeCodeEPNS0_2io7PrinterE T
_ZNK6google8protobuf8compiler8javanano26RepeatedEnumFieldGenerator21GenerateFixClonedCodeEPNS0_2io7PrinterE T
_ZNK6google8protobuf8compiler8javanano26RepeatedEnumFieldGenerator25GenerateSerializationCodeEPNS0_2io7PrinterE T
_ZNK6google8protobuf8compiler8javanano26RepeatedEnumFieldGenerator26GenerateSerializedSizeCodeEPNS0_2io7PrinterE T
_ZNK6google8protobuf8compiler8javanano26RepeatedEnumFieldGenerator28GenerateRepeatedDataSizeCodeEPNS0_2io7PrinterE T
_ZNK6google8protobuf8compiler8javanano26RepeatedEnumFieldGenerator29GenerateMergingCodeFromPackedEPNS0_2io7PrinterE T
_ZNK6google8protobuf8compiler8javanano28PrimitiveOneofFieldGenerator15GenerateMembersEPNS0_2io7PrinterEb T
_ZNK6google8protobuf8compiler8javanano28PrimitiveOneofFieldGenerator17GenerateClearCodeEPNS0_2io7PrinterE T
_ZNK6google8protobuf8compiler8javanano28PrimitiveOneofFieldGenerator18GenerateEqualsCodeEPNS0_2io7PrinterE T
_ZNK6google8protobuf8compiler8javanano28PrimitiveOneofFieldGenerator19GenerateMergingCodeEPNS0_2io7PrinterE T
_ZNK6google8protobuf8compiler8javanano28PrimitiveOneofFieldGenerator20GenerateHashCodeCodeEPNS0_2io7PrinterE T
_ZNK6google8protobuf8compiler8javanano28PrimitiveOneofFieldGenerator25GenerateSerializationCodeEPNS0_2io7PrinterE T
_ZNK6google8protobuf8compiler8javanano28PrimitiveOneofFieldGenerator26GenerateSerializedSizeCodeEPNS0_2io7PrinterE T
_ZNK6google8protobuf8compiler8javanano29RepeatedMessageFieldGenerator15GenerateMembersEPNS0_2io7PrinterEb T
_ZNK6google8protobuf8compiler8javanano29RepeatedMessageFieldGenerator17GenerateClearCodeEPNS0_2io7PrinterE T
_ZNK6google8protobuf8compiler8javanano29RepeatedMessageFieldGenerator18GenerateEqualsCodeEPNS0_2io7PrinterE T
_ZNK6google8protobuf8compiler8javanano29RepeatedMessageFieldGenerator19GenerateMergingCodeEPNS0_2io7PrinterE T
_ZNK6google8protobuf8compiler8javanano29RepeatedMessageFieldGenerator20GenerateHashCodeCodeEPNS0_2io7PrinterE T
_ZNK6google8protobuf8compiler8javanano29RepeatedMessageFieldGenerator21GenerateFixClonedCodeEPNS0_2io7PrinterE T
_ZNK6google8protobuf8compiler8javanano29RepeatedMessageFieldGenerator25GenerateSerializationCodeEPNS0_2io7PrinterE T
_ZNK6google8protobuf8compiler8javanano29RepeatedMessageFieldGenerator26GenerateSerializedSizeCodeEPNS0_2io7PrinterE T
_ZNK6google8protobuf8compiler8javanano31AccessorPrimitiveFieldGenerator15GenerateMembersEPNS0_2io7PrinterEb T
_ZNK6google8protobuf8compiler8javanano31AccessorPrimitiveFieldGenerator17GenerateClearCodeEPNS0_2io7PrinterE T
_ZNK6google8protobuf8compiler8javanano31AccessorPrimitiveFieldGenerator18GenerateEqualsCodeEPNS0_2io7PrinterE T
_ZNK6google8protobuf8compiler8javanano31AccessorPrimitiveFieldGenerator18SavedDefaultNeededEv T
_ZNK6google8protobuf8compiler8javanano31AccessorPrimitiveFieldGenerator19GenerateMergingCodeEPNS0_2io7PrinterE T
_ZNK6google8protobuf8compiler8javanano31AccessorPrimitiveFieldGenerator20GenerateHashCodeCodeEPNS0_2io7PrinterE T
_ZNK6google8protobuf8compiler8javanano31AccessorPrimitiveFieldGenerator25GenerateSerializationCodeEPNS0_2io7PrinterE T
_ZNK6google8protobuf8compiler8javanano31AccessorPrimitiveFieldGenerator26GenerateSerializedSizeCodeEPNS0_2io7PrinterE T
_ZNK6google8protobuf8compiler8javanano31AccessorPrimitiveFieldGenerator28GenerateInitSavedDefaultCodeEPNS0_2io7PrinterE T
_ZNK6google8protobuf8compiler8javanano31RepeatedPrimitiveFieldGenerator15GenerateMembersEPNS0_2io7PrinterEb T
_ZNK6google8protobuf8compiler8javanano31RepeatedPrimitiveFieldGenerator17GenerateClearCodeEPNS0_2io7PrinterE T
_ZNK6google8protobuf8compiler8javanano31RepeatedPrimitiveFieldGenerator18GenerateEqualsCodeEPNS0_2io7PrinterE T
_ZNK6google8protobuf8compiler8javanano31RepeatedPrimitiveFieldGenerator19GenerateMergingCodeEPNS0_2io7PrinterE T
_ZNK6google8protobuf8compiler8javanano31RepeatedPrimitiveFieldGenerator20GenerateHashCodeCodeEPNS0_2io7PrinterE T
_ZNK6google8protobuf8compiler8javanano31RepeatedPrimitiveFieldGenerator21GenerateFixClonedCodeEPNS0_2io7PrinterE T
_ZNK6google8protobuf8compiler8javanano31RepeatedPrimitiveFieldGenerator25GenerateSerializationCodeEPNS0_2io7PrinterE T
_ZNK6google8protobuf8compiler8javanano31RepeatedPrimitiveFieldGenerator26GenerateSerializedSizeCodeEPNS0_2io7PrinterE T
_ZNK6google8protobuf8compiler8javanano31RepeatedPrimitiveFieldGenerator28GenerateRepeatedDataSizeCodeEPNS0_2io7PrinterE T
_ZNK6google8protobuf8compiler8javanano31RepeatedPrimitiveFieldGenerator29GenerateMergingCodeFromPackedEPNS0_2io7PrinterE T
_ZNKSt10_HashtableINSt7__cxx1112basic_stringIcSt11char_traitsIcESaIcEEES5_SaIS5_ENSt8__detail9_IdentityESt8equal_toIS5_EN6google8protobuf4hashIS5_EENS7_18_Mod_range_hashingENS7_20_Default_ranged_hashENS7_20_Prime_rehash_policyENS7_17_Hashtable_traitsILb1ELb1ELb1EEEE5countERKS5_ W
_ZNKSt5ctypeIcE8do_widenEc W
_ZNKSt8_Rb_treeINSt7__cxx1112basic_stringIcSt11char_traitsIcESaIcEEESt4pairIKS5_S5_ESt10_Select1stIS8_ESt4lessIS5_ESaIS8_EE4findERS7_ W
_ZNSt10_HashtableINSt7__cxx1112basic_stringIcSt11char_traitsIcESaIcEEESt4pairIKS5_PN6google8protobuf8compiler20CommandLineInterface20GeneratorContextImplEESaISE_ENSt8__detail10_Select1stESt8equal_toIS5_ENS9_4hashIS5_EENSG_18_Mod_range_hashingENSG_20_Default_ranged_hashENSG_20_Prime_rehash_policyENSG_17_Hashtable_traitsILb1ELb0ELb1EEEE9_M_rehashEmRKm W
_ZNSt10_HashtableINSt7__cxx1112basic_stringIcSt11char_traitsIcESaIcEEESt4pairIKS5_PN6google8protobuf8compiler20CommandLineInterface20GeneratorContextImplEESaISE_ENSt8__detail10_Select1stESt8equal_toIS5_ENS9_4hashIS5_EENSG_18_Mod_range_hashingENSG_20_Default_ranged_hashENSG_20_Prime_rehash_policyENSG_17_Hashtable_traitsILb1ELb0ELb1EEEED1Ev W
_ZNSt10_HashtableINSt7__cxx1112basic_stringIcSt11char_traitsIcESaIcEEESt4pairIKS5_PN6google8protobuf8compiler20CommandLineInterface20GeneratorContextImplEESaISE_ENSt8__detail10_Select1stESt8equal_toIS5_ENS9_4hashIS5_EENSG_18_Mod_range_hashingENSG_20_Default_ranged_hashENSG_20_Prime_rehash_policyENSG_17_Hashtable_traitsILb1ELb0ELb1EEEED2Ev W
_ZNSt10_HashtableIPKN6google8protobuf10DescriptorES4_SaIS4_ENSt8__detail9_IdentityESt8equal_toIS4_ENS1_4hashIS4_EENS6_18_Mod_range_hashingENS6_20_Default_ranged_hashENS6_20_Prime_rehash_policyENS6_17_Hashtable_traitsILb1ELb1ELb1EEEE9_M_rehashEmRKm W
_ZNSt10_HashtableIPKN6google8protobuf15FieldDescriptorESt4pairIKS4_mESaIS7_ENSt8__detail10_Select1stESt8equal_toIS4_ENS1_4hashIS4_EENS9_18_Mod_range_hashingENS9_20_Default_ranged_hashENS9_20_Prime_rehash_policyENS9_17_Hashtable_traitsILb1ELb0ELb1EEEE9_M_rehashEmRKm W
_ZNSt10_HashtableIPKN6google8protobuf15FieldDescriptorESt4pairIKS4_mESaIS7_ENSt8__detail10_Select1stESt8equal_toIS4_ENS1_4hashIS4_EENS9_18_Mod_range_hashingENS9_20_Default_ranged_hashENS9_20_Prime_rehash_policyENS9_17_Hashtable_traitsILb1ELb0ELb1EEEED1Ev W
_ZNSt10_HashtableIPKN6google8protobuf15FieldDescriptorESt4pairIKS4_mESaIS7_ENSt8__detail10_Select1stESt8equal_toIS4_ENS1_4hashIS4_EENS9_18_Mod_range_hashingENS9_20_Default_ranged_hashENS9_20_Prime_rehash_policyENS9_17_Hashtable_traitsILb1ELb0ELb1EEEED2Ev W
_ZNSt13_Bvector_baseISaIbEE13_M_deallocateEv W
_ZNSt3mapINSt7__cxx1112basic_stringIcSt11char_traitsIcESaIcEEES5_St4lessIS5_ESaISt4pairIKS5_S5_EEEixEOS5_ W
_ZNSt3mapINSt7__cxx1112basic_stringIcSt11char_traitsIcESaIcEEES5_St4lessIS5_ESaISt4pairIKS5_S5_EEEixERS9_ W
_ZNSt4pairINSt7__cxx1112basic_stringIcSt11char_traitsIcESaIcEEES5_ED1Ev W
_ZNSt4pairINSt7__cxx1112basic_stringIcSt11char_traitsIcESaIcEEES5_ED2Ev W
_ZNSt6vectorIN6google8protobuf8compiler20CommandLineInterface15OutputDirectiveESaIS4_EE17_M_realloc_insertIJRKS4_EEEvN9__gnu_cxx17__normal_iteratorIPS4_S6_EEDpOT_ W
_ZNSt6vectorIN6google8protobuf8compiler20CommandLineInterface15OutputDirectiveESaIS4_EE9push_backERKS4_ W
_ZNSt6vectorIN6google8protobuf8compiler4java13EnumGenerator5AliasESaIS5_EE17_M_realloc_insertIJRKS5_EEEvN9__gnu_cxx17__normal_iteratorIPS5_S7_EEDpOT_ W
_ZNSt6vectorIN6google8protobuf8compiler4java17EnumLiteGenerator5AliasESaIS5_EE17_M_realloc_insertIJRKS5_EEEvN9__gnu_cxx17__normal_iteratorIPS5_S7_EEDpOT_ W
_ZNSt6vectorIN6google8protobuf8compiler8javanano13EnumGenerator5AliasESaIS5_EE17_M_realloc_insertIJRKS5_EEEvN9__gnu_cxx17__normal_iteratorIPS5_S7_EEDpOT_ W
_ZNSt6vectorIN6google8protobuf8compiler9ZipWriter8FileInfoESaIS4_EE17_M_realloc_insertIJRKS4_EEEvN9__gnu_cxx17__normal_iteratorIPS4_S6_EEDpOT_ W
_ZNSt6vectorINSt7__cxx1112basic_stringIcSt11char_traitsIcESaIcEEESaIS5_EE12emplace_backIJS5_EEEvDpOT_ W
_ZNSt6vectorINSt7__cxx1112basic_stringIcSt11char_traitsIcESaIcEEESaIS5_EE17_M_realloc_insertIJRKS5_EEEvN9__gnu_cxx17__normal_iteratorIPS5_S7_EEDpOT_ W
_ZNSt6vectorINSt7__cxx1112basic_stringIcSt11char_traitsIcESaIcEEESaIS5_EE17_M_realloc_insertIJS5_EEEvN9__gnu_cxx17__normal_iteratorIPS5_S7_EEDpOT_ W
_ZNSt6vectorINSt7__cxx1112basic_stringIcSt11char_traitsIcESaIcEEESaIS5_EED1Ev W
_ZNSt6vectorINSt7__cxx1112basic_stringIcSt11char_traitsIcESaIcEEESaIS5_EED2Ev W
_ZNSt6vectorIPKN6google8protobuf10Descriptor14ExtensionRangeESaIS5_EE17_M_realloc_insertIJS5_EEEvN9__gnu_cxx17__normal_iteratorIPS5_S7_EEDpOT_ W
_ZNSt6vectorIPKN6google8protobuf10DescriptorESaIS4_EE17_M_realloc_insertIJRKS4_EEEvN9__gnu_cxx17__normal_iteratorIPS4_S6_EEDpOT_ W
_ZNSt6vectorIPKN6google8protobuf10DescriptorESaIS4_EE17_M_realloc_insertIJS4_EEEvN9__gnu_cxx17__normal_iteratorIPS4_S6_EEDpOT_ W
_ZNSt6vectorIPKN6google8protobuf14FileDescriptorESaIS4_EE17_M_realloc_insertIJRKS4_EEEvN9__gnu_cxx17__normal_iteratorIPS4_S6_EEDpOT_ W
_ZNSt6vectorIPKN6google8protobuf14FileDescriptorESaIS4_EE17_M_realloc_insertIJS4_EEEvN9__gnu_cxx17__normal_iteratorIPS4_S6_EEDpOT_ W
_ZNSt6vectorIPKN6google8protobuf15FieldDescriptorESaIS4_EE15_M_range_insertIN9__gnu_cxx17__normal_iteratorIPKS4_S6_EEEEvNS9_IPS4_S6_EET_SF_St20forward_iterator_tag W
_ZNSt6vectorIPKN6google8protobuf15FieldDescriptorESaIS4_EE15_M_range_insertIN9__gnu_cxx17__normal_iteratorIPS4_S6_EEEEvSB_T_SC_St20forward_iterator_tag W
_ZNSt6vectorIPKN6google8protobuf15FieldDescriptorESaIS4_EE17_M_realloc_insertIJRKS4_EEEvN9__gnu_cxx17__normal_iteratorIPS4_S6_EEDpOT_ W
_ZNSt6vectorIPKN6google8protobuf15FieldDescriptorESaIS4_EE17_M_realloc_insertIJS4_EEEvN9__gnu_cxx17__normal_iteratorIPS4_S6_EEDpOT_ W
_ZNSt6vectorIPKN6google8protobuf19EnumValueDescriptorESaIS4_EE17_M_realloc_insertIJRKS4_EEEvN9__gnu_cxx17__normal_iteratorIPS4_S6_EEDpOT_ W
_ZNSt6vectorIPKN6google8protobuf8compiler3cpp3SCCESaIS6_EE17_M_realloc_insertIJRKS6_EEEvN9__gnu_cxx17__normal_iteratorIPS6_S8_EEDpOT_ W
_ZNSt6vectorIPN6google8protobuf8compiler10objectivec13EnumGeneratorESaIS5_EE17_M_realloc_insertIJRKS5_EEEvN9__gnu_cxx17__normal_iteratorIPS5_S7_EEDpOT_ W
_ZNSt6vectorIPN6google8protobuf8compiler10objectivec14OneofGeneratorESaIS5_EE17_M_realloc_insertIJRKS5_EEEvN9__gnu_cxx17__normal_iteratorIPS5_S7_EEDpOT_ W
_ZNSt6vectorIPN6google8protobuf8compiler10objectivec16MessageGeneratorESaIS5_EE17_M_realloc_insertIJRKS5_EEEvN9__gnu_cxx17__normal_iteratorIPS5_S7_EEDpOT_ W
_ZNSt6vectorIPN6google8protobuf8compiler10objectivec18ExtensionGeneratorESaIS5_EE17_M_realloc_insertIJRKS5_EEEvN9__gnu_cxx17__normal_iteratorIPS5_S7_EEDpOT_ W
_ZNSt6vectorIPN6google8protobuf8compiler10objectivec18ExtensionGeneratorESaIS5_EE17_M_realloc_insertIJS5_EEEvN9__gnu_cxx17__normal_iteratorIPS5_S7_EEDpOT_ W
_ZNSt6vectorIPN6google8protobuf8compiler3cpp13EnumGeneratorESaIS5_EE17_M_realloc_insertIJS5_EEEvN9__gnu_cxx17__normal_iteratorIPS5_S7_EEDpOT_ W
_ZNSt6vectorIPN6google8protobuf8compiler3cpp16MessageGeneratorESaIS5_EE17_M_realloc_insertIJRKS5_EEEvN9__gnu_cxx17__normal_iteratorIPS5_S7_EEDpOT_ W
_ZNSt6vectorIPN6google8protobuf8compiler3cpp16ServiceGeneratorESaIS5_EE17_M_realloc_insertIJS5_EEEvN9__gnu_cxx17__normal_iteratorIPS5_S7_EEDpOT_ W
_ZNSt6vectorIPN6google8protobuf8compiler3cpp18ExtensionGeneratorESaIS5_EE17_M_realloc_insertIJS5_EEEvN9__gnu_cxx17__normal_iteratorIPS5_S7_EEDpOT_ W
_ZNSt6vectorIPN6google8protobuf8compiler3cpp3SCCESaIS5_EE17_M_realloc_insertIJS5_EEEvN9__gnu_cxx17__normal_iteratorIPS5_S7_EEDpOT_ W
_ZNSt6vectorIPN6google8protobuf8compiler4java13FileGeneratorESaIS5_EE17_M_realloc_insertIJS5_EEEvN9__gnu_cxx17__normal_iteratorIPS5_S7_EEDpOT_ W
_ZNSt6vectorISt4pairINSt7__cxx1112basic_stringIcSt11char_traitsIcESaIcEEES6_ESaIS7_EE12emplace_backIJS7_EEEvDpOT_ W
_ZNSt6vectorISt4pairINSt7__cxx1112basic_stringIcSt11char_traitsIcESaIcEEES6_ESaIS7_EE17_M_realloc_insertIJRKS7_EEEvN9__gnu_cxx17__normal_iteratorIPS7_S9_EEDpOT_ W
_ZNSt6vectorISt4pairINSt7__cxx1112basic_stringIcSt11char_traitsIcESaIcEEES6_ESaIS7_EE17_M_realloc_insertIJS7_EEEvN9__gnu_cxx17__normal_iteratorIPS7_S9_EEDpOT_ W
_ZNSt6vectorISt4pairINSt7__cxx1112basic_stringIcSt11char_traitsIcESaIcEEEiESaIS7_EE17_M_realloc_insertIJS7_EEEvN9__gnu_cxx17__normal_iteratorIPS7_S9_EEDpOT_ W
_ZNSt6vectorISt4pairIiNSt7__cxx1112basic_stringIcSt11char_traitsIcESaIcEEEESaIS7_EE17_M_realloc_insertIJS7_EEEvN9__gnu_cxx17__normal_iteratorIPS7_S9_EEDpOT_ W
_ZNSt6vectorISt4pairImmESaIS1_EE17_M_realloc_insertIJS1_EEEvN9__gnu_cxx17__normal_iteratorIPS1_S3_EEDpOT_ W
_ZNSt6vectorIiSaIiEE14_M_fill_insertEN9__gnu_cxx17__normal_iteratorIPiS1_EEmRKi W
_ZNSt6vectorIiSaIiEE17_M_realloc_insertIJRKiEEEvN9__gnu_cxx17__normal_iteratorIPiS1_EEDpOT_ W
_ZNSt6vectorImSaImEE17_M_realloc_insertIJRKmEEEvN9__gnu_cxx17__normal_iteratorIPmS1_EEDpOT_ W
_ZNSt6vectorItSaItEE17_M_realloc_insertIJtEEEvN9__gnu_cxx17__normal_iteratorIPtS1_EEDpOT_ W
_ZNSt7__cxx1112basic_stringIcSt11char_traitsIcESaIcEE12_M_constructIPKcEEvT_S8_St20forward_iterator_tag W
_ZNSt7__cxx1112basic_stringIcSt11char_traitsIcESaIcEE12_M_constructIPcEEvT_S7_St20forward_iterator_tag W
_ZNSt8_Rb_treeINSt7__cxx1112basic_stringIcSt11char_traitsIcESaIcEEES5_St9_IdentityIS5_ESt4lessIS5_ESaIS5_EE11equal_rangeERKS5_ W
_ZNSt8_Rb_treeINSt7__cxx1112basic_stringIcSt11char_traitsIcESaIcEEES5_St9_IdentityIS5_ESt4lessIS5_ESaIS5_EE16_M_insert_uniqueIRKS5_EESt4pairISt17_Rb_tree_iteratorIS5_EbEOT_ W
_ZNSt8_Rb_treeINSt7__cxx1112basic_stringIcSt11char_traitsIcESaIcEEES5_St9_IdentityIS5_ESt4lessIS5_ESaIS5_EE16_M_insert_uniqueIS5_EESt4pairISt17_Rb_tree_iteratorIS5_EbEOT_ W
_ZNSt8_Rb_treeINSt7__cxx1112basic_stringIcSt11char_traitsIcESaIcEEES5_St9_IdentityIS5_ESt4lessIS5_ESaIS5_EE17_M_insert_unique_IRS5_NSB_11_Alloc_nodeEEESt17_Rb_tree_iteratorIS5_ESt23_Rb_tree_const_iteratorIS5_EOT_RT0_ W
_ZNSt8_Rb_treeINSt7__cxx1112basic_stringIcSt11char_traitsIcESaIcEEES5_St9_IdentityIS5_ESt4lessIS5_ESaIS5_EE24_M_get_insert_unique_posERKS5_ W
_ZNSt8_Rb_treeINSt7__cxx1112basic_stringIcSt11char_traitsIcESaIcEEES5_St9_IdentityIS5_ESt4lessIS5_ESaIS5_EE5eraseERKS5_ W
_ZNSt8_Rb_treeINSt7__cxx1112basic_stringIcSt11char_traitsIcESaIcEEES5_St9_IdentityIS5_ESt4lessIS5_ESaIS5_EE7_M_copyINSB_11_Alloc_nodeEEEPSt13_Rb_tree_nodeIS5_EPKSF_PSt18_Rb_tree_node_baseRT_ W
_ZNSt8_Rb_treeINSt7__cxx1112basic_stringIcSt11char_traitsIcESaIcEEES5_St9_IdentityIS5_ESt4lessIS5_ESaIS5_EE8_M_eraseEPSt13_Rb_tree_nodeIS5_E W
_ZNSt8_Rb_treeINSt7__cxx1112basic_stringIcSt11char_traitsIcESaIcEEESt4pairIKS5_N6google8protobuf8compiler20CommandLineInterface13GeneratorInfoEESt10_Select1stISD_ESt4lessIS5_ESaISD_EE22_M_emplace_hint_uniqueIJRKSt21piecewise_construct_tSt5tupleIJRS7_EESO_IJEEEEESt17_Rb_tree_iteratorISD_ESt23_Rb_tree_const_iteratorISD_EDpOT_ W
_ZNSt8_Rb_treeINSt7__cxx1112basic_stringIcSt11char_traitsIcESaIcEEESt4pairIKS5_N6google8protobuf8compiler20CommandLineInterface13GeneratorInfoEESt10_Select1stISD_ESt4lessIS5_ESaISD_EE24_M_get_insert_unique_posERS7_ W
_ZNSt8_Rb_treeINSt7__cxx1112basic_stringIcSt11char_traitsIcESaIcEEESt4pairIKS5_N6google8protobuf8compiler20CommandLineInterface13GeneratorInfoEESt10_Select1stISD_ESt4lessIS5_ESaISD_EE29_M_get_insert_hint_unique_posESt23_Rb_tree_const_iteratorISD_ERS7_ W
_ZNSt8_Rb_treeINSt7__cxx1112basic_stringIcSt11char_traitsIcESaIcEEESt4pairIKS5_N6google8protobuf8compiler20CommandLineInterface13GeneratorInfoEESt10_Select1stISD_ESt4lessIS5_ESaISD_EE4findERS7_ W
_ZNSt8_Rb_treeINSt7__cxx1112basic_stringIcSt11char_traitsIcESaIcEEESt4pairIKS5_N6google8protobuf8compiler20CommandLineInterface13GeneratorInfoEESt10_Select1stISD_ESt4lessIS5_ESaISD_EE8_M_eraseEPSt13_Rb_tree_nodeISD_E W
_ZNSt8_Rb_treeINSt7__cxx1112basic_stringIcSt11char_traitsIcESaIcEEESt4pairIKS5_PKN6google8protobuf10DescriptorEESt10_Select1stISD_ESt4lessIS5_ESaISD_EE22_M_emplace_hint_uniqueIJRKSt21piecewise_construct_tSt5tupleIJRS7_EESO_IJEEEEESt17_Rb_tree_iteratorISD_ESt23_Rb_tree_const_iteratorISD_EDpOT_ W
_ZNSt8_Rb_treeINSt7__cxx1112basic_stringIcSt11char_traitsIcESaIcEEESt4pairIKS5_PKN6google8protobuf10DescriptorEESt10_Select1stISD_ESt4lessIS5_ESaISD_EE24_M_get_insert_unique_posERS7_ W
_ZNSt8_Rb_treeINSt7__cxx1112basic_stringIcSt11char_traitsIcESaIcEEESt4pairIKS5_PKN6google8protobuf10DescriptorEESt10_Select1stISD_ESt4lessIS5_ESaISD_EE8_M_eraseEPSt13_Rb_tree_nodeISD_E W
_ZNSt8_Rb_treeINSt7__cxx1112basic_stringIcSt11char_traitsIcESaIcEEESt4pairIKS5_PKN6google8protobuf14EnumDescriptorEESt10_Select1stISD_ESt4lessIS5_ESaISD_EE22_M_emplace_hint_uniqueIJRKSt21piecewise_construct_tSt5tupleIJRS7_EESO_IJEEEEESt17_Rb_tree_iteratorISD_ESt23_Rb_tree_const_iteratorISD_EDpOT_ W
_ZNSt8_Rb_treeINSt7__cxx1112basic_stringIcSt11char_traitsIcESaIcEEESt4pairIKS5_PKN6google8protobuf14EnumDescriptorEESt10_Select1stISD_ESt4lessIS5_ESaISD_EE24_M_get_insert_unique_posERS7_ W
_ZNSt8_Rb_treeINSt7__cxx1112basic_stringIcSt11char_traitsIcESaIcEEESt4pairIKS5_PKN6google8protobuf14EnumDescriptorEESt10_Select1stISD_ESt4lessIS5_ESaISD_EE8_M_eraseEPSt13_Rb_tree_nodeISD_E W
_ZNSt8_Rb_treeINSt7__cxx1112basic_stringIcSt11char_traitsIcESaIcEEESt4pairIKS5_PKvESt10_Select1stISA_ESt4lessIS5_ESaISA_EE22_M_emplace_hint_uniqueIJRKSt21piecewise_construct_tSt5tupleIJRS7_EESL_IJEEEEESt17_Rb_tree_iteratorISA_ESt23_Rb_tree_const_iteratorISA_EDpOT_ W
_ZNSt8_Rb_treeINSt7__cxx1112basic_stringIcSt11char_traitsIcESaIcEEESt4pairIKS5_PKvESt10_Select1stISA_ESt4lessIS5_ESaISA_EE24_M_get_insert_unique_posERS7_ W
_ZNSt8_Rb_treeINSt7__cxx1112basic_stringIcSt11char_traitsIcESaIcEEESt4pairIKS5_PKvESt10_Select1stISA_ESt4lessIS5_ESaISA_EE8_M_eraseEPSt13_Rb_tree_nodeISA_E W
_ZNSt8_Rb_treeINSt7__cxx1112basic_stringIcSt11char_traitsIcESaIcEEESt4pairIKS5_PN6google8protobuf8compiler3cpp13FileGenerator19ForwardDeclarationsEESt10_Select1stISF_ESt4lessIS5_ESaISF_EE22_M_emplace_hint_uniqueIJRKSt21piecewise_construct_tSt5tupleIJRS7_EESQ_IJEEEEESt17_Rb_tree_iteratorISF_ESt23_Rb_tree_const_iteratorISF_EDpOT_ W
_ZNSt8_Rb_treeINSt7__cxx1112basic_stringIcSt11char_traitsIcESaIcEEESt4pairIKS5_PN6google8protobuf8compiler3cpp13FileGenerator19ForwardDeclarationsEESt10_Select1stISF_ESt4lessIS5_ESaISF_EE24_M_get_insert_unique_posERS7_ W
_ZNSt8_Rb_treeINSt7__cxx1112basic_stringIcSt11char_traitsIcESaIcEEESt4pairIKS5_PN6google8protobuf8compiler3cpp13FileGenerator19ForwardDeclarationsEESt10_Select1stISF_ESt4lessIS5_ESaISF_EE8_M_eraseEPSt13_Rb_tree_nodeISF_E W
_ZNSt8_Rb_treeINSt7__cxx1112basic_stringIcSt11char_traitsIcESaIcEEESt4pairIKS5_PS5_ESt10_Select1stIS9_ESt4lessIS5_ESaIS9_EE22_M_emplace_hint_uniqueIJRKSt21piecewise_construct_tSt5tupleIJRS7_EESK_IJEEEEESt17_Rb_tree_iteratorIS9_ESt23_Rb_tree_const_iteratorIS9_EDpOT_ W
_ZNSt8_Rb_treeINSt7__cxx1112basic_stringIcSt11char_traitsIcESaIcEEESt4pairIKS5_PS5_ESt10_Select1stIS9_ESt4lessIS5_ESaIS9_EE24_M_get_insert_unique_posERS7_ W
_ZNSt8_Rb_treeINSt7__cxx1112basic_stringIcSt11char_traitsIcESaIcEEESt4pairIKS5_PS5_ESt10_Select1stIS9_ESt4lessIS5_ESaIS9_EE29_M_get_insert_hint_unique_posESt23_Rb_tree_const_iteratorIS9_ERS7_ W
_ZNSt8_Rb_treeINSt7__cxx1112basic_stringIcSt11char_traitsIcESaIcEEESt4pairIKS5_PS5_ESt10_Select1stIS9_ESt4lessIS5_ESaIS9_EE8_M_eraseEPSt13_Rb_tree_nodeIS9_E W
_ZNSt8_Rb_treeINSt7__cxx1112basic_stringIcSt11char_traitsIcESaIcEEESt4pairIKS5_S5_ESt10_Select1stIS8_ESt4lessIS5_ESaIS8_EE22_M_emplace_hint_uniqueIJRKSt21piecewise_construct_tSt5tupleIJOS5_EESJ_IJEEEEESt17_Rb_tree_iteratorIS8_ESt23_Rb_tree_const_iteratorIS8_EDpOT_ W
_ZNSt8_Rb_treeINSt7__cxx1112basic_stringIcSt11char_traitsIcESaIcEEESt4pairIKS5_S5_ESt10_Select1stIS8_ESt4lessIS5_ESaIS8_EE22_M_emplace_hint_uniqueIJRKSt21piecewise_construct_tSt5tupleIJRS7_EESJ_IJEEEEESt17_Rb_tree_iteratorIS8_ESt23_Rb_tree_const_iteratorIS8_EDpOT_ W
_ZNSt8_Rb_treeINSt7__cxx1112basic_stringIcSt11char_traitsIcESaIcEEESt4pairIKS5_S5_ESt10_Select1stIS8_ESt4lessIS5_ESaIS8_EE24_M_get_insert_unique_posERS7_ W
_ZNSt8_Rb_treeINSt7__cxx1112basic_stringIcSt11char_traitsIcESaIcEEESt4pairIKS5_S5_ESt10_Select1stIS8_ESt4lessIS5_ESaIS8_EE29_M_get_insert_hint_unique_posESt23_Rb_tree_const_iteratorIS8_ERS7_ W
_ZNSt8_Rb_treeINSt7__cxx1112basic_stringIcSt11char_traitsIcESaIcEEESt4pairIKS5_S5_ESt10_Select1stIS8_ESt4lessIS5_ESaIS8_EE4findERS7_ W
_ZNSt8_Rb_treeINSt7__cxx1112basic_stringIcSt11char_traitsIcESaIcEEESt4pairIKS5_S5_ESt10_Select1stIS8_ESt4lessIS5_ESaIS8_EE7_M_copyINSE_11_Alloc_nodeEEEPSt13_Rb_tree_nodeIS8_EPKSI_PSt18_Rb_tree_node_baseRT_ W
_ZNSt8_Rb_treeINSt7__cxx1112basic_stringIcSt11char_traitsIcESaIcEEESt4pairIKS5_S5_ESt10_Select1stIS8_ESt4lessIS5_ESaIS8_EE8_M_eraseEPSt13_Rb_tree_nodeIS8_E W
_ZNSt8_Rb_treeIPKN6google8protobuf10DescriptorES4_St9_IdentityIS4_ESt4lessIS4_ESaIS4_EE16_M_insert_uniqueIS4_EESt4pairISt17_Rb_tree_iteratorIS4_EbEOT_ W
_ZNSt8_Rb_treeIPKN6google8protobuf10DescriptorES4_St9_IdentityIS4_ESt4lessIS4_ESaIS4_EE8_M_eraseEPSt13_Rb_tree_nodeIS4_E W
_ZNSt8_Rb_treeIPKN6google8protobuf10DescriptorESt4pairIKS4_NS1_8compiler3cpp11SCCAnalyzer8NodeDataEESt10_Select1stISB_ESt4lessIS4_ESaISB_EE22_M_emplace_hint_uniqueIJRKSt21piecewise_construct_tSt5tupleIJRS6_EESM_IJEEEEESt17_Rb_tree_iteratorISB_ESt23_Rb_tree_const_iteratorISB_EDpOT_ W
_ZNSt8_Rb_treeIPKN6google8protobuf10DescriptorESt4pairIKS4_NS1_8compiler3cpp11SCCAnalyzer8NodeDataEESt10_Select1stISB_ESt4lessIS4_ESaISB_EE29_M_get_insert_hint_unique_posESt23_Rb_tree_const_iteratorISB_ERS6_ W
_ZNSt8_Rb_treeIPKN6google8protobuf10DescriptorESt4pairIKS4_NS1_8compiler3cpp11SCCAnalyzer8NodeDataEESt10_Select1stISB_ESt4lessIS4_ESaISB_EE8_M_eraseEPSt13_Rb_tree_nodeISB_E W
_ZNSt8_Rb_treeIPKN6google8protobuf14FileDescriptorES4_St9_IdentityIS4_ESt4lessIS4_ESaIS4_EE16_M_insert_uniqueIRKS4_EESt4pairISt17_Rb_tree_iteratorIS4_EbEOT_ W
_ZNSt8_Rb_treeIPKN6google8protobuf14FileDescriptorES4_St9_IdentityIS4_ESt4lessIS4_ESaIS4_EE24_M_get_insert_unique_posERKS4_ W
_ZNSt8_Rb_treeIPKN6google8protobuf14FileDescriptorES4_St9_IdentityIS4_ESt4lessIS4_ESaIS4_EE29_M_get_insert_hint_unique_posESt23_Rb_tree_const_iteratorIS4_ERKS4_ W
_ZNSt8_Rb_treeIPKN6google8protobuf14FileDescriptorES4_St9_IdentityIS4_ESt4lessIS4_ESaIS4_EE8_M_eraseEPSt13_Rb_tree_nodeIS4_E W
_ZNSt8_Rb_treeIPKN6google8protobuf14FileDescriptorESt4pairIKS4_NSt7__cxx1112basic_stringIcSt11char_traitsIcESaIcEEEESt10_Select1stISD_ESt4lessIS4_ESaISD_EE29_M_get_insert_hint_unique_posESt23_Rb_tree_const_iteratorISD_ERS6_ W
_ZNSt8_Rb_treeIPKN6google8protobuf14FileDescriptorESt4pairIKS4_NSt7__cxx1112basic_stringIcSt11char_traitsIcESaIcEEEESt10_Select1stISD_ESt4lessIS4_ESaISD_EE8_M_eraseEPSt13_Rb_tree_nodeISD_E W
_ZNSt8_Rb_treeIPKN6google8protobuf15FieldDescriptorES4_St9_IdentityIS4_ESt4lessIS4_ESaIS4_EE16_M_insert_uniqueIS4_EESt4pairISt17_Rb_tree_iteratorIS4_EbEOT_ W
_ZNSt8_Rb_treeIPKN6google8protobuf15FieldDescriptorES4_St9_IdentityIS4_ESt4lessIS4_ESaIS4_EE8_M_eraseEPSt13_Rb_tree_nodeIS4_E W
_ZNSt8_Rb_treeIPKN6google8protobuf15FieldDescriptorESt4pairIKS4_NS1_8compiler4java18FieldGeneratorInfoEESt10_Select1stISA_ESt4lessIS4_ESaISA_EE29_M_get_insert_hint_unique_posESt23_Rb_tree_const_iteratorISA_ERS6_ W
_ZNSt8_Rb_treeIPKN6google8protobuf15FieldDescriptorESt4pairIKS4_NS1_8compiler4java18FieldGeneratorInfoEESt10_Select1stISA_ESt4lessIS4_ESaISA_EE8_M_eraseEPSt13_Rb_tree_nodeISA_E W
_ZNSt8_Rb_treeIPKN6google8protobuf15OneofDescriptorESt4pairIKS4_NS1_8compiler4java18OneofGeneratorInfoEESt10_Select1stISA_ESt4lessIS4_ESaISA_EE29_M_get_insert_hint_unique_posESt23_Rb_tree_const_iteratorISA_ERS6_ W
_ZNSt8_Rb_treeIPKN6google8protobuf15OneofDescriptorESt4pairIKS4_NS1_8compiler4java18OneofGeneratorInfoEESt10_Select1stISA_ESt4lessIS4_ESaISA_EE8_M_eraseEPSt13_Rb_tree_nodeISA_E W
_ZNSt8_Rb_treeIPKN6google8protobuf8compiler3cpp3SCCES6_St9_IdentityIS6_ESt4lessIS6_ESaIS6_EE8_M_eraseEPSt13_Rb_tree_nodeIS6_E W
_ZNSt8_Rb_treeIPKN6google8protobuf8compiler3cpp3SCCESt4pairIKS6_NS3_15MessageAnalysisEESt10_Select1stISA_ESt4lessIS6_ESaISA_EE22_M_emplace_hint_uniqueIJRKSt21piecewise_construct_tSt5tupleIJRS8_EESL_IJEEEEESt17_Rb_tree_iteratorISA_ESt23_Rb_tree_const_iteratorISA_EDpOT_ W
_ZNSt8_Rb_treeIPKN6google8protobuf8compiler3cpp3SCCESt4pairIKS6_NS3_15MessageAnalysisEESt10_Select1stISA_ESt4lessIS6_ESaISA_EE8_M_eraseEPSt13_Rb_tree_nodeISA_E W
_ZNSt8_Rb_treeIPKvS1_St9_IdentityIS1_ESt4lessIS1_ESaIS1_EE16_M_insert_uniqueIRKS1_EESt4pairISt17_Rb_tree_iteratorIS1_EbEOT_ W
_ZNSt8_Rb_treeIPKvS1_St9_IdentityIS1_ESt4lessIS1_ESaIS1_EE5eraseERKS1_ W
_ZNSt8_Rb_treeIPKvS1_St9_IdentityIS1_ESt4lessIS1_ESaIS1_EE7_M_copyINS7_20_Reuse_or_alloc_nodeEEEPSt13_Rb_tree_nodeIS1_EPKSB_PSt18_Rb_tree_node_baseRT_ W
_ZNSt8_Rb_treeIPKvS1_St9_IdentityIS1_ESt4lessIS1_ESaIS1_EE8_M_eraseEPSt13_Rb_tree_nodeIS1_E W
_ZNSt8_Rb_treeISt4pairINSt7__cxx1112basic_stringIcSt11char_traitsIcESaIcEEES6_ES7_St9_IdentityIS7_ESt4lessIS7_ESaIS7_EE16_M_insert_uniqueIS7_EES0_ISt17_Rb_tree_iteratorIS7_EbEOT_ W
_ZNSt8_Rb_treeISt4pairINSt7__cxx1112basic_stringIcSt11char_traitsIcESaIcEEES6_ES7_St9_IdentityIS7_ESt4lessIS7_ESaIS7_EE8_M_eraseEPSt13_Rb_tree_nodeIS7_E W
_ZNSt8_Rb_treeISt4pairIiiES1_St9_IdentityIS1_ESt4lessIS1_ESaIS1_EE16_M_insert_uniqueIS1_EES0_ISt17_Rb_tree_iteratorIS1_EbEOT_ W
_ZNSt8_Rb_treeISt4pairIiiES1_St9_IdentityIS1_ESt4lessIS1_ESaIS1_EE8_M_eraseEPSt13_Rb_tree_nodeIS1_E W
_ZNSt8_Rb_treeIiiSt9_IdentityIiESt4lessIiESaIiEE8_M_eraseEPSt13_Rb_tree_nodeIiE W
_ZNSt8__detail9_Map_baseINSt7__cxx1112basic_stringIcSt11char_traitsIcESaIcEEESt4pairIKS6_PN6google8protobuf8compiler20CommandLineInterface20GeneratorContextImplEESaISF_ENS_10_Select1stESt8equal_toIS6_ENSA_4hashIS6_EENS_18_Mod_range_hashingENS_20_Default_ranged_hashENS_20_Prime_rehash_policyENS_17_Hashtable_traitsILb1ELb0ELb1EEELb1EEixERS8_ W
_ZSt11__make_heapIN9__gnu_cxx17__normal_iteratorIPNSt7__cxx1112basic_stringIcSt11char_traitsIcESaIcEEESt6vectorIS7_SaIS7_EEEENS0_5__ops15_Iter_less_iterEEvT_SF_RT0_ W
_ZSt13__adjust_heapIN9__gnu_cxx17__normal_iteratorIPNSt7__cxx1112basic_stringIcSt11char_traitsIcESaIcEEESt6vectorIS7_SaIS7_EEEElS7_NS0_5__ops15_Iter_less_iterEEvT_T0_SG_T1_T2_ W
_ZSt13__adjust_heapIN9__gnu_cxx17__normal_iteratorIPPKN6google8protobuf10Descriptor14ExtensionRangeESt6vectorIS7_SaIS7_EEEElS7_NS0_5__ops15_Iter_comp_iterINS3_8compiler4java22ExtensionRangeOrderingEEEEvT_T0_SK_T1_T2_ W
_ZSt13__adjust_heapIN9__gnu_cxx17__normal_iteratorIPPKN6google8protobuf10DescriptorESt6vectorIS6_SaIS6_EEEElS6_NS0_5__ops15_Iter_comp_iterINS3_8compiler3cpp18CompareDescriptorsEEEEvT_T0_SJ_T1_T2_ W
_ZSt13__adjust_heapIN9__gnu_cxx17__normal_iteratorIPPKN6google8protobuf15FieldDescriptorESt6vectorIS6_SaIS6_EEEElS6_NS0_5__ops15_Iter_comp_iterIPFbS6_S6_EEEEvT_T0_SI_T1_T2_ W
_ZSt13__adjust_heapIPPKN6google8protobuf15FieldDescriptorElS4_N9__gnu_cxx5__ops15_Iter_comp_iterINS1_8compiler4java21FieldOrderingByNumberEEEEvT_T0_SE_T1_T2_ W
_ZSt16__insertion_sortIN9__gnu_cxx17__normal_iteratorIPNSt7__cxx1112basic_stringIcSt11char_traitsIcESaIcEEESt6vectorIS7_SaIS7_EEEENS0_5__ops15_Iter_less_iterEEvT_SF_T0_ W
_ZSt16__insertion_sortIN9__gnu_cxx17__normal_iteratorIPPKN6google8protobuf10DescriptorESt6vectorIS6_SaIS6_EEEENS0_5__ops15_Iter_comp_iterINS3_8compiler3cpp18CompareDescriptorsEEEEvT_SI_T0_ W
_ZSt16__insertion_sortIN9__gnu_cxx17__normal_iteratorIPPKN6google8protobuf15FieldDescriptorESt6vectorIS6_SaIS6_EEEENS0_5__ops15_Iter_comp_iterIPFbS6_S6_EEEEvT_SH_T0_ W
_ZSt16__introsort_loopIN9__gnu_cxx17__normal_iteratorIPPKN6google8protobuf10Descriptor14ExtensionRangeESt6vectorIS7_SaIS7_EEEElNS0_5__ops15_Iter_comp_iterINS3_8compiler4java22ExtensionRangeOrderingEEEEvT_SJ_T0_T1_ W
_ZSt16__introsort_loopIN9__gnu_cxx17__normal_iteratorIPPKN6google8protobuf10DescriptorESt6vectorIS6_SaIS6_EEEElNS0_5__ops15_Iter_comp_iterINS3_8compiler3cpp18CompareDescriptorsEEEEvT_SI_T0_T1_ W
_ZSt16__introsort_loopIN9__gnu_cxx17__normal_iteratorIPPKN6google8protobuf15FieldDescriptorESt6vectorIS6_SaIS6_EEEElNS0_5__ops15_Iter_comp_iterIPFbS6_S6_EEEEvT_SH_T0_T1_ W
_ZSt16__introsort_loopIPPKN6google8protobuf15FieldDescriptorElN9__gnu_cxx5__ops15_Iter_comp_iterINS1_8compiler4java21FieldOrderingByNumberEEEEvT_SD_T0_T1_ W
_ZSt25__unguarded_linear_insertIN9__gnu_cxx17__normal_iteratorIPNSt7__cxx1112basic_stringIcSt11char_traitsIcESaIcEEESt6vectorIS7_SaIS7_EEEENS0_5__ops14_Val_less_iterEEvT_T0_ W
_ZSt9__find_ifIPKPKcN9__gnu_cxx5__ops16_Iter_equals_valIKNSt7__cxx1112basic_stringIcSt11char_traitsIcESaIcEEEEEET_SF_SF_T0_St26random_access_iterator_tag W
_ZStplIcSt11char_traitsIcESaIcEENSt7__cxx1112basic_stringIT_T0_T1_EEOS8_PKS5_ W
_ZStplIcSt11char_traitsIcESaIcEENSt7__cxx1112basic_stringIT_T0_T1_EEOS8_RKS8_ W
_ZStplIcSt11char_traitsIcESaIcEENSt7__cxx1112basic_stringIT_T0_T1_EEOS8_S9_ W
_ZStplIcSt11char_traitsIcESaIcEENSt7__cxx1112basic_stringIT_T0_T1_EEPKS5_OS8_ W
_ZStplIcSt11char_traitsIcESaIcEENSt7__cxx1112basic_stringIT_T0_T1_EEPKS5_RKS8_ W
_ZStplIcSt11char_traitsIcESaIcEENSt7__cxx1112basic_stringIT_T0_T1_EERKS8_PKS5_ W
_ZStplIcSt11char_traitsIcESaIcEENSt7__cxx1112basic_stringIT_T0_T1_EERKS8_SA_ W
_ZTIN6google8protobuf2io19AnnotationCollectorE V
_ZTIN6google8protobuf2io24AnnotationProtoCollectorINS0_17GeneratedCodeInfoEEE V
_ZTIN6google8protobuf8compiler10objectivec12ImportWriter23ProtoFrameworkCollectorE V
_ZTIN6google8protobuf8compiler10objectivec12LineConsumerE V
_ZTIN6google8protobuf8compiler10objectivec14FieldGeneratorE V
_ZTIN6google8protobuf8compiler10objectivec17MapFieldGeneratorE V
_ZTIN6google8protobuf8compiler10objectivec18EnumFieldGeneratorE V
_ZTIN6google8protobuf8compiler10objectivec19ObjectiveCGeneratorE V
_ZTIN6google8protobuf8compiler10objectivec20SingleFieldGeneratorE V
_ZTIN6google8protobuf8compiler10objectivec21MessageFieldGeneratorE V
_ZTIN6google8protobuf8compiler10objectivec21ObjCObjFieldGeneratorE V
_ZTIN6google8protobuf8compiler10objectivec22RepeatedFieldGeneratorE V
_ZTIN6google8protobuf8compiler10objectivec23PrimitiveFieldGeneratorE V
_ZTIN6google8protobuf8compiler10objectivec26PrimitiveObjFieldGeneratorE V
_ZTIN6google8protobuf8compiler10objectivec26RepeatedEnumFieldGeneratorE V
_ZTIN6google8protobuf8compiler10objectivec29RepeatedMessageFieldGeneratorE V
_ZTIN6google8protobuf8compiler10objectivec31RepeatedPrimitiveFieldGeneratorE V
_ZTIN6google8protobuf8compiler13CodeGeneratorE V
_ZTIN6google8protobuf8compiler16GeneratorContextE V
_ZTIN6google8protobuf8compiler20CodeGeneratorRequestE V
_ZTIN6google8protobuf8compiler20CommandLineInterface12ErrorPrinterE V
_ZTIN6google8protobuf8compiler20CommandLineInterface18MemoryOutputStreamE V
_ZTIN6google8protobuf8compiler20CommandLineInterface20GeneratorContextImplE V
_ZTIN6google8protobuf8compiler21CodeGeneratorResponseE V
_ZTIN6google8protobuf8compiler24GeneratorResponseContextE V
_ZTIN6google8protobuf8compiler26CodeGeneratorResponse_FileE V
_ZTIN6google8protobuf8compiler2js9GeneratorE V
_ZTIN6google8protobuf8compiler3cpp12CppGeneratorE V
_ZTIN6google8protobuf8compiler3cpp14FieldGeneratorE V
_ZTIN6google8protobuf8compiler3cpp16PaddingOptimizerE V
_ZTIN6google8protobuf8compiler3cpp17MapFieldGeneratorE V
_ZTIN6google8protobuf8compiler3cpp18EnumFieldGeneratorE V
_ZTIN6google8protobuf8compiler3cpp19MessageLayoutHelperE V
_ZTIN6google8protobuf8compiler3cpp20StringFieldGeneratorE V
_ZTIN6google8protobuf8compiler3cpp21MessageFieldGeneratorE V
_ZTIN6google8protobuf8compiler3cpp23EnumOneofFieldGeneratorE V
_ZTIN6google8protobuf8compiler3cpp23PrimitiveFieldGeneratorE V
_ZTIN6google8protobuf8compiler3cpp25StringOneofFieldGeneratorE V
_ZTIN6google8protobuf8compiler3cpp26MessageOneofFieldGeneratorE V
_ZTIN6google8protobuf8compiler3cpp26RepeatedEnumFieldGeneratorE V
_ZTIN6google8protobuf8compiler3cpp28PrimitiveOneofFieldGeneratorE V
_ZTIN6google8protobuf8compiler3cpp28RepeatedStringFieldGeneratorE V
_ZTIN6google8protobuf8compiler3cpp29RepeatedMessageFieldGeneratorE V
_ZTIN6google8protobuf8compiler3cpp31RepeatedPrimitiveFieldGeneratorE V
_ZTIN6google8protobuf8compiler3php9GeneratorE V
_ZTIN6google8protobuf8compiler4java13JavaGeneratorE V
_ZTIN6google8protobuf8compiler4java16GeneratorFactoryE V
_ZTIN6google8protobuf8compiler4java16MessageGeneratorE V
_ZTIN6google8protobuf8compiler4java16ServiceGeneratorE V
_ZTIN6google8protobuf8compiler4java18ExtensionGeneratorE V
_ZTIN6google8protobuf8compiler4java23ImmutableFieldGeneratorE V
_ZTIN6google8protobuf8compiler4java23MessageBuilderGeneratorE V
_ZTIN6google8protobuf8compiler4java25ImmutableGeneratorFactoryE V
_ZTIN6google8protobuf8compiler4java25ImmutableMessageGeneratorE V
_ZTIN6google8protobuf8compiler4java25ImmutableServiceGeneratorE V
_ZTIN6google8protobuf8compiler4java26ImmutableMapFieldGeneratorE V
_ZTIN6google8protobuf8compiler4java27ImmutableEnumFieldGeneratorE V
_ZTIN6google8protobuf8compiler4java27ImmutableExtensionGeneratorE V
_ZTIN6google8protobuf8compiler4java27ImmutableFieldLiteGeneratorE V
_ZTIN6google8protobuf8compiler4java27MessageBuilderLiteGeneratorE V
_ZTIN6google8protobuf8compiler4java29ImmutableMessageLiteGeneratorE V
_ZTIN6google8protobuf8compiler4java29ImmutableStringFieldGeneratorE V
_ZTIN6google8protobuf8compiler4java30ImmutableMapFieldLiteGeneratorE V
_ZTIN6google8protobuf8compiler4java30ImmutableMessageFieldGeneratorE V
_ZTIN6google8protobuf8compiler4java31ImmutableEnumFieldLiteGeneratorE V
_ZTIN6google8protobuf8compiler4java31ImmutableExtensionLiteGeneratorE V
_ZTIN6google8protobuf8compiler4java32ImmutableEnumOneofFieldGeneratorE V
_ZTIN6google8protobuf8compiler4java32ImmutablePrimitiveFieldGeneratorE V
_ZTIN6google8protobuf8compiler4java33ImmutableStringFieldLiteGeneratorE V
_ZTIN6google8protobuf8compiler4java34ImmutableLazyMessageFieldGeneratorE V
_ZTIN6google8protobuf8compiler4java34ImmutableMessageFieldLiteGeneratorE V
_ZTIN6google8protobuf8compiler4java34ImmutableStringOneofFieldGeneratorE V
_ZTIN6google8protobuf8compiler4java35ImmutableMessageOneofFieldGeneratorE V
_ZTIN6google8protobuf8compiler4java35RepeatedImmutableEnumFieldGeneratorE V
_ZTIN6google8protobuf8compiler4java36ImmutableEnumOneofFieldLiteGeneratorE V
_ZTIN6google8protobuf8compiler4java36ImmutablePrimitiveFieldLiteGeneratorE V
_ZTIN6google8protobuf8compiler4java37ImmutablePrimitiveOneofFieldGeneratorE V
_ZTIN6google8protobuf8compiler4java37RepeatedImmutableStringFieldGeneratorE V
_ZTIN6google8protobuf8compiler4java38ImmutableLazyMessageFieldLiteGeneratorE V
_ZTIN6google8protobuf8compiler4java38ImmutableStringOneofFieldLiteGeneratorE V
_ZTIN6google8protobuf8compiler4java38RepeatedImmutableMessageFieldGeneratorE V
_ZTIN6google8protobuf8compiler4java39ImmutableLazyMessageOneofFieldGeneratorE V
_ZTIN6google8protobuf8compiler4java39ImmutableMessageOneofFieldLiteGeneratorE V
_ZTIN6google8protobuf8compiler4java39RepeatedImmutableEnumFieldLiteGeneratorE V
_ZTIN6google8protobuf8compiler4java40RepeatedImmutablePrimitiveFieldGeneratorE V
_ZTIN6google8protobuf8compiler4java41ImmutablePrimitiveOneofFieldLiteGeneratorE V
_ZTIN6google8protobuf8compiler4java41RepeatedImmutableStringFieldLiteGeneratorE V
_ZTIN6google8protobuf8compiler4java42RepeatedImmutableLazyMessageFieldGeneratorE V
_ZTIN6google8protobuf8compiler4java42RepeatedImmutableMessageFieldLiteGeneratorE V
_ZTIN6google8protobuf8compiler4java43ImmutableLazyMessageOneofFieldLiteGeneratorE V
_ZTIN6google8protobuf8compiler4java44RepeatedImmutablePrimitiveFieldLiteGeneratorE V
_ZTIN6google8protobuf8compiler4java46RepeatedImmutableLazyMessageFieldLiteGeneratorE V
_ZTIN6google8protobuf8compiler4ruby9GeneratorE V
_ZTIN6google8protobuf8compiler6csharp13EnumGeneratorE V
_ZTIN6google8protobuf8compiler6csharp16MessageGeneratorE V
_ZTIN6google8protobuf8compiler6csharp17MapFieldGeneratorE V
_ZTIN6google8protobuf8compiler6csharp18EnumFieldGeneratorE V
_ZTIN6google8protobuf8compiler6csharp18FieldGeneratorBaseE V
_ZTIN6google8protobuf8compiler6csharp19SourceGeneratorBaseE V
_ZTIN6google8protobuf8compiler6csharp21MessageFieldGeneratorE V
_ZTIN6google8protobuf8compiler6csharp21WrapperFieldGeneratorE V
_ZTIN6google8protobuf8compiler6csharp23EnumOneofFieldGeneratorE V
_ZTIN6google8protobuf8compiler6csharp23PrimitiveFieldGeneratorE V
_ZTIN6google8protobuf8compiler6csharp24ReflectionClassGeneratorE V
_ZTIN6google8protobuf8compiler6csharp26MessageOneofFieldGeneratorE V
_ZTIN6google8protobuf8compiler6csharp26RepeatedEnumFieldGeneratorE V
_ZTIN6google8protobuf8compiler6csharp26WrapperOneofFieldGeneratorE V
_ZTIN6google8protobuf8compiler6csharp28PrimitiveOneofFieldGeneratorE V
_ZTIN6google8protobuf8compiler6csharp29RepeatedMessageFieldGeneratorE V
_ZTIN6google8protobuf8compiler6csharp31RepeatedPrimitiveFieldGeneratorE V
_ZTIN6google8protobuf8compiler6csharp9GeneratorE V
_ZTIN6google8protobuf8compiler6python9GeneratorE V
_ZTIN6google8protobuf8compiler7VersionE V
_ZTIN6google8protobuf8compiler8javanano14FieldGeneratorE V
_ZTIN6google8protobuf8compiler8javanano17JavaNanoGeneratorE V
_ZTIN6google8protobuf8compiler8javanano17MapFieldGeneratorE V
_ZTIN6google8protobuf8compiler8javanano18EnumFieldGeneratorE V
_ZTIN6google8protobuf8compiler8javanano21MessageFieldGeneratorE V
_ZTIN6google8protobuf8compiler8javanano23PrimitiveFieldGeneratorE V
_ZTIN6google8protobuf8compiler8javanano26AccessorEnumFieldGeneratorE V
_ZTIN6google8protobuf8compiler8javanano26MessageOneofFieldGeneratorE V
_ZTIN6google8protobuf8compiler8javanano26RepeatedEnumFieldGeneratorE V
_ZTIN6google8protobuf8compiler8javanano28PrimitiveOneofFieldGeneratorE V
_ZTIN6google8protobuf8compiler8javanano29RepeatedMessageFieldGeneratorE V
_ZTIN6google8protobuf8compiler8javanano31AccessorPrimitiveFieldGeneratorE V
_ZTIN6google8protobuf8compiler8javanano31RepeatedPrimitiveFieldGeneratorE V
_ZTIN6google8protobuf8internal16FunctionClosure1IPKNS0_15FieldDescriptorEEE V
_ZTIN6google8protobuf8internal29InternalMetadataWithArenaBaseINS0_15UnknownFieldSetENS1_25InternalMetadataWithArenaEE9ContainerE V
_ZTINSt7__cxx1112basic_stringIcSt11char_traitsIcESaIcEEE V
_ZTSN6google8protobuf2io19AnnotationCollectorE V
_ZTSN6google8protobuf2io24AnnotationProtoCollectorINS0_17GeneratedCodeInfoEEE V
_ZTSN6google8protobuf8compiler10objectivec12ImportWriter23ProtoFrameworkCollectorE V
_ZTSN6google8protobuf8compiler10objectivec12LineConsumerE V
_ZTSN6google8protobuf8compiler10objectivec14FieldGeneratorE V
_ZTSN6google8protobuf8compiler10objectivec17MapFieldGeneratorE V
_ZTSN6google8protobuf8compiler10objectivec18EnumFieldGeneratorE V
_ZTSN6google8protobuf8compiler10objectivec19ObjectiveCGeneratorE V
_ZTSN6google8protobuf8compiler10objectivec20SingleFieldGeneratorE V
_ZTSN6google8protobuf8compiler10objectivec21MessageFieldGeneratorE V
_ZTSN6google8protobuf8compiler10objectivec21ObjCObjFieldGeneratorE V
_ZTSN6google8protobuf8compiler10objectivec22RepeatedFieldGeneratorE V
_ZTSN6google8protobuf8compiler10objectivec23PrimitiveFieldGeneratorE V
_ZTSN6google8protobuf8compiler10objectivec26PrimitiveObjFieldGeneratorE V
_ZTSN6google8protobuf8compiler10objectivec26RepeatedEnumFieldGeneratorE V
_ZTSN6google8protobuf8compiler10objectivec29RepeatedMessageFieldGeneratorE V
_ZTSN6google8protobuf8compiler10objectivec31RepeatedPrimitiveFieldGeneratorE V
_ZTSN6google8protobuf8compiler13CodeGeneratorE V
_ZTSN6google8protobuf8compiler16GeneratorContextE V
_ZTSN6google8protobuf8compiler20CodeGeneratorRequestE V
_ZTSN6google8protobuf8compiler20CommandLineInterface12ErrorPrinterE V
_ZTSN6google8protobuf8compiler20CommandLineInterface18MemoryOutputStreamE V
_ZTSN6google8protobuf8compiler20CommandLineInterface20GeneratorContextImplE V
_ZTSN6google8protobuf8compiler21CodeGeneratorResponseE V
_ZTSN6google8protobuf8compiler24GeneratorResponseContextE V
_ZTSN6google8protobuf8compiler26CodeGeneratorResponse_FileE V
_ZTSN6google8protobuf8compiler2js9GeneratorE V
_ZTSN6google8protobuf8compiler3cpp12CppGeneratorE V
_ZTSN6google8protobuf8compiler3cpp14FieldGeneratorE V
_ZTSN6google8protobuf8compiler3cpp16PaddingOptimizerE V
_ZTSN6google8protobuf8compiler3cpp17MapFieldGeneratorE V
_ZTSN6google8protobuf8compiler3cpp18EnumFieldGeneratorE V
_ZTSN6google8protobuf8compiler3cpp19MessageLayoutHelperE V
_ZTSN6google8protobuf8compiler3cpp20StringFieldGeneratorE V
_ZTSN6google8protobuf8compiler3cpp21MessageFieldGeneratorE V
_ZTSN6google8protobuf8compiler3cpp23EnumOneofFieldGeneratorE V
_ZTSN6google8protobuf8compiler3cpp23PrimitiveFieldGeneratorE V
_ZTSN6google8protobuf8compiler3cpp25StringOneofFieldGeneratorE V
_ZTSN6google8protobuf8compiler3cpp26MessageOneofFieldGeneratorE V
_ZTSN6google8protobuf8compiler3cpp26RepeatedEnumFieldGeneratorE V
_ZTSN6google8protobuf8compiler3cpp28PrimitiveOneofFieldGeneratorE V
_ZTSN6google8protobuf8compiler3cpp28RepeatedStringFieldGeneratorE V
_ZTSN6google8protobuf8compiler3cpp29RepeatedMessageFieldGeneratorE V
_ZTSN6google8protobuf8compiler3cpp31RepeatedPrimitiveFieldGeneratorE V
_ZTSN6google8protobuf8compiler3php9GeneratorE V
_ZTSN6google8protobuf8compiler4java13JavaGeneratorE V
_ZTSN6google8protobuf8compiler4java16GeneratorFactoryE V
_ZTSN6google8protobuf8compiler4java16MessageGeneratorE V
_ZTSN6google8protobuf8compiler4java16ServiceGeneratorE V
_ZTSN6google8protobuf8compiler4java18ExtensionGeneratorE V
_ZTSN6google8protobuf8compiler4java23ImmutableFieldGeneratorE V
_ZTSN6google8protobuf8compiler4java23MessageBuilderGeneratorE V
_ZTSN6google8protobuf8compiler4java25ImmutableGeneratorFactoryE V
_ZTSN6google8protobuf8compiler4java25ImmutableMessageGeneratorE V
_ZTSN6google8protobuf8compiler4java25ImmutableServiceGeneratorE V
_ZTSN6google8protobuf8compiler4java26ImmutableMapFieldGeneratorE V
_ZTSN6google8protobuf8compiler4java27ImmutableEnumFieldGeneratorE V
_ZTSN6google8protobuf8compiler4java27ImmutableExtensionGeneratorE V
_ZTSN6google8protobuf8compiler4java27ImmutableFieldLiteGeneratorE V
_ZTSN6google8protobuf8compiler4java27MessageBuilderLiteGeneratorE V
_ZTSN6google8protobuf8compiler4java29ImmutableMessageLiteGeneratorE V
_ZTSN6google8protobuf8compiler4java29ImmutableStringFieldGeneratorE V
_ZTSN6google8protobuf8compiler4java30ImmutableMapFieldLiteGeneratorE V
_ZTSN6google8protobuf8compiler4java30ImmutableMessageFieldGeneratorE V
_ZTSN6google8protobuf8compiler4java31ImmutableEnumFieldLiteGeneratorE V
_ZTSN6google8protobuf8compiler4java31ImmutableExtensionLiteGeneratorE V
_ZTSN6google8protobuf8compiler4java32ImmutableEnumOneofFieldGeneratorE V
_ZTSN6google8protobuf8compiler4java32ImmutablePrimitiveFieldGeneratorE V
_ZTSN6google8protobuf8compiler4java33ImmutableStringFieldLiteGeneratorE V
_ZTSN6google8protobuf8compiler4java34ImmutableLazyMessageFieldGeneratorE V
_ZTSN6google8protobuf8compiler4java34ImmutableMessageFieldLiteGeneratorE V
_ZTSN6google8protobuf8compiler4java34ImmutableStringOneofFieldGeneratorE V
_ZTSN6google8protobuf8compiler4java35ImmutableMessageOneofFieldGeneratorE V
_ZTSN6google8protobuf8compiler4java35RepeatedImmutableEnumFieldGeneratorE V
_ZTSN6google8protobuf8compiler4java36ImmutableEnumOneofFieldLiteGeneratorE V
_ZTSN6google8protobuf8compiler4java36ImmutablePrimitiveFieldLiteGeneratorE V
_ZTSN6google8protobuf8compiler4java37ImmutablePrimitiveOneofFieldGeneratorE V
_ZTSN6google8protobuf8compiler4java37RepeatedImmutableStringFieldGeneratorE V
_ZTSN6google8protobuf8compiler4java38ImmutableLazyMessageFieldLiteGeneratorE V
_ZTSN6google8protobuf8compiler4java38ImmutableStringOneofFieldLiteGeneratorE V
_ZTSN6google8protobuf8compiler4java38RepeatedImmutableMessageFieldGeneratorE V
_ZTSN6google8protobuf8compiler4java39ImmutableLazyMessageOneofFieldGeneratorE V
_ZTSN6google8protobuf8compiler4java39ImmutableMessageOneofFieldLiteGeneratorE V
_ZTSN6google8protobuf8compiler4java39RepeatedImmutableEnumFieldLiteGeneratorE V
_ZTSN6google8protobuf8compiler4java40RepeatedImmutablePrimitiveFieldGeneratorE V
_ZTSN6google8protobuf8compiler4java41ImmutablePrimitiveOneofFieldLiteGeneratorE V
_ZTSN6google8protobuf8compiler4java41RepeatedImmutableStringFieldLiteGeneratorE V
_ZTSN6google8protobuf8compiler4java42RepeatedImmutableLazyMessageFieldGeneratorE V
_ZTSN6google8protobuf8compiler4java42RepeatedImmutableMessageFieldLiteGeneratorE V
_ZTSN6google8protobuf8compiler4java43ImmutableLazyMessageOneofFieldLiteGeneratorE V
_ZTSN6google8protobuf8compiler4java44RepeatedImmutablePrimitiveFieldLiteGeneratorE V
_ZTSN6google8protobuf8compiler4java46RepeatedImmutableLazyMessageFieldLiteGeneratorE V
_ZTSN6google8protobuf8compiler4ruby9GeneratorE V
_ZTSN6google8protobuf8compiler6csharp13EnumGeneratorE V
_ZTSN6google8protobuf8compiler6csharp16MessageGeneratorE V
_ZTSN6google8protobuf8compiler6csharp17MapFieldGeneratorE V
_ZTSN6google8protobuf8compiler6csharp18EnumFieldGeneratorE V
_ZTSN6google8protobuf8compiler6csharp18FieldGeneratorBaseE V
_ZTSN6google8protobuf8compiler6csharp19SourceGeneratorBaseE V
_ZTSN6google8protobuf8compiler6csharp21MessageFieldGeneratorE V
_ZTSN6google8protobuf8compiler6csharp21WrapperFieldGeneratorE V
_ZTSN6google8protobuf8compiler6csharp23EnumOneofFieldGeneratorE V
_ZTSN6google8protobuf8compiler6csharp23PrimitiveFieldGeneratorE V
_ZTSN6google8protobuf8compiler6csharp24ReflectionClassGeneratorE V
_ZTSN6google8protobuf8compiler6csharp26MessageOneofFieldGeneratorE V
_ZTSN6google8protobuf8compiler6csharp26RepeatedEnumFieldGeneratorE V
_ZTSN6google8protobuf8compiler6csharp26WrapperOneofFieldGeneratorE V
_ZTSN6google8protobuf8compiler6csharp28PrimitiveOneofFieldGeneratorE V
_ZTSN6google8protobuf8compiler6csharp29RepeatedMessageFieldGeneratorE V
_ZTSN6google8protobuf8compiler6csharp31RepeatedPrimitiveFieldGeneratorE V
_ZTSN6google8protobuf8compiler6csharp9GeneratorE V
_ZTSN6google8protobuf8compiler6python9GeneratorE V
_ZTSN6google8protobuf8compiler7VersionE V
_ZTSN6google8protobuf8compiler8javanano14FieldGeneratorE V
_ZTSN6google8protobuf8compiler8javanano17JavaNanoGeneratorE V
_ZTSN6google8protobuf8compiler8javanano17MapFieldGeneratorE V
_ZTSN6google8protobuf8compiler8javanano18EnumFieldGeneratorE V
_ZTSN6google8protobuf8compiler8javanano21MessageFieldGeneratorE V
_ZTSN6google8protobuf8compiler8javanano23PrimitiveFieldGeneratorE V
_ZTSN6google8protobuf8compiler8javanano26AccessorEnumFieldGeneratorE V
_ZTSN6google8protobuf8compiler8javanano26MessageOneofFieldGeneratorE V
_ZTSN6google8protobuf8compiler8javanano26RepeatedEnumFieldGeneratorE V
_ZTSN6google8protobuf8compiler8javanano28PrimitiveOneofFieldGeneratorE V
_ZTSN6google8protobuf8compiler8javanano29RepeatedMessageFieldGeneratorE V
_ZTSN6google8protobuf8compiler8javanano31AccessorPrimitiveFieldGeneratorE V
_ZTSN6google8protobuf8compiler8javanano31RepeatedPrimitiveFieldGeneratorE V
_ZTSN6google8protobuf8internal16FunctionClosure1IPKNS0_15FieldDescriptorEEE V
_ZTSN6google8protobuf8internal29InternalMetadataWithArenaBaseINS0_15UnknownFieldSetENS1_25InternalMetadataWithArenaEE9ContainerE V
_ZTSNSt7__cxx1112basic_stringIcSt11char_traitsIcESaIcEEE V
_ZTVN6google8protobuf2io24AnnotationProtoCollectorINS0_17GeneratedCodeInfoEEE V
_ZTVN6google8protobuf8compiler10objectivec12ImportWriter23ProtoFrameworkCollectorE V
_ZTVN6google8protobuf8compiler10objectivec12LineConsumerE V
_ZTVN6google8protobuf8compiler10objectivec14FieldGeneratorE V
_ZTVN6google8protobuf8compiler10objectivec17MapFieldGeneratorE V
_ZTVN6google8protobuf8compiler10objectivec18EnumFieldGeneratorE V
_ZTVN6google8protobuf8compiler10objectivec19ObjectiveCGeneratorE V
_ZTVN6google8protobuf8compiler10objectivec20SingleFieldGeneratorE V
_ZTVN6google8protobuf8compiler10objectivec21MessageFieldGeneratorE V
_ZTVN6google8protobuf8compiler10objectivec21ObjCObjFieldGeneratorE V
_ZTVN6google8protobuf8compiler10objectivec22RepeatedFieldGeneratorE V
_ZTVN6google8protobuf8compiler10objectivec23PrimitiveFieldGeneratorE V
_ZTVN6google8protobuf8compiler10objectivec26PrimitiveObjFieldGeneratorE V
_ZTVN6google8protobuf8compiler10objectivec26RepeatedEnumFieldGeneratorE V
_ZTVN6google8protobuf8compiler10objectivec29RepeatedMessageFieldGeneratorE V
_ZTVN6google8protobuf8compiler10objectivec31RepeatedPrimitiveFieldGeneratorE V
_ZTVN6google8protobuf8compiler13CodeGeneratorE V
_ZTVN6google8protobuf8compiler16GeneratorContextE V
_ZTVN6google8protobuf8compiler20CodeGeneratorRequestE V
_ZTVN6google8protobuf8compiler20CommandLineInterface12ErrorPrinterE V
_ZTVN6google8protobuf8compiler20CommandLineInterface18MemoryOutputStreamE V
_ZTVN6google8protobuf8compiler20CommandLineInterface20GeneratorContextImplE V
_ZTVN6google8protobuf8compiler21CodeGeneratorResponseE V
_ZTVN6google8protobuf8compiler24GeneratorResponseContextE V
_ZTVN6google8protobuf8compiler26CodeGeneratorResponse_FileE V
_ZTVN6google8protobuf8compiler2js9GeneratorE V
_ZTVN6google8protobuf8compiler3cpp12CppGeneratorE V
_ZTVN6google8protobuf8compiler3cpp14FieldGeneratorE V
_ZTVN6google8protobuf8compiler3cpp16PaddingOptimizerE V
_ZTVN6google8protobuf8compiler3cpp17MapFieldGeneratorE V
_ZTVN6google8protobuf8compiler3cpp18EnumFieldGeneratorE V
_ZTVN6google8protobuf8compiler3cpp20StringFieldGeneratorE V
_ZTVN6google8protobuf8compiler3cpp21MessageFieldGeneratorE V
_ZTVN6google8protobuf8compiler3cpp23EnumOneofFieldGeneratorE V
_ZTVN6google8protobuf8compiler3cpp23PrimitiveFieldGeneratorE V
_ZTVN6google8protobuf8compiler3cpp25StringOneofFieldGeneratorE V
_ZTVN6google8protobuf8compiler3cpp26MessageOneofFieldGeneratorE V
_ZTVN6google8protobuf8compiler3cpp26RepeatedEnumFieldGeneratorE V
_ZTVN6google8protobuf8compiler3cpp28PrimitiveOneofFieldGeneratorE V
_ZTVN6google8protobuf8compiler3cpp28RepeatedStringFieldGeneratorE V
_ZTVN6google8protobuf8compiler3cpp29RepeatedMessageFieldGeneratorE V
_ZTVN6google8protobuf8compiler3cpp31RepeatedPrimitiveFieldGeneratorE V
_ZTVN6google8protobuf8compiler3php9GeneratorE V
_ZTVN6google8protobuf8compiler4java13JavaGeneratorE V
_ZTVN6google8protobuf8compiler4java16GeneratorFactoryE V
_ZTVN6google8protobuf8compiler4java16MessageGeneratorE V
_ZTVN6google8protobuf8compiler4java16ServiceGeneratorE V
_ZTVN6google8protobuf8compiler4java23ImmutableFieldGeneratorE V
_ZTVN6google8protobuf8compiler4java23MessageBuilderGeneratorE V
_ZTVN6google8protobuf8compiler4java25ImmutableGeneratorFactoryE V
_ZTVN6google8protobuf8compiler4java25ImmutableMessageGeneratorE V
_ZTVN6google8protobuf8compiler4java25ImmutableServiceGeneratorE V
_ZTVN6google8protobuf8compiler4java26ImmutableMapFieldGeneratorE V
_ZTVN6google8protobuf8compiler4java27ImmutableEnumFieldGeneratorE V
_ZTVN6google8protobuf8compiler4java27ImmutableExtensionGeneratorE V
_ZTVN6google8protobuf8compiler4java27ImmutableFieldLiteGeneratorE V
_ZTVN6google8protobuf8compiler4java27MessageBuilderLiteGeneratorE V
_ZTVN6google8protobuf8compiler4java29ImmutableMessageLiteGeneratorE V
_ZTVN6google8protobuf8compiler4java29ImmutableStringFieldGeneratorE V
_ZTVN6google8protobuf8compiler4java30ImmutableMapFieldLiteGeneratorE V
_ZTVN6google8protobuf8compiler4java30ImmutableMessageFieldGeneratorE V
_ZTVN6google8protobuf8compiler4java31ImmutableEnumFieldLiteGeneratorE V
_ZTVN6google8protobuf8compiler4java31ImmutableExtensionLiteGeneratorE V
_ZTVN6google8protobuf8compiler4java32ImmutableEnumOneofFieldGeneratorE V
_ZTVN6google8protobuf8compiler4java32ImmutablePrimitiveFieldGeneratorE V
_ZTVN6google8protobuf8compiler4java33ImmutableStringFieldLiteGeneratorE V
_ZTVN6google8protobuf8compiler4java34ImmutableLazyMessageFieldGeneratorE V
_ZTVN6google8protobuf8compiler4java34ImmutableMessageFieldLiteGeneratorE V
_ZTVN6google8protobuf8compiler4java34ImmutableStringOneofFieldGeneratorE V
_ZTVN6google8protobuf8compiler4java35ImmutableMessageOneofFieldGeneratorE V
_ZTVN6google8protobuf8compiler4java35RepeatedImmutableEnumFieldGeneratorE V
_ZTVN6google8protobuf8compiler4java36ImmutableEnumOneofFieldLiteGeneratorE V
_ZTVN6google8protobuf8compiler4java36ImmutablePrimitiveFieldLiteGeneratorE V
_ZTVN6google8protobuf8compiler4java37ImmutablePrimitiveOneofFieldGeneratorE V
_ZTVN6google8protobuf8compiler4java37RepeatedImmutableStringFieldGeneratorE V
_ZTVN6google8protobuf8compiler4java38ImmutableLazyMessageFieldLiteGeneratorE V
_ZTVN6google8protobuf8compiler4java38ImmutableStringOneofFieldLiteGeneratorE V
_ZTVN6google8protobuf8compiler4java38RepeatedImmutableMessageFieldGeneratorE V
_ZTVN6google8protobuf8compiler4java39ImmutableLazyMessageOneofFieldGeneratorE V
_ZTVN6google8protobuf8compiler4java39ImmutableMessageOneofFieldLiteGeneratorE V
_ZTVN6google8protobuf8compiler4java39RepeatedImmutableEnumFieldLiteGeneratorE V
_ZTVN6google8protobuf8compiler4java40RepeatedImmutablePrimitiveFieldGeneratorE V
_ZTVN6google8protobuf8compiler4java41ImmutablePrimitiveOneofFieldLiteGeneratorE V
_ZTVN6google8protobuf8compiler4java41RepeatedImmutableStringFieldLiteGeneratorE V
_ZTVN6google8protobuf8compiler4java42RepeatedImmutableLazyMessageFieldGeneratorE V
_ZTVN6google8protobuf8compiler4java42RepeatedImmutableMessageFieldLiteGeneratorE V
_ZTVN6google8protobuf8compiler4java43ImmutableLazyMessageOneofFieldLiteGeneratorE V
_ZTVN6google8protobuf8compiler4java44RepeatedImmutablePrimitiveFieldLiteGeneratorE V
_ZTVN6google8protobuf8compiler4java46RepeatedImmutableLazyMessageFieldLiteGeneratorE V
_ZTVN6google8protobuf8compiler4ruby9GeneratorE V
_ZTVN6google8protobuf8compiler6csharp13EnumGeneratorE V
_ZTVN6google8protobuf8compiler6csharp16MessageGeneratorE V
_ZTVN6google8protobuf8compiler6csharp17MapFieldGeneratorE V
_ZTVN6google8protobuf8compiler6csharp18EnumFieldGeneratorE V
_ZTVN6google8protobuf8compiler6csharp18FieldGeneratorBaseE V
_ZTVN6google8protobuf8compiler6csharp19SourceGeneratorBaseE V
_ZTVN6google8protobuf8compiler6csharp21MessageFieldGeneratorE V
_ZTVN6google8protobuf8compiler6csharp21WrapperFieldGeneratorE V
_ZTVN6google8protobuf8compiler6csharp23EnumOneofFieldGeneratorE V
_ZTVN6google8protobuf8compiler6csharp23PrimitiveFieldGeneratorE V
_ZTVN6google8protobuf8compiler6csharp24ReflectionClassGeneratorE V
_ZTVN6google8protobuf8compiler6csharp26MessageOneofFieldGeneratorE V
_ZTVN6google8protobuf8compiler6csharp26RepeatedEnumFieldGeneratorE V
_ZTVN6google8protobuf8compiler6csharp26WrapperOneofFieldGeneratorE V
_ZTVN6google8protobuf8compiler6csharp28PrimitiveOneofFieldGeneratorE V
_ZTVN6google8protobuf8compiler6csharp29RepeatedMessageFieldGeneratorE V
_ZTVN6google8protobuf8compiler6csharp31RepeatedPrimitiveFieldGeneratorE V
_ZTVN6google8protobuf8compiler6csharp9GeneratorE V
_ZTVN6google8protobuf8compiler6python9GeneratorE V
_ZTVN6google8protobuf8compiler7VersionE V
_ZTVN6google8protobuf8compiler8javanano14FieldGeneratorE V
_ZTVN6google8protobuf8compiler8javanano17JavaNanoGeneratorE V
_ZTVN6google8protobuf8compiler8javanano17MapFieldGeneratorE V
_ZTVN6google8protobuf8compiler8javanano18EnumFieldGeneratorE V
_ZTVN6google8protobuf8compiler8javanano21MessageFieldGeneratorE V
_ZTVN6google8protobuf8compiler8javanano23PrimitiveFieldGeneratorE V
_ZTVN6google8protobuf8compiler8javanano26AccessorEnumFieldGeneratorE V
_ZTVN6google8protobuf8compiler8javanano26MessageOneofFieldGeneratorE V
_ZTVN6google8protobuf8compiler8javanano26RepeatedEnumFieldGeneratorE V
_ZTVN6google8protobuf8compiler8javanano28PrimitiveOneofFieldGeneratorE V
_ZTVN6google8protobuf8compiler8javanano29RepeatedMessageFieldGeneratorE V
_ZTVN6google8protobuf8compiler8javanano31AccessorPrimitiveFieldGeneratorE V
_ZTVN6google8protobuf8compiler8javanano31RepeatedPrimitiveFieldGeneratorE V
_ZTVN6google8protobuf8internal16FunctionClosure1IPKNS0_15FieldDescriptorEEE V
_ZThn16_N6google8protobuf8compiler20CommandLineInterface12ErrorPrinter10AddWarningERKNSt7__cxx1112basic_stringIcSt11char_traitsIcESaIcEEESB_PKNS0_7MessageENS0_14DescriptorPool14ErrorCollector13ErrorLocationESB_ W
_ZThn16_N6google8protobuf8compiler20CommandLineInterface12ErrorPrinter8AddErrorERKNSt7__cxx1112basic_stringIcSt11char_traitsIcESaIcEEESB_PKNS0_7MessageENS0_14DescriptorPool14ErrorCollector13ErrorLocationESB_ W
_ZThn16_N6google8protobuf8compiler20CommandLineInterface12ErrorPrinterD0Ev W
_ZThn16_N6google8protobuf8compiler20CommandLineInterface12ErrorPrinterD1Ev W
_ZThn8_N6google8protobuf8compiler20CommandLineInterface12ErrorPrinter10AddWarningEiiRKNSt7__cxx1112basic_stringIcSt11char_traitsIcESaIcEEE W
_ZThn8_N6google8protobuf8compiler20CommandLineInterface12ErrorPrinter8AddErrorEiiRKNSt7__cxx1112basic_stringIcSt11char_traitsIcESaIcEEE W
_ZThn8_N6google8protobuf8compiler20CommandLineInterface12ErrorPrinterD0Ev W
_ZThn8_N6google8protobuf8compiler20CommandLineInterface12ErrorPrinterD1Ev W
_ZZN6google8protobuf8compiler8javanano14RenameKeywordsC4EvE17kJavaKeywordsList u
__bss_start B
_edata D
_end B
_fini T
_init T
well_known_types_js D 0000000000000040
