 0x000000000000000e (SONAME)             Library soname: [libprotobuf.so]
_ZGVZN6google8protobuf4util9converter23ProtoStreamObjectWriter7Options8DefaultsEvE8defaults u
_ZN40protobuf_google_2fprotobuf_2fany_2eproto11TableStruct7offsetsE R
_ZN40protobuf_google_2fprotobuf_2fany_2eproto14AddDescriptorsEv T
_ZN40protobuf_google_2fprotobuf_2fany_2eproto15InitDefaultsAnyEv T
_ZN40protobuf_google_2fprotobuf_2fany_2eproto18AddDescriptorsImplEv T
_ZN40protobuf_google_2fprotobuf_2fany_2eproto19InitDefaultsAnyImplEv T
_ZN40protobuf_google_2fprotobuf_2fany_2eproto19file_level_metadataE B 0000000000000010
_ZN40protobuf_google_2fprotobuf_2fany_2eproto22protobuf_RegisterTypesERKNSt7__cxx1112basic_stringIcSt11char_traitsIcESaIcEEE T
_ZN40protobuf_google_2fprotobuf_2fany_2eproto26protobuf_AssignDescriptorsEv T
_ZN40protobuf_google_2fprotobuf_2fany_2eproto29static_descriptor_initializerE B 0000000000000001
_ZN40protobuf_google_2fprotobuf_2fany_2eproto30protobuf_AssignDescriptorsOnceEv T
_ZN40protobuf_google_2fprotobuf_2fapi_2eproto11TableStruct7offsetsE R
_ZN40protobuf_google_2fprotobuf_2fapi_2eproto14AddDescriptorsEv T
_ZN40protobuf_google_2fprotobuf_2fapi_2eproto15InitDefaultsApiEv T
_ZN40protobuf_google_2fprotobuf_2fapi_2eproto17InitDefaultsMixinEv T
_ZN40protobuf_google_2fprotobuf_2fapi_2eproto18AddDescriptorsImplEv T
_ZN40protobuf_google_2fprotobuf_2fapi_2eproto18InitDefaultsMethodEv T
_ZN40protobuf_google_2fprotobuf_2fapi_2eproto19InitDefaultsApiImplEv T
_ZN40protobuf_google_2fprotobuf_2fapi_2eproto19file_level_metadataE B 0000000000000030
_ZN40protobuf_google_2fprotobuf_2fapi_2eproto21InitDefaultsMixinImplEv T
_ZN40protobuf_google_2fprotobuf_2fapi_2eproto22InitDefaultsMethodImplEv T
_ZN40protobuf_google_2fprotobuf_2fapi_2eproto22protobuf_RegisterTypesERKNSt7__cxx1112basic_stringIcSt11char_traitsIcESaIcEEE T
_ZN40protobuf_google_2fprotobuf_2fapi_2eproto26protobuf_AssignDescriptorsEv T
_ZN40protobuf_google_2fprotobuf_2fapi_2eproto29static_descriptor_initializerE B 0000000000000001
_ZN40protobuf_google_2fprotobuf_2fapi_2eproto30protobuf_AssignDescriptorsOnceEv T
_ZN41protobuf_google_2fprotobuf_2ftype_2eproto11TableStruct7offsetsE R
_ZN41protobuf_google_2fprotobuf_2ftype_2eproto14AddDescriptorsEv T
_ZN41protobuf_google_2fprotobuf_2ftype_2eproto16InitDefaultsEnumEv T
_ZN41protobuf_google_2fprotobuf_2ftype_2eproto16InitDefaultsTypeEv T
_ZN41protobuf_google_2fprotobuf_2ftype_2eproto17InitDefaultsFieldEv T
_ZN41protobuf_google_2fprotobuf_2ftype_2eproto18AddDescriptorsImplEv T
_ZN41protobuf_google_2fprotobuf_2ftype_2eproto18InitDefaultsOptionEv T
_ZN41protobuf_google_2fprotobuf_2ftype_2eproto19file_level_metadataE B 0000000000000050
_ZN41protobuf_google_2fprotobuf_2ftype_2eproto20InitDefaultsEnumImplEv T
_ZN41protobuf_google_2fprotobuf_2ftype_2eproto20InitDefaultsTypeImplEv T
_ZN41protobuf_google_2fprotobuf_2ftype_2eproto21InitDefaultsEnumValueEv T
_ZN41protobuf_google_2fprotobuf_2ftype_2eproto21InitDefaultsFieldImplEv T
_ZN41protobuf_google_2fprotobuf_2ftype_2eproto22InitDefaultsOptionImplEv T
_ZN41protobuf_google_2fprotobuf_2ftype_2eproto22protobuf_RegisterTypesERKNSt7__cxx1112basic_stringIcSt11char_traitsIcESaIcEEE T
_ZN41protobuf_google_2fprotobuf_2ftype_2eproto25InitDefaultsEnumValueImplEv T
_ZN41protobuf_google_2fprotobuf_2ftype_2eproto26protobuf_AssignDescriptorsEv T
_ZN41protobuf_google_2fprotobuf_2ftype_2eproto27file_level_enum_descriptorsE B 0000000000000018
_ZN41protobuf_google_2fprotobuf_2ftype_2eproto29static_descriptor_initializerE B 0000000000000001
_ZN41protobuf_google_2fprotobuf_2ftype_2eproto30protobuf_AssignDescriptorsOnceEv T
_ZN42protobuf_google_2fprotobuf_2fempty_2eproto11TableStruct7offsetsE R
_ZN42protobuf_google_2fprotobuf_2fempty_2eproto14AddDescriptorsEv T
_ZN42protobuf_google_2fprotobuf_2fempty_2eproto17InitDefaultsEmptyEv T
_ZN42protobuf_google_2fprotobuf_2fempty_2eproto18AddDescriptorsImplEv T
_ZN42protobuf_google_2fprotobuf_2fempty_2eproto19file_level_metadataE B 0000000000000010
_ZN42protobuf_google_2fprotobuf_2fempty_2eproto21InitDefaultsEmptyImplEv T
_ZN42protobuf_google_2fprotobuf_2fempty_2eproto22protobuf_RegisterTypesERKNSt7__cxx1112basic_stringIcSt11char_traitsIcESaIcEEE T
_ZN42protobuf_google_2fprotobuf_2fempty_2eproto26protobuf_AssignDescriptorsEv T
_ZN42protobuf_google_2fprotobuf_2fempty_2eproto29static_descriptor_initializerE B 0000000000000001
_ZN42protobuf_google_2fprotobuf_2fempty_2eproto30protobuf_AssignDescriptorsOnceEv T
_ZN43protobuf_google_2fprotobuf_2fstruct_2eproto11TableStruct7offsetsE R
_ZN43protobuf_google_2fprotobuf_2fstruct_2eproto14AddDescriptorsEv T
_ZN43protobuf_google_2fprotobuf_2fstruct_2eproto18AddDescriptorsImplEv T
_ZN43protobuf_google_2fprotobuf_2fstruct_2eproto19file_level_metadataE B 0000000000000040
_ZN43protobuf_google_2fprotobuf_2fstruct_2eproto21InitDefaultsListValueEv T
_ZN43protobuf_google_2fprotobuf_2fstruct_2eproto22protobuf_RegisterTypesERKNSt7__cxx1112basic_stringIcSt11char_traitsIcESaIcEEE T
_ZN43protobuf_google_2fprotobuf_2fstruct_2eproto25InitDefaultsListValueImplEv T
_ZN43protobuf_google_2fprotobuf_2fstruct_2eproto26protobuf_AssignDescriptorsEv T
_ZN43protobuf_google_2fprotobuf_2fstruct_2eproto27file_level_enum_descriptorsE B 0000000000000008
_ZN43protobuf_google_2fprotobuf_2fstruct_2eproto29static_descriptor_initializerE B 0000000000000001
_ZN43protobuf_google_2fprotobuf_2fstruct_2eproto30protobuf_AssignDescriptorsOnceEv T
_ZN45protobuf_google_2fprotobuf_2fduration_2eproto11TableStruct7offsetsE R
_ZN45protobuf_google_2fprotobuf_2fduration_2eproto14AddDescriptorsEv T
_ZN45protobuf_google_2fprotobuf_2fduration_2eproto18AddDescriptorsImplEv T
_ZN45protobuf_google_2fprotobuf_2fduration_2eproto19file_level_metadataE B 0000000000000010
_ZN45protobuf_google_2fprotobuf_2fduration_2eproto20InitDefaultsDurationEv T
_ZN45protobuf_google_2fprotobuf_2fduration_2eproto22protobuf_RegisterTypesERKNSt7__cxx1112basic_stringIcSt11char_traitsIcESaIcEEE T
_ZN45protobuf_google_2fprotobuf_2fduration_2eproto24InitDefaultsDurationImplEv T
_ZN45protobuf_google_2fprotobuf_2fduration_2eproto26protobuf_AssignDescriptorsEv T
_ZN45protobuf_google_2fprotobuf_2fduration_2eproto29static_descriptor_initializerE B 0000000000000001
_ZN45protobuf_google_2fprotobuf_2fduration_2eproto30protobuf_AssignDescriptorsOnceEv T
_ZN45protobuf_google_2fprotobuf_2fwrappers_2eproto11TableStruct7offsetsE R
_ZN45protobuf_google_2fprotobuf_2fwrappers_2eproto14AddDescriptorsEv T
_ZN45protobuf_google_2fprotobuf_2fwrappers_2eproto18AddDescriptorsImplEv T
_ZN45protobuf_google_2fprotobuf_2fwrappers_2eproto19file_level_metadataE B 0000000000000090
_ZN45protobuf_google_2fprotobuf_2fwrappers_2eproto21InitDefaultsBoolValueEv T
_ZN45protobuf_google_2fprotobuf_2fwrappers_2eproto22InitDefaultsBytesValueEv T
_ZN45protobuf_google_2fprotobuf_2fwrappers_2eproto22InitDefaultsFloatValueEv T
_ZN45protobuf_google_2fprotobuf_2fwrappers_2eproto22InitDefaultsInt32ValueEv T
_ZN45protobuf_google_2fprotobuf_2fwrappers_2eproto22InitDefaultsInt64ValueEv T
_ZN45protobuf_google_2fprotobuf_2fwrappers_2eproto22protobuf_RegisterTypesERKNSt7__cxx1112basic_stringIcSt11char_traitsIcESaIcEEE T
_ZN45protobuf_google_2fprotobuf_2fwrappers_2eproto23InitDefaultsDoubleValueEv T
_ZN45protobuf_google_2fprotobuf_2fwrappers_2eproto23InitDefaultsStringValueEv T
_ZN45protobuf_google_2fprotobuf_2fwrappers_2eproto23InitDefaultsUInt32ValueEv T
_ZN45protobuf_google_2fprotobuf_2fwrappers_2eproto23InitDefaultsUInt64ValueEv T
_ZN45protobuf_google_2fprotobuf_2fwrappers_2eproto25InitDefaultsBoolValueImplEv T
_ZN45protobuf_google_2fprotobuf_2fwrappers_2eproto26InitDefaultsBytesValueImplEv T
_ZN45protobuf_google_2fprotobuf_2fwrappers_2eproto26InitDefaultsFloatValueImplEv T
_ZN45protobuf_google_2fprotobuf_2fwrappers_2eproto26InitDefaultsInt32ValueImplEv T
_ZN45protobuf_google_2fprotobuf_2fwrappers_2eproto26InitDefaultsInt64ValueImplEv T
_ZN45protobuf_google_2fprotobuf_2fwrappers_2eproto26protobuf_AssignDescriptorsEv T
_ZN45protobuf_google_2fprotobuf_2fwrappers_2eproto27InitDefaultsDoubleValueImplEv T
_ZN45protobuf_google_2fprotobuf_2fwrappers_2eproto27InitDefaultsStringValueImplEv T
_ZN45protobuf_google_2fprotobuf_2fwrappers_2eproto27InitDefaultsUInt32ValueImplEv T
_ZN45protobuf_google_2fprotobuf_2fwrappers_2eproto27InitDefaultsUInt64ValueImplEv T
_ZN45protobuf_google_2fprotobuf_2fwrappers_2eproto29static_descriptor_initializerE B 0000000000000001
_ZN45protobuf_google_2fprotobuf_2fwrappers_2eproto30protobuf_AssignDescriptorsOnceEv T
_ZN46protobuf_google_2fprotobuf_2ftimestamp_2eproto11TableStruct7offsetsE R
_ZN46protobuf_google_2fprotobuf_2ftimestamp_2eproto14AddDescriptorsEv T
_ZN46protobuf_google_2fprotobuf_2ftimestamp_2eproto18AddDescriptorsImplEv T
_ZN46protobuf_google_2fprotobuf_2ftimestamp_2eproto19file_level_metadataE B 0000000000000010
_ZN46protobuf_google_2fprotobuf_2ftimestamp_2eproto21InitDefaultsTimestampEv T
_ZN46protobuf_google_2fprotobuf_2ftimestamp_2eproto22protobuf_RegisterTypesERKNSt7__cxx1112basic_stringIcSt11char_traitsIcESaIcEEE T
_ZN46protobuf_google_2fprotobuf_2ftimestamp_2eproto25InitDefaultsTimestampImplEv T
_ZN46protobuf_google_2fprotobuf_2ftimestamp_2eproto26protobuf_AssignDescriptorsEv T
_ZN46protobuf_google_2fprotobuf_2ftimestamp_2eproto29static_descriptor_initializerE B 0000000000000001
_ZN46protobuf_google_2fprotobuf_2ftimestamp_2eproto30protobuf_AssignDescriptorsOnceEv T
_ZN47protobuf_google_2fprotobuf_2fdescriptor_2eproto11TableStruct7offsetsE R
_ZN47protobuf_google_2fprotobuf_2fdescriptor_2eproto14AddDescriptorsEv T
_ZN47protobuf_google_2fprotobuf_2fdescriptor_2eproto18AddDescriptorsImplEv T
_ZN47protobuf_google_2fprotobuf_2fdescriptor_2eproto19file_level_metadataE B 00000000000001b0
_ZN47protobuf_google_2fprotobuf_2fdescriptor_2eproto22protobuf_RegisterTypesERKNSt7__cxx1112basic_stringIcSt11char_traitsIcESaIcEEE T
_ZN47protobuf_google_2fprotobuf_2fdescriptor_2eproto23InitDefaultsEnumOptionsEv T
_ZN47protobuf_google_2fprotobuf_2fdescriptor_2eproto23InitDefaultsFileOptionsEv T
_ZN47protobuf_google_2fprotobuf_2fdescriptor_2eproto24InitDefaultsFieldOptionsEv T
_ZN47protobuf_google_2fprotobuf_2fdescriptor_2eproto24InitDefaultsOneofOptionsEv T
_ZN47protobuf_google_2fprotobuf_2fdescriptor_2eproto25InitDefaultsMethodOptionsEv T
_ZN47protobuf_google_2fprotobuf_2fdescriptor_2eproto26InitDefaultsMessageOptionsEv T
_ZN47protobuf_google_2fprotobuf_2fdescriptor_2eproto26InitDefaultsServiceOptionsEv T
_ZN47protobuf_google_2fprotobuf_2fdescriptor_2eproto26InitDefaultsSourceCodeInfoEv T
_ZN47protobuf_google_2fprotobuf_2fdescriptor_2eproto26protobuf_AssignDescriptorsEv T
_ZN47protobuf_google_2fprotobuf_2fdescriptor_2eproto27InitDefaultsDescriptorProtoEv T
_ZN47protobuf_google_2fprotobuf_2fdescriptor_2eproto27InitDefaultsEnumOptionsImplEv T
_ZN47protobuf_google_2fprotobuf_2fdescriptor_2eproto27InitDefaultsFileOptionsImplEv T
_ZN47protobuf_google_2fprotobuf_2fdescriptor_2eproto27file_level_enum_descriptorsE B 0000000000000030
_ZN47protobuf_google_2fprotobuf_2fdescriptor_2eproto28InitDefaultsEnumValueOptionsEv T
_ZN47protobuf_google_2fprotobuf_2fdescriptor_2eproto28InitDefaultsFieldOptionsImplEv T
_ZN47protobuf_google_2fprotobuf_2fdescriptor_2eproto28InitDefaultsOneofOptionsImplEv T
_ZN47protobuf_google_2fprotobuf_2fdescriptor_2eproto29InitDefaultsFileDescriptorSetEv T
_ZN47protobuf_google_2fprotobuf_2fdescriptor_2eproto29InitDefaultsGeneratedCodeInfoEv T
_ZN47protobuf_google_2fprotobuf_2fdescriptor_2eproto29InitDefaultsMethodOptionsImplEv T
_ZN47protobuf_google_2fprotobuf_2fdescriptor_2eproto29static_descriptor_initializerE B 0000000000000001
_ZN47protobuf_google_2fprotobuf_2fdescriptor_2eproto30InitDefaultsMessageOptionsImplEv T
_ZN47protobuf_google_2fprotobuf_2fdescriptor_2eproto30InitDefaultsServiceOptionsImplEv T
_ZN47protobuf_google_2fprotobuf_2fdescriptor_2eproto30InitDefaultsSourceCodeInfoImplEv T
_ZN47protobuf_google_2fprotobuf_2fdescriptor_2eproto30protobuf_AssignDescriptorsOnceEv T
_ZN47protobuf_google_2fprotobuf_2fdescriptor_2eproto31InitDefaultsDescriptorProtoImplEv T
_ZN47protobuf_google_2fprotobuf_2fdescriptor_2eproto31InitDefaultsEnumDescriptorProtoEv T
_ZN47protobuf_google_2fprotobuf_2fdescriptor_2eproto31InitDefaultsFileDescriptorProtoEv T
_ZN47protobuf_google_2fprotobuf_2fdescriptor_2eproto31InitDefaultsUninterpretedOptionEv T
_ZN47protobuf_google_2fprotobuf_2fdescriptor_2eproto32InitDefaultsEnumValueOptionsImplEv T
_ZN47protobuf_google_2fprotobuf_2fdescriptor_2eproto32InitDefaultsFieldDescriptorProtoEv T
_ZN47protobuf_google_2fprotobuf_2fdescriptor_2eproto32InitDefaultsOneofDescriptorProtoEv T
_ZN47protobuf_google_2fprotobuf_2fdescriptor_2eproto33InitDefaultsExtensionRangeOptionsEv T
_ZN47protobuf_google_2fprotobuf_2fdescriptor_2eproto33InitDefaultsFileDescriptorSetImplEv T
_ZN47protobuf_google_2fprotobuf_2fdescriptor_2eproto33InitDefaultsGeneratedCodeInfoImplEv T
_ZN47protobuf_google_2fprotobuf_2fdescriptor_2eproto33InitDefaultsMethodDescriptorProtoEv T
_ZN47protobuf_google_2fprotobuf_2fdescriptor_2eproto34InitDefaultsServiceDescriptorProtoEv T
_ZN47protobuf_google_2fprotobuf_2fdescriptor_2eproto35InitDefaultsEnumDescriptorProtoImplEv T
_ZN47protobuf_google_2fprotobuf_2fdescriptor_2eproto35InitDefaultsFileDescriptorProtoImplEv T
_ZN47protobuf_google_2fprotobuf_2fdescriptor_2eproto35InitDefaultsSourceCodeInfo_LocationEv T
_ZN47protobuf_google_2fprotobuf_2fdescriptor_2eproto35InitDefaultsUninterpretedOptionImplEv T
_ZN47protobuf_google_2fprotobuf_2fdescriptor_2eproto36InitDefaultsEnumValueDescriptorProtoEv T
_ZN47protobuf_google_2fprotobuf_2fdescriptor_2eproto36InitDefaultsFieldDescriptorProtoImplEv T
_ZN47protobuf_google_2fprotobuf_2fdescriptor_2eproto36InitDefaultsOneofDescriptorProtoImplEv T
_ZN47protobuf_google_2fprotobuf_2fdescriptor_2eproto37InitDefaultsExtensionRangeOptionsImplEv T
_ZN47protobuf_google_2fprotobuf_2fdescriptor_2eproto37InitDefaultsMethodDescriptorProtoImplEv T
_ZN47protobuf_google_2fprotobuf_2fdescriptor_2eproto38InitDefaultsServiceDescriptorProtoImplEv T
_ZN47protobuf_google_2fprotobuf_2fdescriptor_2eproto39InitDefaultsSourceCodeInfo_LocationImplEv T
_ZN47protobuf_google_2fprotobuf_2fdescriptor_2eproto40InitDefaultsEnumValueDescriptorProtoImplEv T
_ZN47protobuf_google_2fprotobuf_2fdescriptor_2eproto40InitDefaultsGeneratedCodeInfo_AnnotationEv T
_ZN47protobuf_google_2fprotobuf_2fdescriptor_2eproto40InitDefaultsUninterpretedOption_NamePartEv T
_ZN47protobuf_google_2fprotobuf_2fdescriptor_2eproto41InitDefaultsDescriptorProto_ReservedRangeEv T
_ZN47protobuf_google_2fprotobuf_2fdescriptor_2eproto42InitDefaultsDescriptorProto_ExtensionRangeEv T
_ZN47protobuf_google_2fprotobuf_2fdescriptor_2eproto44InitDefaultsGeneratedCodeInfo_AnnotationImplEv T
_ZN47protobuf_google_2fprotobuf_2fdescriptor_2eproto44InitDefaultsUninterpretedOption_NamePartImplEv T
_ZN47protobuf_google_2fprotobuf_2fdescriptor_2eproto45InitDefaultsDescriptorProto_ReservedRangeImplEv T
_ZN47protobuf_google_2fprotobuf_2fdescriptor_2eproto46InitDefaultsDescriptorProto_ExtensionRangeImplEv T
_ZN47protobuf_google_2fprotobuf_2fdescriptor_2eproto49InitDefaultsEnumDescriptorProto_EnumReservedRangeEv T
_ZN47protobuf_google_2fprotobuf_2fdescriptor_2eproto53InitDefaultsEnumDescriptorProto_EnumReservedRangeImplEv T
_ZN49protobuf_google_2fprotobuf_2ffield_5fmask_2eproto11TableStruct7offsetsE R
_ZN49protobuf_google_2fprotobuf_2ffield_5fmask_2eproto14AddDescriptorsEv T
_ZN49protobuf_google_2fprotobuf_2ffield_5fmask_2eproto18AddDescriptorsImplEv T
_ZN49protobuf_google_2fprotobuf_2ffield_5fmask_2eproto19file_level_metadataE B 0000000000000010
_ZN49protobuf_google_2fprotobuf_2ffield_5fmask_2eproto21InitDefaultsFieldMaskEv T
_ZN49protobuf_google_2fprotobuf_2ffield_5fmask_2eproto22protobuf_RegisterTypesERKNSt7__cxx1112basic_stringIcSt11char_traitsIcESaIcEEE T
_ZN49protobuf_google_2fprotobuf_2ffield_5fmask_2eproto25InitDefaultsFieldMaskImplEv T
_ZN49protobuf_google_2fprotobuf_2ffield_5fmask_2eproto26protobuf_AssignDescriptorsEv T
_ZN49protobuf_google_2fprotobuf_2ffield_5fmask_2eproto29static_descriptor_initializerE B 0000000000000001
_ZN49protobuf_google_2fprotobuf_2ffield_5fmask_2eproto30protobuf_AssignDescriptorsOnceEv T
_ZN53protobuf_google_2fprotobuf_2fsource_5fcontext_2eproto11TableStruct7offsetsE R
_ZN53protobuf_google_2fprotobuf_2fsource_5fcontext_2eproto14AddDescriptorsEv T
_ZN53protobuf_google_2fprotobuf_2fsource_5fcontext_2eproto18AddDescriptorsImplEv T
_ZN53protobuf_google_2fprotobuf_2fsource_5fcontext_2eproto19file_level_metadataE B 0000000000000010
_ZN53protobuf_google_2fprotobuf_2fsource_5fcontext_2eproto22protobuf_RegisterTypesERKNSt7__cxx1112basic_stringIcSt11char_traitsIcESaIcEEE T
_ZN53protobuf_google_2fprotobuf_2fsource_5fcontext_2eproto25InitDefaultsSourceContextEv T
_ZN53protobuf_google_2fprotobuf_2fsource_5fcontext_2eproto26protobuf_AssignDescriptorsEv T
_ZN53protobuf_google_2fprotobuf_2fsource_5fcontext_2eproto29InitDefaultsSourceContextImplEv T
_ZN53protobuf_google_2fprotobuf_2fsource_5fcontext_2eproto29static_descriptor_initializerE B 0000000000000001
_ZN53protobuf_google_2fprotobuf_2fsource_5fcontext_2eproto30protobuf_AssignDescriptorsOnceEv T
_ZN6google8protobuf10BytesValue10SharedCtorEv T
_ZN6google8protobuf10BytesValue10SharedDtorEv T
_ZN6google8protobuf10BytesValue10descriptorEv T
_ZN6google8protobuf10BytesValue12InternalSwapEPS1_ T
_ZN6google8protobuf10BytesValue15UnsafeArenaSwapEPS1_ T
_ZN6google8protobuf10BytesValue16default_instanceEv T
_ZN6google8protobuf10BytesValue17kValueFieldNumberE R
_ZN6google8protobuf10BytesValue21InitAsDefaultInstanceEv T
_ZN6google8protobuf10BytesValue27MergePartialFromCodedStreamEPNS0_2io16CodedInputStreamE T
_ZN6google8protobuf10BytesValue4SwapEPS1_ T
_ZN6google8protobuf10BytesValue5ClearEv T
_ZN6google8protobuf10BytesValue8CopyFromERKNS0_7MessageE T
_ZN6google8protobuf10BytesValue8CopyFromERKS1_ T
_ZN6google8protobuf10BytesValue9ArenaDtorEPv T
_ZN6google8protobuf10BytesValue9MergeFromERKNS0_7MessageE T
_ZN6google8protobuf10BytesValue9MergeFromERKS1_ T
_ZN6google8protobuf10BytesValueC1EPNS0_5ArenaE T
_ZN6google8protobuf10BytesValueC1ERKS1_ T
_ZN6google8protobuf10BytesValueC1Ev T
_ZN6google8protobuf10BytesValueC2EPNS0_5ArenaE T
_ZN6google8protobuf10BytesValueC2ERKS1_ T
_ZN6google8protobuf10BytesValueC2Ev T
_ZN6google8protobuf10BytesValueD0Ev T
_ZN6google8protobuf10BytesValueD1Ev T
_ZN6google8protobuf10BytesValueD2Ev T
_ZN6google8protobuf10FloatValue10SharedCtorEv T
_ZN6google8protobuf10FloatValue10SharedDtorEv T
_ZN6google8protobuf10FloatValue10descriptorEv T
_ZN6google8protobuf10FloatValue12InternalSwapEPS1_ T
_ZN6google8protobuf10FloatValue15UnsafeArenaSwapEPS1_ T
_ZN6google8protobuf10FloatValue16default_instanceEv T
_ZN6google8protobuf10FloatValue17kValueFieldNumberE R
_ZN6google8protobuf10FloatValue21InitAsDefaultInstanceEv T
_ZN6google8protobuf10FloatValue27MergePartialFromCodedStreamEPNS0_2io16CodedInputStreamE T
_ZN6google8protobuf10FloatValue4SwapEPS1_ T
_ZN6google8protobuf10FloatValue5ClearEv T
_ZN6google8protobuf10FloatValue8CopyFromERKNS0_7MessageE T
_ZN6google8protobuf10FloatValue8CopyFromERKS1_ T
_ZN6google8protobuf10FloatValue9ArenaDtorEPv T
_ZN6google8protobuf10FloatValue9MergeFromERKNS0_7MessageE T
_ZN6google8protobuf10FloatValue9MergeFromERKS1_ T
_ZN6google8protobuf10FloatValueC1EPNS0_5ArenaE T
_ZN6google8protobuf10FloatValueC1ERKS1_ T
_ZN6google8protobuf10FloatValueC1Ev T
_ZN6google8protobuf10FloatValueC2EPNS0_5ArenaE T
_ZN6google8protobuf10FloatValueC2ERKS1_ T
_ZN6google8protobuf10FloatValueC2Ev T
_ZN6google8protobuf10FloatValueD0Ev T
_ZN6google8protobuf10FloatValueD1Ev T
_ZN6google8protobuf10FloatValueD2Ev T
_ZN6google8protobuf10Int32Value10SharedCtorEv T
_ZN6google8protobuf10Int32Value10SharedDtorEv T
_ZN6google8protobuf10Int32Value10descriptorEv T
_ZN6google8protobuf10Int32Value12InternalSwapEPS1_ T
_ZN6google8protobuf10Int32Value15UnsafeArenaSwapEPS1_ T
_ZN6google8protobuf10Int32Value16default_instanceEv T
_ZN6google8protobuf10Int32Value17kValueFieldNumberE R
_ZN6google8protobuf10Int32Value21InitAsDefaultInstanceEv T
_ZN6google8protobuf10Int32Value27MergePartialFromCodedStreamEPNS0_2io16CodedInputStreamE T
_ZN6google8protobuf10Int32Value4SwapEPS1_ T
_ZN6google8protobuf10Int32Value5ClearEv T
_ZN6google8protobuf10Int32Value8CopyFromERKNS0_7MessageE T
_ZN6google8protobuf10Int32Value8CopyFromERKS1_ T
_ZN6google8protobuf10Int32Value9ArenaDtorEPv T
_ZN6google8protobuf10Int32Value9MergeFromERKNS0_7MessageE T
_ZN6google8protobuf10Int32Value9MergeFromERKS1_ T
_ZN6google8protobuf10Int32ValueC1EPNS0_5ArenaE T
_ZN6google8protobuf10Int32ValueC1ERKS1_ T
_ZN6google8protobuf10Int32ValueC1Ev T
_ZN6google8protobuf10Int32ValueC2EPNS0_5ArenaE T
_ZN6google8protobuf10Int32ValueC2ERKS1_ T
_ZN6google8protobuf10Int32ValueC2Ev T
_ZN6google8protobuf10Int32ValueD0Ev T
_ZN6google8protobuf10Int32ValueD1Ev T
_ZN6google8protobuf10Int32ValueD2Ev T
_ZN6google8protobuf10Int64Value10SharedCtorEv T
_ZN6google8protobuf10Int64Value10SharedDtorEv T
_ZN6google8protobuf10Int64Value10descriptorEv T
_ZN6google8protobuf10Int64Value12InternalSwapEPS1_ T
_ZN6google8protobuf10Int64Value15UnsafeArenaSwapEPS1_ T
_ZN6google8protobuf10Int64Value16default_instanceEv T
_ZN6google8protobuf10Int64Value17kValueFieldNumberE R
_ZN6google8protobuf10Int64Value21InitAsDefaultInstanceEv T
_ZN6google8protobuf10Int64Value27MergePartialFromCodedStreamEPNS0_2io16CodedInputStreamE T
_ZN6google8protobuf10Int64Value4SwapEPS1_ T
_ZN6google8protobuf10Int64Value5ClearEv T
_ZN6google8protobuf10Int64Value8CopyFromERKNS0_7MessageE T
_ZN6google8protobuf10Int64Value8CopyFromERKS1_ T
_ZN6google8protobuf10Int64Value9ArenaDtorEPv T
_ZN6google8protobuf10Int64Value9MergeFromERKNS0_7MessageE T
_ZN6google8protobuf10Int64Value9MergeFromERKS1_ T
_ZN6google8protobuf10Int64ValueC1EPNS0_5ArenaE T
_ZN6google8protobuf10Int64ValueC1ERKS1_ T
_ZN6google8protobuf10Int64ValueC1Ev T
_ZN6google8protobuf10Int64ValueC2EPNS0_5ArenaE T
_ZN6google8protobuf10Int64ValueC2ERKS1_ T
_ZN6google8protobuf10Int64ValueC2Ev T
_ZN6google8protobuf10Int64ValueD0Ev T
_ZN6google8protobuf10Int64ValueD1Ev T
_ZN6google8protobuf10Int64ValueD2Ev T
_ZN6google8protobuf10MathLimitsIdE4kMaxE R
_ZN6google8protobuf10MathLimitsIdE4kMinE R
_ZN6google8protobuf10MathLimitsIdE4kNaNE R
_ZN6google8protobuf10MathLimitsIdE7kNegInfE R
_ZN6google8protobuf10MathLimitsIdE7kNegMaxE R
_ZN6google8protobuf10MathLimitsIdE7kNegMinE R
_ZN6google8protobuf10MathLimitsIdE7kPosInfE R
_ZN6google8protobuf10MathLimitsIdE7kPosMaxE R
_ZN6google8protobuf10MathLimitsIdE7kPosMinE R
_ZN6google8protobuf10MathLimitsIdE8kEpsilonE R
_ZN6google8protobuf10MathLimitsIdE9kStdErrorE R
_ZN6google8protobuf10MathLimitsIeE4kMaxE R
_ZN6google8protobuf10MathLimitsIeE4kMinE R
_ZN6google8protobuf10MathLimitsIeE4kNaNE R
_ZN6google8protobuf10MathLimitsIeE7kNegInfE R
_ZN6google8protobuf10MathLimitsIeE7kNegMaxE R
_ZN6google8protobuf10MathLimitsIeE7kNegMinE R
_ZN6google8protobuf10MathLimitsIeE7kPosInfE R
_ZN6google8protobuf10MathLimitsIeE7kPosMaxE R
_ZN6google8protobuf10MathLimitsIeE7kPosMinE R
_ZN6google8protobuf10MathLimitsIeE8kEpsilonE R
_ZN6google8protobuf10MathLimitsIeE9kStdErrorE R
_ZN6google8protobuf10MathLimitsIfE4kMaxE R
_ZN6google8protobuf10MathLimitsIfE4kMinE R
_ZN6google8protobuf10MathLimitsIfE4kNaNE R
_ZN6google8protobuf10MathLimitsIfE7kNegInfE R
_ZN6google8protobuf10MathLimitsIfE7kNegMaxE R
_ZN6google8protobuf10MathLimitsIfE7kNegMinE R
_ZN6google8protobuf10MathLimitsIfE7kPosInfE R
_ZN6google8protobuf10MathLimitsIfE7kPosMaxE R
_ZN6google8protobuf10MathLimitsIfE7kPosMinE R
_ZN6google8protobuf10MathLimitsIfE8kEpsilonE R
_ZN6google8protobuf10MathLimitsIfE9kStdErrorE R
_ZN6google8protobuf10ReflectionD0Ev T
_ZN6google8protobuf10ReflectionD1Ev T
_ZN6google8protobuf10ReflectionD2Ev T
_ZN6google8protobuf10RpcChannelD0Ev T
_ZN6google8protobuf10RpcChannelD1Ev T
_ZN6google8protobuf10RpcChannelD2Ev T
_ZN6google8protobuf10TextFormat13ParseInfoTree12CreateNestedEPKNS0_15FieldDescriptorE T
_ZN6google8protobuf10TextFormat13ParseInfoTree14RecordLocationEPKNS0_15FieldDescriptorENS1_13ParseLocationE T
_ZN6google8protobuf10TextFormat13ParseInfoTreeC1Ev T
_ZN6google8protobuf10TextFormat13ParseInfoTreeC2Ev T
_ZN6google8protobuf10TextFormat13ParseInfoTreeD1Ev T
_ZN6google8protobuf10TextFormat13ParseInfoTreeD2Ev T
_ZN6google8protobuf10TextFormat13PrintToStringERKNS0_7MessageEPNSt7__cxx1112basic_stringIcSt11char_traitsIcESaIcEEE T
_ZN6google8protobuf10TextFormat15MergeFromStringERKNSt7__cxx1112basic_stringIcSt11char_traitsIcESaIcEEEPNS0_7MessageE T
_ZN6google8protobuf10TextFormat15ParseFromStringERKNSt7__cxx1112basic_stringIcSt11char_traitsIcESaIcEEEPNS0_7MessageE T
_ZN6google8protobuf10TextFormat17BaseTextGeneratorD0Ev T
_ZN6google8protobuf10TextFormat17BaseTextGeneratorD1Ev T
_ZN6google8protobuf10TextFormat17BaseTextGeneratorD2Ev T
_ZN6google8protobuf10TextFormat17FieldValuePrinterC1Ev T
_ZN6google8protobuf10TextFormat17FieldValuePrinterC2Ev T
_ZN6google8protobuf10TextFormat17FieldValuePrinterD0Ev T
_ZN6google8protobuf10TextFormat17FieldValuePrinterD1Ev T
_ZN6google8protobuf10TextFormat17FieldValuePrinterD2Ev T
_ZN6google8protobuf10TextFormat18PrintUnknownFieldsERKNS0_15UnknownFieldSetEPNS0_2io20ZeroCopyOutputStreamE T
_ZN6google8protobuf10TextFormat21FastFieldValuePrinterC1Ev T
_ZN6google8protobuf10TextFormat21FastFieldValuePrinterC2Ev T
_ZN6google8protobuf10TextFormat21FastFieldValuePrinterD0Ev T
_ZN6google8protobuf10TextFormat21FastFieldValuePrinterD1Ev T
_ZN6google8protobuf10TextFormat21FastFieldValuePrinterD2Ev T
_ZN6google8protobuf10TextFormat23PrintFieldValueToStringERKNS0_7MessageEPKNS0_15FieldDescriptorEiPNSt7__cxx1112basic_stringIcSt11char_traitsIcESaIcEEE T
_ZN6google8protobuf10TextFormat25ParseFieldValueFromStringERKNSt7__cxx1112basic_stringIcSt11char_traitsIcESaIcEEEPKNS0_15FieldDescriptorEPNS0_7MessageE T
_ZN6google8protobuf10TextFormat26PrintUnknownFieldsToStringERKNS0_15UnknownFieldSetEPNSt7__cxx1112basic_stringIcSt11char_traitsIcESaIcEEE T
_ZN6google8protobuf10TextFormat5MergeEPNS0_2io19ZeroCopyInputStreamEPNS0_7MessageE T
_ZN6google8protobuf10TextFormat5ParseEPNS0_2io19ZeroCopyInputStreamEPNS0_7MessageE T
_ZN6google8protobuf10TextFormat5PrintERKNS0_7MessageEPNS0_2io20ZeroCopyOutputStreamE T
_ZN6google8protobuf10TextFormat6FinderD0Ev T
_ZN6google8protobuf10TextFormat6FinderD1Ev T
_ZN6google8protobuf10TextFormat6FinderD2Ev T
_ZN6google8protobuf10TextFormat6Parser10ParserImpl11ReportErrorEiiRKNSt7__cxx1112basic_stringIcSt11char_traitsIcESaIcEEE W
_ZN6google8protobuf10TextFormat6Parser10ParserImpl12ConsumeFieldEPNS0_7MessageE W
_ZN6google8protobuf10TextFormat6Parser10ParserImpl13ConsumeDoubleEPd W
_ZN6google8protobuf10TextFormat6Parser10ParserImpl13ReportWarningEiiRKNSt7__cxx1112basic_stringIcSt11char_traitsIcESaIcEEE W
_ZN6google8protobuf10TextFormat6Parser10ParserImpl14ConsumeMessageEPNS0_7MessageENSt7__cxx1112basic_stringIcSt11char_traitsIcESaIcEEE W
_ZN6google8protobuf10TextFormat6Parser10ParserImpl14SkipFieldValueEv W
_ZN6google8protobuf10TextFormat6Parser10ParserImpl15ConsumeAnyValueERKNSt7__cxx1112basic_stringIcSt11char_traitsIcESaIcEEEPKNS0_14DescriptorPoolEPS9_ W
_ZN6google8protobuf10TextFormat6Parser10ParserImpl16SkipFieldMessageEv W
_ZN6google8protobuf10TextFormat6Parser10ParserImpl17ConsumeAnyTypeUrlEPNSt7__cxx1112basic_stringIcSt11char_traitsIcESaIcEEESA_ W
_ZN6google8protobuf10TextFormat6Parser10ParserImpl17ConsumeFieldValueEPNS0_7MessageEPKNS0_10ReflectionEPKNS0_15FieldDescriptorE W
_ZN6google8protobuf10TextFormat6Parser10ParserImpl17ConsumeIdentifierEPNSt7__cxx1112basic_stringIcSt11char_traitsIcESaIcEEE W
_ZN6google8protobuf10TextFormat6Parser10ParserImpl19ConsumeFieldMessageEPNS0_7MessageEPKNS0_10ReflectionEPKNS0_15FieldDescriptorE W
_ZN6google8protobuf10TextFormat6Parser10ParserImpl19ConsumeFullTypeNameEPNSt7__cxx1112basic_stringIcSt11char_traitsIcESaIcEEE W
_ZN6google8protobuf10TextFormat6Parser10ParserImpl20ConsumeSignedIntegerEPlm W
_ZN6google8protobuf10TextFormat6Parser10ParserImpl20ParserErrorCollector10AddWarningEiiRKNSt7__cxx1112basic_stringIcSt11char_traitsIcESaIcEEE W
_ZN6google8protobuf10TextFormat6Parser10ParserImpl20ParserErrorCollector8AddErrorEiiRKNSt7__cxx1112basic_stringIcSt11char_traitsIcESaIcEEE W
_ZN6google8protobuf10TextFormat6Parser10ParserImpl20ParserErrorCollectorD0Ev W
_ZN6google8protobuf10TextFormat6Parser10ParserImpl20ParserErrorCollectorD1Ev W
_ZN6google8protobuf10TextFormat6Parser10ParserImpl20ParserErrorCollectorD2Ev W
_ZN6google8protobuf10TextFormat6Parser10ParserImpl22ConsumeUnsignedIntegerEPmm W
_ZN6google8protobuf10TextFormat6Parser10ParserImpl7ConsumeERKNSt7__cxx1112basic_stringIcSt11char_traitsIcESaIcEEE W
_ZN6google8protobuf10TextFormat6Parser10ParserImpl9SkipFieldEv W
_ZN6google8protobuf10TextFormat6Parser14MergeUsingImplEPNS0_2io19ZeroCopyInputStreamEPNS0_7MessageEPNS2_10ParserImplE T
_ZN6google8protobuf10TextFormat6Parser15MergeFromStringERKNSt7__cxx1112basic_stringIcSt11char_traitsIcESaIcEEEPNS0_7MessageE T
_ZN6google8protobuf10TextFormat6Parser15ParseFromStringERKNSt7__cxx1112basic_stringIcSt11char_traitsIcESaIcEEEPNS0_7MessageE T
_ZN6google8protobuf10TextFormat6Parser25ParseFieldValueFromStringERKNSt7__cxx1112basic_stringIcSt11char_traitsIcESaIcEEEPKNS0_15FieldDescriptorEPNS0_7MessageE T
_ZN6google8protobuf10TextFormat6Parser5MergeEPNS0_2io19ZeroCopyInputStreamEPNS0_7MessageE T
_ZN6google8protobuf10TextFormat6Parser5ParseEPNS0_2io19ZeroCopyInputStreamEPNS0_7MessageE T
_ZN6google8protobuf10TextFormat6ParserC1Ev T
_ZN6google8protobuf10TextFormat6ParserC2Ev T
_ZN6google8protobuf10TextFormat6ParserD1Ev T
_ZN6google8protobuf10TextFormat6ParserD2Ev T
_ZN6google8protobuf10TextFormat7Printer13TextGenerator5PrintEPKcm W
_ZN6google8protobuf10TextFormat7Printer13TextGenerator5WriteEPKcm W
_ZN6google8protobuf10TextFormat7Printer13TextGeneratorD0Ev W
_ZN6google8protobuf10TextFormat7Printer13TextGeneratorD1Ev W
_ZN6google8protobuf10TextFormat7Printer13TextGeneratorD2Ev W
_ZN6google8protobuf10TextFormat7Printer24SetUseUtf8StringEscapingEb T
_ZN6google8protobuf10TextFormat7Printer25RegisterFieldValuePrinterEPKNS0_15FieldDescriptorEPKNS1_17FieldValuePrinterE T
_ZN6google8protobuf10TextFormat7Printer25RegisterFieldValuePrinterEPKNS0_15FieldDescriptorEPKNS1_21FastFieldValuePrinterE T
_ZN6google8protobuf10TextFormat7Printer27SetDefaultFieldValuePrinterEPKNS1_17FieldValuePrinterE T
_ZN6google8protobuf10TextFormat7Printer27SetDefaultFieldValuePrinterEPKNS1_21FastFieldValuePrinterE T
_ZN6google8protobuf10TextFormat7PrinterC1Ev T
_ZN6google8protobuf10TextFormat7PrinterC2Ev T
_ZN6google8protobuf10TextFormat7PrinterD1Ev T
_ZN6google8protobuf10TextFormat7PrinterD2Ev T
_ZN6google8protobuf11DoubleValue10SharedCtorEv T
_ZN6google8protobuf11DoubleValue10SharedDtorEv T
_ZN6google8protobuf11DoubleValue10descriptorEv T
_ZN6google8protobuf11DoubleValue12InternalSwapEPS1_ T
_ZN6google8protobuf11DoubleValue15UnsafeArenaSwapEPS1_ T
_ZN6google8protobuf11DoubleValue16default_instanceEv T
_ZN6google8protobuf11DoubleValue17kValueFieldNumberE R
_ZN6google8protobuf11DoubleValue21InitAsDefaultInstanceEv T
_ZN6google8protobuf11DoubleValue27MergePartialFromCodedStreamEPNS0_2io16CodedInputStreamE T
_ZN6google8protobuf11DoubleValue4SwapEPS1_ T
_ZN6google8protobuf11DoubleValue5ClearEv T
_ZN6google8protobuf11DoubleValue8CopyFromERKNS0_7MessageE T
_ZN6google8protobuf11DoubleValue8CopyFromERKS1_ T
_ZN6google8protobuf11DoubleValue9ArenaDtorEPv T
_ZN6google8protobuf11DoubleValue9MergeFromERKNS0_7MessageE T
_ZN6google8protobuf11DoubleValue9MergeFromERKS1_ T
_ZN6google8protobuf11DoubleValueC1EPNS0_5ArenaE T
_ZN6google8protobuf11DoubleValueC1ERKS1_ T
_ZN6google8protobuf11DoubleValueC1Ev T
_ZN6google8protobuf11DoubleValueC2EPNS0_5ArenaE T
_ZN6google8protobuf11DoubleValueC2ERKS1_ T
_ZN6google8protobuf11DoubleValueC2Ev T
_ZN6google8protobuf11DoubleValueD0Ev T
_ZN6google8protobuf11DoubleValueD1Ev T
_ZN6google8protobuf11DoubleValueD2Ev T
_ZN6google8protobuf11EnumOptions10SharedCtorEv T
_ZN6google8protobuf11EnumOptions10SharedDtorEv T
_ZN6google8protobuf11EnumOptions10descriptorEv T
_ZN6google8protobuf11EnumOptions12InternalSwapEPS1_ T
_ZN6google8protobuf11EnumOptions15UnsafeArenaSwapEPS1_ T
_ZN6google8protobuf11EnumOptions16default_instanceEv T
_ZN6google8protobuf11EnumOptions21InitAsDefaultInstanceEv T
_ZN6google8protobuf11EnumOptions22kAllowAliasFieldNumberE R
_ZN6google8protobuf11EnumOptions22kDeprecatedFieldNumberE R
_ZN6google8protobuf11EnumOptions27MergePartialFromCodedStreamEPNS0_2io16CodedInputStreamE T
_ZN6google8protobuf11EnumOptions31kUninterpretedOptionFieldNumberE R
_ZN6google8protobuf11EnumOptions4SwapEPS1_ T
_ZN6google8protobuf11EnumOptions5ClearEv T
_ZN6google8protobuf11EnumOptions8CopyFromERKNS0_7MessageE T
_ZN6google8protobuf11EnumOptions8CopyFromERKS1_ T
_ZN6google8protobuf11EnumOptions9ArenaDtorEPv T
_ZN6google8protobuf11EnumOptions9MergeFromERKNS0_7MessageE T
_ZN6google8protobuf11EnumOptions9MergeFromERKS1_ T
_ZN6google8protobuf11EnumOptionsC1EPNS0_5ArenaE T
_ZN6google8protobuf11EnumOptionsC1ERKS1_ T
_ZN6google8protobuf11EnumOptionsC1Ev T
_ZN6google8protobuf11EnumOptionsC2EPNS0_5ArenaE T
_ZN6google8protobuf11EnumOptionsC2ERKS1_ T
_ZN6google8protobuf11EnumOptionsC2Ev T
_ZN6google8protobuf11EnumOptionsD0Ev T
_ZN6google8protobuf11EnumOptionsD1Ev T
_ZN6google8protobuf11EnumOptionsD2Ev T
_ZN6google8protobuf11FileOptions10SharedCtorEv T
_ZN6google8protobuf11FileOptions10SharedDtorEv T
_ZN6google8protobuf11FileOptions10descriptorEv T
_ZN6google8protobuf11FileOptions12InternalSwapEPS1_ T
_ZN6google8protobuf11FileOptions12LITE_RUNTIMEE R
_ZN6google8protobuf11FileOptions15UnsafeArenaSwapEPS1_ T
_ZN6google8protobuf11FileOptions16OptimizeMode_MAXE R
_ZN6google8protobuf11FileOptions16OptimizeMode_MINE R
_ZN6google8protobuf11FileOptions16default_instanceEv T
_ZN6google8protobuf11FileOptions21InitAsDefaultInstanceEv T
_ZN6google8protobuf11FileOptions21kGoPackageFieldNumberE R
_ZN6google8protobuf11FileOptions22OptimizeMode_ARRAYSIZEE R
_ZN6google8protobuf11FileOptions22kDeprecatedFieldNumberE R
_ZN6google8protobuf11FileOptions23kJavaPackageFieldNumberE R
_ZN6google8protobuf11FileOptions23kOptimizeForFieldNumberE R
_ZN6google8protobuf11FileOptions23kSwiftPrefixFieldNumberE R
_ZN6google8protobuf11FileOptions24kPhpNamespaceFieldNumberE R
_ZN6google8protobuf11FileOptions26kCcEnableArenasFieldNumberE R
_ZN6google8protobuf11FileOptions26kPhpClassPrefixFieldNumberE R
_ZN6google8protobuf11FileOptions27MergePartialFromCodedStreamEPNS0_2io16CodedInputStreamE T
_ZN6google8protobuf11FileOptions27kCsharpNamespaceFieldNumberE R
_ZN6google8protobuf11FileOptions27kObjcClassPrefixFieldNumberE R
_ZN6google8protobuf11FileOptions29kCcGenericServicesFieldNumberE R
_ZN6google8protobuf11FileOptions29kJavaMultipleFilesFieldNumberE R
_ZN6google8protobuf11FileOptions29kPyGenericServicesFieldNumberE R
_ZN6google8protobuf11FileOptions30kJavaOuterClassnameFieldNumberE R
_ZN6google8protobuf11FileOptions30kPhpGenericServicesFieldNumberE R
_ZN6google8protobuf11FileOptions31kJavaGenericServicesFieldNumberE R
_ZN6google8protobuf11FileOptions31kJavaStringCheckUtf8FieldNumberE R
_ZN6google8protobuf11FileOptions31kUninterpretedOptionFieldNumberE R
_ZN6google8protobuf11FileOptions37kJavaGenerateEqualsAndHashFieldNumberE R
_ZN6google8protobuf11FileOptions4SwapEPS1_ T
_ZN6google8protobuf11FileOptions5ClearEv T
_ZN6google8protobuf11FileOptions5SPEEDE R
_ZN6google8protobuf11FileOptions8CopyFromERKNS0_7MessageE T
_ZN6google8protobuf11FileOptions8CopyFromERKS1_ T
_ZN6google8protobuf11FileOptions9ArenaDtorEPv T
_ZN6google8protobuf11FileOptions9CODE_SIZEE R
_ZN6google8protobuf11FileOptions9MergeFromERKNS0_7MessageE T
_ZN6google8protobuf11FileOptions9MergeFromERKS1_ T
_ZN6google8protobuf11FileOptionsC1EPNS0_5ArenaE T
_ZN6google8protobuf11FileOptionsC1ERKS1_ T
_ZN6google8protobuf11FileOptionsC1Ev T
_ZN6google8protobuf11FileOptionsC2EPNS0_5ArenaE T
_ZN6google8protobuf11FileOptionsC2ERKS1_ T
_ZN6google8protobuf11FileOptionsC2Ev T
_ZN6google8protobuf11FileOptionsD0Ev T
_ZN6google8protobuf11FileOptionsD1Ev T
_ZN6google8protobuf11FileOptionsD2Ev T
_ZN6google8protobuf11MapIteratorC1EPNS0_7MessageEPKNS0_15FieldDescriptorE W
_ZN6google8protobuf11MapIteratorC2EPNS0_7MessageEPKNS0_15FieldDescriptorE W
_ZN6google8protobuf11MapIteratorD1Ev W
_ZN6google8protobuf11MapIteratorD2Ev W
_ZN6google8protobuf11StringValue10SharedCtorEv T
_ZN6google8protobuf11StringValue10SharedDtorEv T
_ZN6google8protobuf11StringValue10descriptorEv T
_ZN6google8protobuf11StringValue12InternalSwapEPS1_ T
_ZN6google8protobuf11StringValue15UnsafeArenaSwapEPS1_ T
_ZN6google8protobuf11StringValue16default_instanceEv T
_ZN6google8protobuf11StringValue17kValueFieldNumberE R
_ZN6google8protobuf11StringValue21InitAsDefaultInstanceEv T
_ZN6google8protobuf11StringValue27MergePartialFromCodedStreamEPNS0_2io16CodedInputStreamE T
_ZN6google8protobuf11StringValue4SwapEPS1_ T
_ZN6google8protobuf11StringValue5ClearEv T
_ZN6google8protobuf11StringValue8CopyFromERKNS0_7MessageE T
_ZN6google8protobuf11StringValue8CopyFromERKS1_ T
_ZN6google8protobuf11StringValue9ArenaDtorEPv T
_ZN6google8protobuf11StringValue9MergeFromERKNS0_7MessageE T
_ZN6google8protobuf11StringValue9MergeFromERKS1_ T
_ZN6google8protobuf11StringValueC1EPNS0_5ArenaE T
_ZN6google8protobuf11StringValueC1ERKS1_ T
_ZN6google8protobuf11StringValueC1Ev T
_ZN6google8protobuf11StringValueC2EPNS0_5ArenaE T
_ZN6google8protobuf11StringValueC2ERKS1_ T
_ZN6google8protobuf11StringValueC2Ev T
_ZN6google8protobuf11StringValueD0Ev T
_ZN6google8protobuf11StringValueD1Ev T
_ZN6google8protobuf11StringValueD2Ev T
_ZN6google8protobuf11UInt32Value10SharedCtorEv T
_ZN6google8protobuf11UInt32Value10SharedDtorEv T
_ZN6google8protobuf11UInt32Value10descriptorEv T
_ZN6google8protobuf11UInt32Value12InternalSwapEPS1_ T
_ZN6google8protobuf11UInt32Value15UnsafeArenaSwapEPS1_ T
_ZN6google8protobuf11UInt32Value16default_instanceEv T
_ZN6google8protobuf11UInt32Value17kValueFieldNumberE R
_ZN6google8protobuf11UInt32Value21InitAsDefaultInstanceEv T
_ZN6google8protobuf11UInt32Value27MergePartialFromCodedStreamEPNS0_2io16CodedInputStreamE T
_ZN6google8protobuf11UInt32Value4SwapEPS1_ T
_ZN6google8protobuf11UInt32Value5ClearEv T
_ZN6google8protobuf11UInt32Value8CopyFromERKNS0_7MessageE T
_ZN6google8protobuf11UInt32Value8CopyFromERKS1_ T
_ZN6google8protobuf11UInt32Value9ArenaDtorEPv T
_ZN6google8protobuf11UInt32Value9MergeFromERKNS0_7MessageE T
_ZN6google8protobuf11UInt32Value9MergeFromERKS1_ T
_ZN6google8protobuf11UInt32ValueC1EPNS0_5ArenaE T
_ZN6google8protobuf11UInt32ValueC1ERKS1_ T
_ZN6google8protobuf11UInt32ValueC1Ev T
_ZN6google8protobuf11UInt32ValueC2EPNS0_5ArenaE T
_ZN6google8protobuf11UInt32ValueC2ERKS1_ T
_ZN6google8protobuf11UInt32ValueC2Ev T
_ZN6google8protobuf11UInt32ValueD0Ev T
_ZN6google8protobuf11UInt32ValueD1Ev T
_ZN6google8protobuf11UInt32ValueD2Ev T
_ZN6google8protobuf11UInt64Value10SharedCtorEv T
_ZN6google8protobuf11UInt64Value10SharedDtorEv T
_ZN6google8protobuf11UInt64Value10descriptorEv T
_ZN6google8protobuf11UInt64Value12InternalSwapEPS1_ T
_ZN6google8protobuf11UInt64Value15UnsafeArenaSwapEPS1_ T
_ZN6google8protobuf11UInt64Value16default_instanceEv T
_ZN6google8protobuf11UInt64Value17kValueFieldNumberE R
_ZN6google8protobuf11UInt64Value21InitAsDefaultInstanceEv T
_ZN6google8protobuf11UInt64Value27MergePartialFromCodedStreamEPNS0_2io16CodedInputStreamE T
_ZN6google8protobuf11UInt64Value4SwapEPS1_ T
_ZN6google8protobuf11UInt64Value5ClearEv T
_ZN6google8protobuf11UInt64Value8CopyFromERKNS0_7MessageE T
_ZN6google8protobuf11UInt64Value8CopyFromERKS1_ T
_ZN6google8protobuf11UInt64Value9ArenaDtorEPv T
_ZN6google8protobuf11UInt64Value9MergeFromERKNS0_7MessageE T
_ZN6google8protobuf11UInt64Value9MergeFromERKS1_ T
_ZN6google8protobuf11UInt64ValueC1EPNS0_5ArenaE T
_ZN6google8protobuf11UInt64ValueC1ERKS1_ T
_ZN6google8protobuf11UInt64ValueC1Ev T
_ZN6google8protobuf11UInt64ValueC2EPNS0_5ArenaE T
_ZN6google8protobuf11UInt64ValueC2ERKS1_ T
_ZN6google8protobuf11UInt64ValueC2Ev T
_ZN6google8protobuf11UInt64ValueD0Ev T
_ZN6google8protobuf11UInt64ValueD1Ev T
_ZN6google8protobuf11UInt64ValueD2Ev T
_ZN6google8protobuf11safe_strtodENS0_11StringPieceEPd W
_ZN6google8protobuf12FieldOptions10JSType_MAXE R
_ZN6google8protobuf12FieldOptions10JSType_MINE R
_ZN6google8protobuf12FieldOptions10SharedCtorEv T
_ZN6google8protobuf12FieldOptions10SharedDtorEv T
_ZN6google8protobuf12FieldOptions10descriptorEv T
_ZN6google8protobuf12FieldOptions12InternalSwapEPS1_ T
_ZN6google8protobuf12FieldOptions12STRING_PIECEE R
_ZN6google8protobuf12FieldOptions15CType_ARRAYSIZEE R
_ZN6google8protobuf12FieldOptions15UnsafeArenaSwapEPS1_ T
_ZN6google8protobuf12FieldOptions16JSType_ARRAYSIZEE R
_ZN6google8protobuf12FieldOptions16default_instanceEv T
_ZN6google8protobuf12FieldOptions16kLazyFieldNumberE R
_ZN6google8protobuf12FieldOptions16kWeakFieldNumberE R
_ZN6google8protobuf12FieldOptions17kCtypeFieldNumberE R
_ZN6google8protobuf12FieldOptions18kJstypeFieldNumberE R
_ZN6google8protobuf12FieldOptions18kPackedFieldNumberE R
_ZN6google8protobuf12FieldOptions21InitAsDefaultInstanceEv T
_ZN6google8protobuf12FieldOptions22kDeprecatedFieldNumberE R
_ZN6google8protobuf12FieldOptions27MergePartialFromCodedStreamEPNS0_2io16CodedInputStreamE T
_ZN6google8protobuf12FieldOptions31kUninterpretedOptionFieldNumberE R
_ZN6google8protobuf12FieldOptions4CORDE R
_ZN6google8protobuf12FieldOptions4SwapEPS1_ T
_ZN6google8protobuf12FieldOptions5ClearEv T
_ZN6google8protobuf12FieldOptions6STRINGE R
_ZN6google8protobuf12FieldOptions8CopyFromERKNS0_7MessageE T
_ZN6google8protobuf12FieldOptions8CopyFromERKS1_ T
_ZN6google8protobuf12FieldOptions9ArenaDtorEPv T
_ZN6google8protobuf12FieldOptions9CType_MAXE R
_ZN6google8protobuf12FieldOptions9CType_MINE R
_ZN6google8protobuf12FieldOptions9JS_NORMALE R
_ZN6google8protobuf12FieldOptions9JS_NUMBERE R
_ZN6google8protobuf12FieldOptions9JS_STRINGE R
_ZN6google8protobuf12FieldOptions9MergeFromERKNS0_7MessageE T
_ZN6google8protobuf12FieldOptions9MergeFromERKS1_ T
_ZN6google8protobuf12FieldOptionsC1EPNS0_5ArenaE T
_ZN6google8protobuf12FieldOptionsC1ERKS1_ T
_ZN6google8protobuf12FieldOptionsC1Ev T
_ZN6google8protobuf12FieldOptionsC2EPNS0_5ArenaE T
_ZN6google8protobuf12FieldOptionsC2ERKS1_ T
_ZN6google8protobuf12FieldOptionsC2Ev T
_ZN6google8protobuf12FieldOptionsD0Ev T
_ZN6google8protobuf12FieldOptionsD1Ev T
_ZN6google8protobuf12FieldOptionsD2Ev T
_ZN6google8protobuf12OneofOptions10SharedCtorEv T
_ZN6google8protobuf12OneofOptions10SharedDtorEv T
_ZN6google8protobuf12OneofOptions10descriptorEv T
_ZN6google8protobuf12OneofOptions12InternalSwapEPS1_ T
_ZN6google8protobuf12OneofOptions15UnsafeArenaSwapEPS1_ T
_ZN6google8protobuf12OneofOptions16default_instanceEv T
_ZN6google8protobuf12OneofOptions21InitAsDefaultInstanceEv T
_ZN6google8protobuf12OneofOptions27MergePartialFromCodedStreamEPNS0_2io16CodedInputStreamE T
_ZN6google8protobuf12OneofOptions31kUninterpretedOptionFieldNumberE R
_ZN6google8protobuf12OneofOptions4SwapEPS1_ T
_ZN6google8protobuf12OneofOptions5ClearEv T
_ZN6google8protobuf12OneofOptions8CopyFromERKNS0_7MessageE T
_ZN6google8protobuf12OneofOptions8CopyFromERKS1_ T
_ZN6google8protobuf12OneofOptions9ArenaDtorEPv T
_ZN6google8protobuf12OneofOptions9MergeFromERKNS0_7MessageE T
_ZN6google8protobuf12OneofOptions9MergeFromERKS1_ T
_ZN6google8protobuf12OneofOptionsC1EPNS0_5ArenaE T
_ZN6google8protobuf12OneofOptionsC1ERKS1_ T
_ZN6google8protobuf12OneofOptionsC1Ev T
_ZN6google8protobuf12OneofOptionsC2EPNS0_5ArenaE T
_ZN6google8protobuf12OneofOptionsC2ERKS1_ T
_ZN6google8protobuf12OneofOptionsC2Ev T
_ZN6google8protobuf12OneofOptionsD0Ev T
_ZN6google8protobuf12OneofOptionsD1Ev T
_ZN6google8protobuf12OneofOptionsD2Ev T
_ZN6google8protobuf12UnknownField5ResetEv T
_ZN6google8protobuf12UnknownField6DeleteEv T
_ZN6google8protobuf12UnknownField8DeepCopyERKS1_ T
_ZN6google8protobuf12safe_strto32ENS0_11StringPieceEPi W
_ZN6google8protobuf12safe_strto64ENS0_11StringPieceEPl W
_ZN6google8protobuf13MethodOptions10IDEMPOTENTE R
_ZN6google8protobuf13MethodOptions10SharedCtorEv T
_ZN6google8protobuf13MethodOptions10SharedDtorEv T
_ZN6google8protobuf13MethodOptions10descriptorEv T
_ZN6google8protobuf13MethodOptions12InternalSwapEPS1_ T
_ZN6google8protobuf13MethodOptions15NO_SIDE_EFFECTSE R
_ZN6google8protobuf13MethodOptions15UnsafeArenaSwapEPS1_ T
_ZN6google8protobuf13MethodOptions16default_instanceEv T
_ZN6google8protobuf13MethodOptions19IDEMPOTENCY_UNKNOWNE R
_ZN6google8protobuf13MethodOptions20IdempotencyLevel_MAXE R
_ZN6google8protobuf13MethodOptions20IdempotencyLevel_MINE R
_ZN6google8protobuf13MethodOptions21InitAsDefaultInstanceEv T
_ZN6google8protobuf13MethodOptions22kDeprecatedFieldNumberE R
_ZN6google8protobuf13MethodOptions26IdempotencyLevel_ARRAYSIZEE R
_ZN6google8protobuf13MethodOptions27MergePartialFromCodedStreamEPNS0_2io16CodedInputStreamE T
_ZN6google8protobuf13MethodOptions28kIdempotencyLevelFieldNumberE R
_ZN6google8protobuf13MethodOptions31kUninterpretedOptionFieldNumberE R
_ZN6google8protobuf13MethodOptions4SwapEPS1_ T
_ZN6google8protobuf13MethodOptions5ClearEv T
_ZN6google8protobuf13MethodOptions8CopyFromERKNS0_7MessageE T
_ZN6google8protobuf13MethodOptions8CopyFromERKS1_ T
_ZN6google8protobuf13MethodOptions9ArenaDtorEPv T
_ZN6google8protobuf13MethodOptions9MergeFromERKNS0_7MessageE T
_ZN6google8protobuf13MethodOptions9MergeFromERKS1_ T
_ZN6google8protobuf13MethodOptionsC1EPNS0_5ArenaE T
_ZN6google8protobuf13MethodOptionsC1ERKS1_ T
_ZN6google8protobuf13MethodOptionsC1Ev T
_ZN6google8protobuf13MethodOptionsC2EPNS0_5ArenaE T
_ZN6google8protobuf13MethodOptionsC2ERKS1_ T
_ZN6google8protobuf13MethodOptionsC2Ev T
_ZN6google8protobuf13MethodOptionsD0Ev T
_ZN6google8protobuf13MethodOptionsD1Ev T
_ZN6google8protobuf13MethodOptionsD2Ev T
_ZN6google8protobuf13RepeatedFieldIbE4SwapEPS2_ W
_ZN6google8protobuf13RepeatedFieldIbE7ReserveEi W
_ZN6google8protobuf13RepeatedFieldIdE4SwapEPS2_ W
_ZN6google8protobuf13RepeatedFieldIdE7ReserveEi W
_ZN6google8protobuf13RepeatedFieldIfE4SwapEPS2_ W
_ZN6google8protobuf13RepeatedFieldIfE7ReserveEi W
_ZN6google8protobuf13RepeatedFieldIiE4SwapEPS2_ W
_ZN6google8protobuf13RepeatedFieldIiE7ReserveEi W
_ZN6google8protobuf13RepeatedFieldIjE4SwapEPS2_ W
_ZN6google8protobuf13RepeatedFieldIjE7ReserveEi W
_ZN6google8protobuf13RepeatedFieldIlE3AddERKl W
_ZN6google8protobuf13RepeatedFieldIlE4SwapEPS2_ W
_ZN6google8protobuf13RepeatedFieldIlE7ReserveEi W
_ZN6google8protobuf13RepeatedFieldImE4SwapEPS2_ W
_ZN6google8protobuf13RepeatedFieldImE7ReserveEi W
_ZN6google8protobuf13RpcControllerD0Ev T
_ZN6google8protobuf13RpcControllerD1Ev T
_ZN6google8protobuf13RpcControllerD2Ev T
_ZN6google8protobuf13SourceContext10SharedCtorEv T
_ZN6google8protobuf13SourceContext10SharedDtorEv T
_ZN6google8protobuf13SourceContext10descriptorEv T
_ZN6google8protobuf13SourceContext12InternalSwapEPS1_ T
_ZN6google8protobuf13SourceContext16default_instanceEv T
_ZN6google8protobuf13SourceContext20kFileNameFieldNumberE R
_ZN6google8protobuf13SourceContext21InitAsDefaultInstanceEv T
_ZN6google8protobuf13SourceContext27MergePartialFromCodedStreamEPNS0_2io16CodedInputStreamE T
_ZN6google8protobuf13SourceContext4SwapEPS1_ T
_ZN6google8protobuf13SourceContext5ClearEv T
_ZN6google8protobuf13SourceContext8CopyFromERKNS0_7MessageE T
_ZN6google8protobuf13SourceContext8CopyFromERKS1_ T
_ZN6google8protobuf13SourceContext9MergeFromERKNS0_7MessageE T
_ZN6google8protobuf13SourceContext9MergeFromERKS1_ T
_ZN6google8protobuf13SourceContextC1ERKS1_ T
_ZN6google8protobuf13SourceContextC1Ev T
_ZN6google8protobuf13SourceContextC2ERKS1_ T
_ZN6google8protobuf13SourceContextC2Ev T
_ZN6google8protobuf13SourceContextD0Ev T
_ZN6google8protobuf13SourceContextD1Ev T
_ZN6google8protobuf13SourceContextD2Ev T
_ZN6google8protobuf13safe_strtou32ENS0_11StringPieceEPj W
_ZN6google8protobuf13safe_strtou64ENS0_11StringPieceEPm W
_ZN6google8protobuf14DescriptorPool14ErrorCollector10AddWarningERKNSt7__cxx1112basic_stringIcSt11char_traitsIcESaIcEEESA_PKNS0_7MessageENS2_13ErrorLocationESA_ W
_ZN6google8protobuf14DescriptorPool14ErrorCollectorD0Ev T
_ZN6google8protobuf14DescriptorPool14ErrorCollectorD1Ev T
_ZN6google8protobuf14DescriptorPool14ErrorCollectorD2Ev T
_ZN6google8protobuf14DescriptorPool14generated_poolEv T
_ZN6google8protobuf14DescriptorPool23internal_generated_poolEv T
_ZN6google8protobuf14DescriptorPool24AddUnusedImportTrackFileERKNSt7__cxx1112basic_stringIcSt11char_traitsIcESaIcEEE T
_ZN6google8protobuf14DescriptorPool24InternalAddGeneratedFileEPKvi T
_ZN6google8protobuf14DescriptorPool25BuildFileCollectingErrorsERKNS0_19FileDescriptorProtoEPNS1_14ErrorCollectorE T
_ZN6google8protobuf14DescriptorPool27ClearUnusedImportTrackFilesEv T
_ZN6google8protobuf14DescriptorPool31InternalDontEnforceDependenciesEv T
_ZN6google8protobuf14DescriptorPool6Tables12AddExtensionEPKNS0_15FieldDescriptorE T
_ZN6google8protobuf14DescriptorPool6Tables13AddCheckpointEv T
_ZN6google8protobuf14DescriptorPool6Tables13AllocateBytesEi T
_ZN6google8protobuf14DescriptorPool6Tables14AllocateStringERKNSt7__cxx1112basic_stringIcSt11char_traitsIcESaIcEEE T
_ZN6google8protobuf14DescriptorPool6Tables16FindByNameHelperEPKS1_RKNSt7__cxx1112basic_stringIcSt11char_traitsIcESaIcEEE T
_ZN6google8protobuf14DescriptorPool6Tables18AllocateFileTablesEv T
_ZN6google8protobuf14DescriptorPool6Tables19AllocateOnceDynamicEv T
_ZN6google8protobuf14DescriptorPool6Tables19ClearLastCheckpointEv T
_ZN6google8protobuf14DescriptorPool6Tables24RollbackToLastCheckpointEv T
_ZN6google8protobuf14DescriptorPool6Tables7AddFileEPKNS0_14FileDescriptorE T
_ZN6google8protobuf14DescriptorPool6Tables9AddSymbolERKNSt7__cxx1112basic_stringIcSt11char_traitsIcESaIcEEENS0_6SymbolE T
_ZN6google8protobuf14DescriptorPool6TablesC1Ev T
_ZN6google8protobuf14DescriptorPool6TablesC2Ev T
_ZN6google8protobuf14DescriptorPool6TablesD1Ev T
_ZN6google8protobuf14DescriptorPool6TablesD2Ev T
_ZN6google8protobuf14DescriptorPool9BuildFileERKNS0_19FileDescriptorProtoE T
_ZN6google8protobuf14DescriptorPoolC1EPKS1_ T
_ZN6google8protobuf14DescriptorPoolC1EPNS0_18DescriptorDatabaseEPNS1_14ErrorCollectorE T
_ZN6google8protobuf14DescriptorPoolC1Ev T
_ZN6google8protobuf14DescriptorPoolC2EPKS1_ T
_ZN6google8protobuf14DescriptorPoolC2EPNS0_18DescriptorDatabaseEPNS1_14ErrorCollectorE T
_ZN6google8protobuf14DescriptorPoolC2Ev T
_ZN6google8protobuf14DescriptorPoolD1Ev T
_ZN6google8protobuf14DescriptorPoolD2Ev T
_ZN6google8protobuf14DynamicMessage10SharedCtorEb T
_ZN6google8protobuf14DynamicMessage19CrossLinkPrototypesEv T
_ZN6google8protobuf14DynamicMessageC1EPKNS1_8TypeInfoE T
_ZN6google8protobuf14DynamicMessageC1EPKNS1_8TypeInfoEPNS0_5ArenaE T
_ZN6google8protobuf14DynamicMessageC1EPKNS1_8TypeInfoEb T
_ZN6google8protobuf14DynamicMessageC2EPKNS1_8TypeInfoE T
_ZN6google8protobuf14DynamicMessageC2EPKNS1_8TypeInfoEPNS0_5ArenaE T
_ZN6google8protobuf14DynamicMessageC2EPKNS1_8TypeInfoEb T
_ZN6google8protobuf14DynamicMessageD0Ev T
_ZN6google8protobuf14DynamicMessageD1Ev T
_ZN6google8protobuf14DynamicMessageD2Ev T
_ZN6google8protobuf14FileDescriptor10SyntaxNameENS1_6SyntaxE T
_ZN6google8protobuf14FileDescriptor20DependenciesOnceInitEPKS1_ T
_ZN6google8protobuf14GoogleOnceInitIKNS0_15FieldDescriptorEEEvPlPFvPT_ES6_ W
_ZN6google8protobuf14MessageFactory17generated_factoryEv T
_ZN6google8protobuf14MessageFactory29InternalRegisterGeneratedFileEPKcPFvRKNSt7__cxx1112basic_stringIcSt11char_traitsIcESaIcEEEE T
_ZN6google8protobuf14MessageFactory32InternalRegisterGeneratedMessageEPKNS0_10DescriptorEPKNS0_7MessageE T
_ZN6google8protobuf14MessageFactoryD0Ev T
_ZN6google8protobuf14MessageFactoryD1Ev T
_ZN6google8protobuf14MessageFactoryD2Ev T
_ZN6google8protobuf14MessageOptions10SharedCtorEv T
_ZN6google8protobuf14MessageOptions10SharedDtorEv T
_ZN6google8protobuf14MessageOptions10descriptorEv T
_ZN6google8protobuf14MessageOptions12InternalSwapEPS1_ T
_ZN6google8protobuf14MessageOptions15UnsafeArenaSwapEPS1_ T
_ZN6google8protobuf14MessageOptions16default_instanceEv T
_ZN6google8protobuf14MessageOptions20kMapEntryFieldNumberE R
_ZN6google8protobuf14MessageOptions21InitAsDefaultInstanceEv T
_ZN6google8protobuf14MessageOptions22kDeprecatedFieldNumberE R
_ZN6google8protobuf14MessageOptions27MergePartialFromCodedStreamEPNS0_2io16CodedInputStreamE T
_ZN6google8protobuf14MessageOptions31kUninterpretedOptionFieldNumberE R
_ZN6google8protobuf14MessageOptions32kMessageSetWireFormatFieldNumberE R
_ZN6google8protobuf14MessageOptions40kNoStandardDescriptorAccessorFieldNumberE R
_ZN6google8protobuf14MessageOptions4SwapEPS1_ T
_ZN6google8protobuf14MessageOptions5ClearEv T
_ZN6google8protobuf14MessageOptions8CopyFromERKNS0_7MessageE T
_ZN6google8protobuf14MessageOptions8CopyFromERKS1_ T
_ZN6google8protobuf14MessageOptions9ArenaDtorEPv T
_ZN6google8protobuf14MessageOptions9MergeFromERKNS0_7MessageE T
_ZN6google8protobuf14MessageOptions9MergeFromERKS1_ T
_ZN6google8protobuf14MessageOptionsC1EPNS0_5ArenaE T
_ZN6google8protobuf14MessageOptionsC1ERKS1_ T
_ZN6google8protobuf14MessageOptionsC1Ev T
_ZN6google8protobuf14MessageOptionsC2EPNS0_5ArenaE T
_ZN6google8protobuf14MessageOptionsC2ERKS1_ T
_ZN6google8protobuf14MessageOptionsC2Ev T
_ZN6google8protobuf14MessageOptionsD0Ev T
_ZN6google8protobuf14MessageOptionsD1Ev T
_ZN6google8protobuf14MessageOptionsD2Ev T
_ZN6google8protobuf14ServiceOptions10SharedCtorEv T
_ZN6google8protobuf14ServiceOptions10SharedDtorEv T
_ZN6google8protobuf14ServiceOptions10descriptorEv T
_ZN6google8protobuf14ServiceOptions12InternalSwapEPS1_ T
_ZN6google8protobuf14ServiceOptions15UnsafeArenaSwapEPS1_ T
_ZN6google8protobuf14ServiceOptions16default_instanceEv T
_ZN6google8protobuf14ServiceOptions21InitAsDefaultInstanceEv T
_ZN6google8protobuf14ServiceOptions22kDeprecatedFieldNumberE R
_ZN6google8protobuf14ServiceOptions27MergePartialFromCodedStreamEPNS0_2io16CodedInputStreamE T
_ZN6google8protobuf14ServiceOptions31kUninterpretedOptionFieldNumberE R
_ZN6google8protobuf14ServiceOptions4SwapEPS1_ T
_ZN6google8protobuf14ServiceOptions5ClearEv T
_ZN6google8protobuf14ServiceOptions8CopyFromERKNS0_7MessageE T
_ZN6google8protobuf14ServiceOptions8CopyFromERKS1_ T
_ZN6google8protobuf14ServiceOptions9ArenaDtorEPv T
_ZN6google8protobuf14ServiceOptions9MergeFromERKNS0_7MessageE T
_ZN6google8protobuf14ServiceOptions9MergeFromERKS1_ T
_ZN6google8protobuf14ServiceOptionsC1EPNS0_5ArenaE T
_ZN6google8protobuf14ServiceOptionsC1ERKS1_ T
_ZN6google8protobuf14ServiceOptionsC1Ev T
_ZN6google8protobuf14ServiceOptionsC2EPNS0_5ArenaE T
_ZN6google8protobuf14ServiceOptionsC2ERKS1_ T
_ZN6google8protobuf14ServiceOptionsC2Ev T
_ZN6google8protobuf14ServiceOptionsD0Ev T
_ZN6google8protobuf14ServiceOptionsD1Ev T
_ZN6google8protobuf14ServiceOptionsD2Ev T
_ZN6google8protobuf14SourceCodeInfo10SharedCtorEv T
_ZN6google8protobuf14SourceCodeInfo10SharedDtorEv T
_ZN6google8protobuf14SourceCodeInfo10descriptorEv T
_ZN6google8protobuf14SourceCodeInfo12InternalSwapEPS1_ T
_ZN6google8protobuf14SourceCodeInfo15UnsafeArenaSwapEPS1_ T
_ZN6google8protobuf14SourceCodeInfo16default_instanceEv T
_ZN6google8protobuf14SourceCodeInfo20kLocationFieldNumberE R
_ZN6google8protobuf14SourceCodeInfo21InitAsDefaultInstanceEv T
_ZN6google8protobuf14SourceCodeInfo27MergePartialFromCodedStreamEPNS0_2io16CodedInputStreamE T
_ZN6google8protobuf14SourceCodeInfo4SwapEPS1_ T
_ZN6google8protobuf14SourceCodeInfo5ClearEv T
_ZN6google8protobuf14SourceCodeInfo8CopyFromERKNS0_7MessageE T
_ZN6google8protobuf14SourceCodeInfo8CopyFromERKS1_ T
_ZN6google8protobuf14SourceCodeInfo9ArenaDtorEPv T
_ZN6google8protobuf14SourceCodeInfo9MergeFromERKNS0_7MessageE T
_ZN6google8protobuf14SourceCodeInfo9MergeFromERKS1_ T
_ZN6google8protobuf14SourceCodeInfoC1EPNS0_5ArenaE T
_ZN6google8protobuf14SourceCodeInfoC1ERKS1_ T
_ZN6google8protobuf14SourceCodeInfoC1Ev T
_ZN6google8protobuf14SourceCodeInfoC2EPNS0_5ArenaE T
_ZN6google8protobuf14SourceCodeInfoC2ERKS1_ T
_ZN6google8protobuf14SourceCodeInfoC2Ev T
_ZN6google8protobuf14SourceCodeInfoD0Ev T
_ZN6google8protobuf14SourceCodeInfoD1Ev T
_ZN6google8protobuf14SourceCodeInfoD2Ev T
_ZN6google8protobuf14SourceLocationD1Ev W
_ZN6google8protobuf14SourceLocationD2Ev W
_ZN6google8protobuf14Syntax_IsValidEi T
_ZN6google8protobuf15CheckFieldIndexEPKNS0_15FieldDescriptorEi T
_ZN6google8protobuf15DescriptorProto10SharedCtorEv T
_ZN6google8protobuf15DescriptorProto10SharedDtorEv T
_ZN6google8protobuf15DescriptorProto10descriptorEv T
_ZN6google8protobuf15DescriptorProto12InternalSwapEPS1_ T
_ZN6google8protobuf15DescriptorProto15UnsafeArenaSwapEPS1_ T
_ZN6google8protobuf15DescriptorProto16default_instanceEv T
_ZN6google8protobuf15DescriptorProto16kNameFieldNumberE R
_ZN6google8protobuf15DescriptorProto17kFieldFieldNumberE R
_ZN6google8protobuf15DescriptorProto19kOptionsFieldNumberE R
_ZN6google8protobuf15DescriptorProto20kEnumTypeFieldNumberE R
_ZN6google8protobuf15DescriptorProto21InitAsDefaultInstanceEv T
_ZN6google8protobuf15DescriptorProto21_slow_mutable_optionsEv T
_ZN6google8protobuf15DescriptorProto21kExtensionFieldNumberE R
_ZN6google8protobuf15DescriptorProto21kOneofDeclFieldNumberE R
_ZN6google8protobuf15DescriptorProto22kNestedTypeFieldNumberE R
_ZN6google8protobuf15DescriptorProto24kReservedNameFieldNumberE R
_ZN6google8protobuf15DescriptorProto25kReservedRangeFieldNumberE R
_ZN6google8protobuf15DescriptorProto26kExtensionRangeFieldNumberE R
_ZN6google8protobuf15DescriptorProto27MergePartialFromCodedStreamEPNS0_2io16CodedInputStreamE T
_ZN6google8protobuf15DescriptorProto34unsafe_arena_set_allocated_optionsEPNS0_14MessageOptionsE T
_ZN6google8protobuf15DescriptorProto4SwapEPS1_ T
_ZN6google8protobuf15DescriptorProto5ClearEv T
_ZN6google8protobuf15DescriptorProto8CopyFromERKNS0_7MessageE T
_ZN6google8protobuf15DescriptorProto8CopyFromERKS1_ T
_ZN6google8protobuf15DescriptorProto9ArenaDtorEPv T
_ZN6google8protobuf15DescriptorProto9MergeFromERKNS0_7MessageE T
_ZN6google8protobuf15DescriptorProto9MergeFromERKS1_ T
_ZN6google8protobuf15DescriptorProtoC1EPNS0_5ArenaE T
_ZN6google8protobuf15DescriptorProtoC1ERKS1_ T
_ZN6google8protobuf15DescriptorProtoC1Ev T
_ZN6google8protobuf15DescriptorProtoC2EPNS0_5ArenaE T
_ZN6google8protobuf15DescriptorProtoC2ERKS1_ T
_ZN6google8protobuf15DescriptorProtoC2Ev T
_ZN6google8protobuf15DescriptorProtoD0Ev T
_ZN6google8protobuf15DescriptorProtoD1Ev T
_ZN6google8protobuf15DescriptorProtoD2Ev T
_ZN6google8protobuf15FieldDescriptor10kMaxNumberE R
_ZN6google8protobuf15FieldDescriptor11kTypeToNameE D 0000000000000098
_ZN6google8protobuf15FieldDescriptor12TypeOnceInitEPKS1_ T
_ZN6google8protobuf15FieldDescriptor12kLabelToNameE D 0000000000000020
_ZN6google8protobuf15FieldDescriptor14kCppTypeToNameE D 0000000000000058
_ZN6google8protobuf15FieldDescriptor17kTypeToCppTypeMapE R
_ZN6google8protobuf15FieldDescriptor19kLastReservedNumberE R
_ZN6google8protobuf15FieldDescriptor20kFirstReservedNumberE R
_ZN6google8protobuf15UnknownFieldSet10AddFixed32Eij T
_ZN6google8protobuf15UnknownFieldSet10AddFixed64Eim T
_ZN6google8protobuf15UnknownFieldSet13ClearFallbackEv T
_ZN6google8protobuf15UnknownFieldSet14DeleteByNumberEi T
_ZN6google8protobuf15UnknownFieldSet14DeleteSubrangeEii T
_ZN6google8protobuf15UnknownFieldSet14ParseFromArrayEPKvi T
_ZN6google8protobuf15UnknownFieldSet16default_instanceEv T
_ZN6google8protobuf15UnknownFieldSet17InternalMergeFromERKS1_ T
_ZN6google8protobuf15UnknownFieldSet18AddLengthDelimitedB5cxx11Ei T
_ZN6google8protobuf15UnknownFieldSet19MergeFromAndDestroyEPS1_ T
_ZN6google8protobuf15UnknownFieldSet20MergeFromCodedStreamEPNS0_2io16CodedInputStreamE T
_ZN6google8protobuf15UnknownFieldSet20ParseFromCodedStreamEPNS0_2io16CodedInputStreamE T
_ZN6google8protobuf15UnknownFieldSet22MergeToInternalMetdataERKS1_PNS0_8internal25InternalMetadataWithArenaE T
_ZN6google8protobuf15UnknownFieldSet23ParseFromZeroCopyStreamEPNS0_2io19ZeroCopyInputStreamE T
_ZN6google8protobuf15UnknownFieldSet8AddFieldERKNS0_12UnknownFieldE T
_ZN6google8protobuf15UnknownFieldSet8AddGroupEi T
_ZN6google8protobuf15UnknownFieldSet9AddVarintEim T
_ZN6google8protobuf15UnknownFieldSet9MergeFromERKS1_ T
_ZN6google8protobuf16DynamicMapSorter25MapEntryMessageComparatorclEPKNS0_7MessageES5_ W
_ZN6google8protobuf16EnumValueOptions10SharedCtorEv T
_ZN6google8protobuf16EnumValueOptions10SharedDtorEv T
_ZN6google8protobuf16EnumValueOptions10descriptorEv T
_ZN6google8protobuf16EnumValueOptions12InternalSwapEPS1_ T
_ZN6google8protobuf16EnumValueOptions15UnsafeArenaSwapEPS1_ T
_ZN6google8protobuf16EnumValueOptions16default_instanceEv T
_ZN6google8protobuf16EnumValueOptions21InitAsDefaultInstanceEv T
_ZN6google8protobuf16EnumValueOptions22kDeprecatedFieldNumberE R
_ZN6google8protobuf16EnumValueOptions27MergePartialFromCodedStreamEPNS0_2io16CodedInputStreamE T
_ZN6google8protobuf16EnumValueOptions31kUninterpretedOptionFieldNumberE R
_ZN6google8protobuf16EnumValueOptions4SwapEPS1_ T
_ZN6google8protobuf16EnumValueOptions5ClearEv T
_ZN6google8protobuf16EnumValueOptions8CopyFromERKNS0_7MessageE T
_ZN6google8protobuf16EnumValueOptions8CopyFromERKS1_ T
_ZN6google8protobuf16EnumValueOptions9ArenaDtorEPv T
_ZN6google8protobuf16EnumValueOptions9MergeFromERKNS0_7MessageE T
_ZN6google8protobuf16EnumValueOptions9MergeFromERKS1_ T
_ZN6google8protobuf16EnumValueOptionsC1EPNS0_5ArenaE T
_ZN6google8protobuf16EnumValueOptionsC1ERKS1_ T
_ZN6google8protobuf16EnumValueOptionsC1Ev T
_ZN6google8protobuf16EnumValueOptionsC2EPNS0_5ArenaE T
_ZN6google8protobuf16EnumValueOptionsC2ERKS1_ T
_ZN6google8protobuf16EnumValueOptionsC2Ev T
_ZN6google8protobuf16EnumValueOptionsD0Ev T
_ZN6google8protobuf16EnumValueOptionsD1Ev T
_ZN6google8protobuf16EnumValueOptionsD2Ev T
_ZN6google8protobuf17DescriptorBuilder10AddPackageERKNSt7__cxx1112basic_stringIcSt11char_traitsIcESaIcEEERKNS0_7MessageEPKNS0_14FileDescriptorE T
_ZN6google8protobuf17DescriptorBuilder10AddWarningERKNSt7__cxx1112basic_stringIcSt11char_traitsIcESaIcEEERKNS0_7MessageENS0_14DescriptorPool14ErrorCollector13ErrorLocationES9_ T
_ZN6google8protobuf17DescriptorBuilder10BuildOneofERKNS0_20OneofDescriptorProtoEPNS0_10DescriptorEPNS0_15OneofDescriptorE T
_ZN6google8protobuf17DescriptorBuilder10FindSymbolERKNSt7__cxx1112basic_stringIcSt11char_traitsIcESaIcEEEb T
_ZN6google8protobuf17DescriptorBuilder11BuildMethodERKNS0_21MethodDescriptorProtoEPKNS0_17ServiceDescriptorEPNS0_16MethodDescriptorE T
_ZN6google8protobuf17DescriptorBuilder11IsInPackageEPKNS0_14FileDescriptorERKNSt7__cxx1112basic_stringIcSt11char_traitsIcESaIcEEE T
_ZN6google8protobuf17DescriptorBuilder12BuildMessageERKNS0_15DescriptorProtoEPKNS0_10DescriptorEPS5_ T
_ZN6google8protobuf17DescriptorBuilder12BuildServiceERKNS0_22ServiceDescriptorProtoEPKvPNS0_17ServiceDescriptorE T
_ZN6google8protobuf17DescriptorBuilder12LookupSymbolERKNSt7__cxx1112basic_stringIcSt11char_traitsIcESaIcEEES9_NS0_14DescriptorPool15PlaceholderTypeENS1_11ResolveModeEb T
_ZN6google8protobuf17DescriptorBuilder13BuildFileImplERKNS0_19FileDescriptorProtoE T
_ZN6google8protobuf17DescriptorBuilder13CrossLinkEnumEPNS0_14EnumDescriptorERKNS0_19EnumDescriptorProtoE T
_ZN6google8protobuf17DescriptorBuilder13CrossLinkFileEPNS0_14FileDescriptorERKNS0_19FileDescriptorProtoE T
_ZN6google8protobuf17DescriptorBuilder14AddImportErrorERKNS0_19FileDescriptorProtoEi T
_ZN6google8protobuf17DescriptorBuilder14BuildEnumValueERKNS0_24EnumValueDescriptorProtoEPKNS0_14EnumDescriptorEPNS0_19EnumValueDescriptorE T
_ZN6google8protobuf17DescriptorBuilder14CrossLinkFieldEPNS0_15FieldDescriptorERKNS0_20FieldDescriptorProtoE T
_ZN6google8protobuf17DescriptorBuilder14ValidateJSTypeEPNS0_15FieldDescriptorERKNS0_20FieldDescriptorProtoE T
_ZN6google8protobuf17DescriptorBuilder14ValidateProto3EPNS0_14FileDescriptorERKNS0_19FileDescriptorProtoE T
_ZN6google8protobuf17DescriptorBuilder15AllocateOptionsERKNS0_11FileOptionsEPNS0_14FileDescriptorE T
_ZN6google8protobuf17DescriptorBuilder15CrossLinkMethodEPNS0_16MethodDescriptorERKNS0_21MethodDescriptorProtoE T
_ZN6google8protobuf17DescriptorBuilder16CrossLinkMessageEPNS0_10DescriptorERKNS0_15DescriptorProtoE T
_ZN6google8protobuf17DescriptorBuilder16CrossLinkServiceEPNS0_17ServiceDescriptorERKNS0_22ServiceDescriptorProtoE T
_ZN6google8protobuf17DescriptorBuilder16ValidateMapEntryEPNS0_15FieldDescriptorERKNS0_20FieldDescriptorProtoE T
_ZN6google8protobuf17DescriptorBuilder17OptionInterpreter14SetOptionValueEPKNS0_15FieldDescriptorEPNS0_15UnknownFieldSetE T
_ZN6google8protobuf17DescriptorBuilder17OptionInterpreter18SetAggregateOptionEPKNS0_15FieldDescriptorEPNS0_15UnknownFieldSetE T
_ZN6google8protobuf17DescriptorBuilder17OptionInterpreter20ExamineIfOptionIsSetEN9__gnu_cxx17__normal_iteratorIPKPKNS0_15FieldDescriptorESt6vectorIS7_SaIS7_EEEESD_S7_RKNSt7__cxx1112basic_stringIcSt11char_traitsIcESaIcEEERKNS0_15UnknownFieldSetE T
_ZN6google8protobuf17DescriptorBuilder17OptionInterpreter21AggregateOptionFinderD0Ev W
_ZN6google8protobuf17DescriptorBuilder17OptionInterpreter21AggregateOptionFinderD1Ev W
_ZN6google8protobuf17DescriptorBuilder17OptionInterpreter21AggregateOptionFinderD2Ev W
_ZN6google8protobuf17DescriptorBuilder17OptionInterpreter21InterpretSingleOptionEPNS0_7MessageE T
_ZN6google8protobuf17DescriptorBuilder17OptionInterpreter22AddWithoutInterpretingERKNS0_19UninterpretedOptionEPNS0_7MessageE T
_ZN6google8protobuf17DescriptorBuilder17OptionInterpreter8SetInt32EiiNS0_15FieldDescriptor4TypeEPNS0_15UnknownFieldSetE T
_ZN6google8protobuf17DescriptorBuilder17OptionInterpreter8SetInt64EilNS0_15FieldDescriptor4TypeEPNS0_15UnknownFieldSetE T
_ZN6google8protobuf17DescriptorBuilder17OptionInterpreter9SetUInt32EijNS0_15FieldDescriptor4TypeEPNS0_15UnknownFieldSetE T
_ZN6google8protobuf17DescriptorBuilder17OptionInterpreter9SetUInt64EimNS0_15FieldDescriptor4TypeEPNS0_15UnknownFieldSetE T
_ZN6google8protobuf17DescriptorBuilder17OptionInterpreterC1EPS1_ T
_ZN6google8protobuf17DescriptorBuilder17OptionInterpreterC2EPS1_ T
_ZN6google8protobuf17DescriptorBuilder17OptionInterpreterD1Ev T
_ZN6google8protobuf17DescriptorBuilder17OptionInterpreterD2Ev T
_ZN6google8protobuf17DescriptorBuilder18AddNotDefinedErrorERKNSt7__cxx1112basic_stringIcSt11char_traitsIcESaIcEEERKNS0_7MessageENS0_14DescriptorPool14ErrorCollector13ErrorLocationES9_ T
_ZN6google8protobuf17DescriptorBuilder18BuildReservedRangeERKNS0_29DescriptorProto_ReservedRangeEPKNS0_10DescriptorEPNS5_13ReservedRangeE T
_ZN6google8protobuf17DescriptorBuilder18BuildReservedRangeERKNS0_37EnumDescriptorProto_EnumReservedRangeEPKNS0_14EnumDescriptorEPNS5_13ReservedRangeE T
_ZN6google8protobuf17DescriptorBuilder18CrossLinkEnumValueEPNS0_19EnumValueDescriptorERKNS0_24EnumValueDescriptorProtoE T
_ZN6google8protobuf17DescriptorBuilder18DetectMapConflictsEPKNS0_10DescriptorERKNS0_15DescriptorProtoE T
_ZN6google8protobuf17DescriptorBuilder18ValidateProto3EnumEPNS0_14EnumDescriptorERKNS0_19EnumDescriptorProtoE T
_ZN6google8protobuf17DescriptorBuilder18ValidateSymbolNameERKNSt7__cxx1112basic_stringIcSt11char_traitsIcESaIcEEES9_RKNS0_7MessageE T
_ZN6google8protobuf17DescriptorBuilder19AddTwiceListedErrorERKNS0_19FileDescriptorProtoEi T
_ZN6google8protobuf17DescriptorBuilder19AllocateOptionsImplINS0_10Descriptor14ExtensionRangeEEEvRKNSt7__cxx1112basic_stringIcSt11char_traitsIcESaIcEEESC_RKNT_11OptionsTypeEPSD_ W
_ZN6google8protobuf17DescriptorBuilder19AllocateOptionsImplINS0_10DescriptorEEEvRKNSt7__cxx1112basic_stringIcSt11char_traitsIcESaIcEEESB_RKNT_11OptionsTypeEPSC_ W
_ZN6google8protobuf17DescriptorBuilder19AllocateOptionsImplINS0_14EnumDescriptorEEEvRKNSt7__cxx1112basic_stringIcSt11char_traitsIcESaIcEEESB_RKNT_11OptionsTypeEPSC_ W
_ZN6google8protobuf17DescriptorBuilder19AllocateOptionsImplINS0_14FileDescriptorEEEvRKNSt7__cxx1112basic_stringIcSt11char_traitsIcESaIcEEESB_RKNT_11OptionsTypeEPSC_ W
_ZN6google8protobuf17DescriptorBuilder19AllocateOptionsImplINS0_15FieldDescriptorEEEvRKNSt7__cxx1112basic_stringIcSt11char_traitsIcESaIcEEESB_RKNT_11OptionsTypeEPSC_ W
_ZN6google8protobuf17DescriptorBuilder19AllocateOptionsImplINS0_15OneofDescriptorEEEvRKNSt7__cxx1112basic_stringIcSt11char_traitsIcESaIcEEESB_RKNT_11OptionsTypeEPSC_ W
_ZN6google8protobuf17DescriptorBuilder19AllocateOptionsImplINS0_16MethodDescriptorEEEvRKNSt7__cxx1112basic_stringIcSt11char_traitsIcESaIcEEESB_RKNT_11OptionsTypeEPSC_ W
_ZN6google8protobuf17DescriptorBuilder19AllocateOptionsImplINS0_17ServiceDescriptorEEEvRKNSt7__cxx1112basic_stringIcSt11char_traitsIcESaIcEEESB_RKNT_11OptionsTypeEPSC_ W
_ZN6google8protobuf17DescriptorBuilder19AllocateOptionsImplINS0_19EnumValueDescriptorEEEvRKNSt7__cxx1112basic_stringIcSt11char_traitsIcESaIcEEESB_RKNT_11OptionsTypeEPSC_ W
_ZN6google8protobuf17DescriptorBuilder19BuildExtensionRangeERKNS0_30DescriptorProto_ExtensionRangeEPKNS0_10DescriptorEPNS5_14ExtensionRangeE T
_ZN6google8protobuf17DescriptorBuilder19LogUnusedDependencyERKNS0_19FileDescriptorProtoEPKNS0_14FileDescriptorE T
_ZN6google8protobuf17DescriptorBuilder19ValidateEnumOptionsEPNS0_14EnumDescriptorERKNS0_19EnumDescriptorProtoE T
_ZN6google8protobuf17DescriptorBuilder19ValidateFileOptionsEPNS0_14FileDescriptorERKNS0_19FileDescriptorProtoE T
_ZN6google8protobuf17DescriptorBuilder19ValidateProto3FieldEPNS0_15FieldDescriptorERKNS0_20FieldDescriptorProtoE T
_ZN6google8protobuf17DescriptorBuilder20ValidateFieldOptionsEPNS0_15FieldDescriptorERKNS0_20FieldDescriptorProtoE T
_ZN6google8protobuf17DescriptorBuilder21BuildFieldOrExtensionERKNS0_20FieldDescriptorProtoEPKNS0_10DescriptorEPNS0_15FieldDescriptorEb T
_ZN6google8protobuf17DescriptorBuilder21ValidateMethodOptionsEPNS0_16MethodDescriptorERKNS0_21MethodDescriptorProtoE T
_ZN6google8protobuf17DescriptorBuilder21ValidateProto3MessageEPNS0_10DescriptorERKNS0_15DescriptorProtoE T
_ZN6google8protobuf17DescriptorBuilder22ValidateMessageOptionsEPNS0_10DescriptorERKNS0_15DescriptorProtoE T
_ZN6google8protobuf17DescriptorBuilder22ValidateServiceOptionsEPNS0_17ServiceDescriptorERKNS0_22ServiceDescriptorProtoE T
_ZN6google8protobuf17DescriptorBuilder23AddRecursiveImportErrorERKNS0_19FileDescriptorProtoEi T
_ZN6google8protobuf17DescriptorBuilder23CrossLinkExtensionRangeEPNS0_10Descriptor14ExtensionRangeERKNS0_30DescriptorProto_ExtensionRangeE T
_ZN6google8protobuf17DescriptorBuilder24CheckEnumValueUniquenessERKNS0_19EnumDescriptorProtoEPKNS0_14EnumDescriptorE T
_ZN6google8protobuf17DescriptorBuilder24RecordPublicDependenciesEPKNS0_14FileDescriptorE T
_ZN6google8protobuf17DescriptorBuilder24ValidateEnumValueOptionsEPNS0_19EnumValueDescriptorERKNS0_24EnumValueDescriptorProtoE T
_ZN6google8protobuf17DescriptorBuilder25LookupSymbolNoPlaceholderERKNSt7__cxx1112basic_stringIcSt11char_traitsIcESaIcEEES9_NS1_11ResolveModeEb T
_ZN6google8protobuf17DescriptorBuilder26FindSymbolNotEnforcingDepsERKNSt7__cxx1112basic_stringIcSt11char_traitsIcESaIcEEEb T
_ZN6google8protobuf17DescriptorBuilder32FindSymbolNotEnforcingDepsHelperEPKNS0_14DescriptorPoolERKNSt7__cxx1112basic_stringIcSt11char_traitsIcESaIcEEEb T
_ZN6google8protobuf17DescriptorBuilder8AddErrorERKNSt7__cxx1112basic_stringIcSt11char_traitsIcESaIcEEERKNS0_7MessageENS0_14DescriptorPool14ErrorCollector13ErrorLocationEPKc T
_ZN6google8protobuf17DescriptorBuilder8AddErrorERKNSt7__cxx1112basic_stringIcSt11char_traitsIcESaIcEEERKNS0_7MessageENS0_14DescriptorPool14ErrorCollector13ErrorLocationES9_ T
_ZN6google8protobuf17DescriptorBuilder9AddSymbolERKNSt7__cxx1112basic_stringIcSt11char_traitsIcESaIcEEEPKvS9_RKNS0_7MessageENS0_6SymbolE T
_ZN6google8protobuf17DescriptorBuilder9BuildEnumERKNS0_19EnumDescriptorProtoEPKNS0_10DescriptorEPNS0_14EnumDescriptorE T
_ZN6google8protobuf17DescriptorBuilder9BuildFileERKNS0_19FileDescriptorProtoE T
_ZN6google8protobuf17DescriptorBuilderC1EPKNS0_14DescriptorPoolEPNS2_6TablesEPNS2_14ErrorCollectorE T
_ZN6google8protobuf17DescriptorBuilderC2EPKNS0_14DescriptorPoolEPNS2_6TablesEPNS2_14ErrorCollectorE T
_ZN6google8protobuf17DescriptorBuilderD1Ev T
_ZN6google8protobuf17DescriptorBuilderD2Ev T
_ZN6google8protobuf17FileDescriptorSet10SharedCtorEv T
_ZN6google8protobuf17FileDescriptorSet10SharedDtorEv T
_ZN6google8protobuf17FileDescriptorSet10descriptorEv T
_ZN6google8protobuf17FileDescriptorSet12InternalSwapEPS1_ T
_ZN6google8protobuf17FileDescriptorSet15UnsafeArenaSwapEPS1_ T
_ZN6google8protobuf17FileDescriptorSet16default_instanceEv T
_ZN6google8protobuf17FileDescriptorSet16kFileFieldNumberE R
_ZN6google8protobuf17FileDescriptorSet21InitAsDefaultInstanceEv T
_ZN6google8protobuf17FileDescriptorSet27MergePartialFromCodedStreamEPNS0_2io16CodedInputStreamE T
_ZN6google8protobuf17FileDescriptorSet4SwapEPS1_ T
_ZN6google8protobuf17FileDescriptorSet5ClearEv T
_ZN6google8protobuf17FileDescriptorSet8CopyFromERKNS0_7MessageE T
_ZN6google8protobuf17FileDescriptorSet8CopyFromERKS1_ T
_ZN6google8protobuf17FileDescriptorSet9ArenaDtorEPv T
_ZN6google8protobuf17FileDescriptorSet9MergeFromERKNS0_7MessageE T
_ZN6google8protobuf17FileDescriptorSet9MergeFromERKS1_ T
_ZN6google8protobuf17FileDescriptorSetC1EPNS0_5ArenaE T
_ZN6google8protobuf17FileDescriptorSetC1ERKS1_ T
_ZN6google8protobuf17FileDescriptorSetC1Ev T
_ZN6google8protobuf17FileDescriptorSetC2EPNS0_5ArenaE T
_ZN6google8protobuf17FileDescriptorSetC2ERKS1_ T
_ZN6google8protobuf17FileDescriptorSetC2Ev T
_ZN6google8protobuf17FileDescriptorSetD0Ev T
_ZN6google8protobuf17FileDescriptorSetD1Ev T
_ZN6google8protobuf17FileDescriptorSetD2Ev T
_ZN6google8protobuf17GeneratedCodeInfo10SharedCtorEv T
_ZN6google8protobuf17GeneratedCodeInfo10SharedDtorEv T
_ZN6google8protobuf17GeneratedCodeInfo10descriptorEv T
_ZN6google8protobuf17GeneratedCodeInfo12InternalSwapEPS1_ T
_ZN6google8protobuf17GeneratedCodeInfo15UnsafeArenaSwapEPS1_ T
_ZN6google8protobuf17GeneratedCodeInfo16default_instanceEv T
_ZN6google8protobuf17GeneratedCodeInfo21InitAsDefaultInstanceEv T
_ZN6google8protobuf17GeneratedCodeInfo22kAnnotationFieldNumberE R
_ZN6google8protobuf17GeneratedCodeInfo27MergePartialFromCodedStreamEPNS0_2io16CodedInputStreamE T
_ZN6google8protobuf17GeneratedCodeInfo4SwapEPS1_ T
_ZN6google8protobuf17GeneratedCodeInfo5ClearEv T
_ZN6google8protobuf17GeneratedCodeInfo8CopyFromERKNS0_7MessageE T
_ZN6google8protobuf17GeneratedCodeInfo8CopyFromERKS1_ T
_ZN6google8protobuf17GeneratedCodeInfo9ArenaDtorEPv T
_ZN6google8protobuf17GeneratedCodeInfo9MergeFromERKNS0_7MessageE T
_ZN6google8protobuf17GeneratedCodeInfo9MergeFromERKS1_ T
_ZN6google8protobuf17GeneratedCodeInfoC1EPNS0_5ArenaE T
_ZN6google8protobuf17GeneratedCodeInfoC1ERKS1_ T
_ZN6google8protobuf17GeneratedCodeInfoC1Ev T
_ZN6google8protobuf17GeneratedCodeInfoC2EPNS0_5ArenaE T
_ZN6google8protobuf17GeneratedCodeInfoC2ERKS1_ T
_ZN6google8protobuf17GeneratedCodeInfoC2Ev T
_ZN6google8protobuf17GeneratedCodeInfoD0Ev T
_ZN6google8protobuf17GeneratedCodeInfoD1Ev T
_ZN6google8protobuf17GeneratedCodeInfoD2Ev T
_ZN6google8protobuf17NullValue_IsValidEi T
_ZN6google8protobuf17Syntax_descriptorEv T
_ZN6google8protobuf18DescriptorDatabase16FindAllFileNamesEPSt6vectorINSt7__cxx1112basic_stringIcSt11char_traitsIcESaIcEEESaIS8_EE W
_ZN6google8protobuf18DescriptorDatabase23FindAllExtensionNumbersERKNSt7__cxx1112basic_stringIcSt11char_traitsIcESaIcEEEPSt6vectorIiSaIiEE W
_ZN6google8protobuf18DescriptorDatabaseD0Ev T
_ZN6google8protobuf18DescriptorDatabaseD1Ev T
_ZN6google8protobuf18DescriptorDatabaseD2Ev T
_ZN6google8protobuf18Field_Kind_IsValidEi T
_ZN6google8protobuf18InsertIfNotPresentINS0_8hash_mapINSt7__cxx1112basic_stringIcSt11char_traitsIcESaIcEEEiNS0_4hashIS8_EESt8equal_toIS8_ESaISt4pairIKS8_iEEEEEEbPT_RKNSI_10value_type10first_typeERKNSK_11second_typeE W
_ZN6google8protobuf18InsertIfNotPresentISt3mapINSt7__cxx1112basic_stringIcSt11char_traitsIcESaIcEEEPKNS0_19FileDescriptorProtoESt4lessIS8_ESaISt4pairIKS8_SB_EEEEEbPT_RKNSJ_10value_type10first_typeERKNSL_11second_typeE W
_ZN6google8protobuf18InsertIfNotPresentISt3mapISt4pairINSt7__cxx1112basic_stringIcSt11char_traitsIcESaIcEEEiEPKNS0_19FileDescriptorProtoESt4lessISA_ESaIS3_IKSA_SD_EEEEEbPT_RKNSK_10value_type10first_typeERKNSM_11second_typeE W
_ZN6google8protobuf19EnumDescriptorProto10SharedCtorEv T
_ZN6google8protobuf19EnumDescriptorProto10SharedDtorEv T
_ZN6google8protobuf19EnumDescriptorProto10descriptorEv T
_ZN6google8protobuf19EnumDescriptorProto12InternalSwapEPS1_ T
_ZN6google8protobuf19EnumDescriptorProto15UnsafeArenaSwapEPS1_ T
_ZN6google8protobuf19EnumDescriptorProto16default_instanceEv T
_ZN6google8protobuf19EnumDescriptorProto16kNameFieldNumberE R
_ZN6google8protobuf19EnumDescriptorProto17kValueFieldNumberE R
_ZN6google8protobuf19EnumDescriptorProto19kOptionsFieldNumberE R
_ZN6google8protobuf19EnumDescriptorProto21InitAsDefaultInstanceEv T
_ZN6google8protobuf19EnumDescriptorProto21_slow_mutable_optionsEv T
_ZN6google8protobuf19EnumDescriptorProto24kReservedNameFieldNumberE R
_ZN6google8protobuf19EnumDescriptorProto25kReservedRangeFieldNumberE R
_ZN6google8protobuf19EnumDescriptorProto27MergePartialFromCodedStreamEPNS0_2io16CodedInputStreamE T
_ZN6google8protobuf19EnumDescriptorProto34unsafe_arena_set_allocated_optionsEPNS0_11EnumOptionsE T
_ZN6google8protobuf19EnumDescriptorProto4SwapEPS1_ T
_ZN6google8protobuf19EnumDescriptorProto5ClearEv T
_ZN6google8protobuf19EnumDescriptorProto8CopyFromERKNS0_7MessageE T
_ZN6google8protobuf19EnumDescriptorProto8CopyFromERKS1_ T
_ZN6google8protobuf19EnumDescriptorProto9ArenaDtorEPv T
_ZN6google8protobuf19EnumDescriptorProto9MergeFromERKNS0_7MessageE T
_ZN6google8protobuf19EnumDescriptorProto9MergeFromERKS1_ T
_ZN6google8protobuf19EnumDescriptorProtoC1EPNS0_5ArenaE T
_ZN6google8protobuf19EnumDescriptorProtoC1ERKS1_ T
_ZN6google8protobuf19EnumDescriptorProtoC1Ev T
_ZN6google8protobuf19EnumDescriptorProtoC2EPNS0_5ArenaE T
_ZN6google8protobuf19EnumDescriptorProtoC2ERKS1_ T
_ZN6google8protobuf19EnumDescriptorProtoC2Ev T
_ZN6google8protobuf19EnumDescriptorProtoD0Ev T
_ZN6google8protobuf19EnumDescriptorProtoD1Ev T
_ZN6google8protobuf19EnumDescriptorProtoD2Ev T
_ZN6google8protobuf19FileDescriptorProto10SharedCtorEv T
_ZN6google8protobuf19FileDescriptorProto10SharedDtorEv T
_ZN6google8protobuf19FileDescriptorProto10descriptorEv T
_ZN6google8protobuf19FileDescriptorProto12InternalSwapEPS1_ T
_ZN6google8protobuf19FileDescriptorProto15UnsafeArenaSwapEPS1_ T
_ZN6google8protobuf19FileDescriptorProto16default_instanceEv T
_ZN6google8protobuf19FileDescriptorProto16kNameFieldNumberE R
_ZN6google8protobuf19FileDescriptorProto18kSyntaxFieldNumberE R
_ZN6google8protobuf19FileDescriptorProto19kOptionsFieldNumberE R
_ZN6google8protobuf19FileDescriptorProto19kPackageFieldNumberE R
_ZN6google8protobuf19FileDescriptorProto19kServiceFieldNumberE R
_ZN6google8protobuf19FileDescriptorProto20kEnumTypeFieldNumberE R
_ZN6google8protobuf19FileDescriptorProto21InitAsDefaultInstanceEv T
_ZN6google8protobuf19FileDescriptorProto21_slow_mutable_optionsEv T
_ZN6google8protobuf19FileDescriptorProto21kExtensionFieldNumberE R
_ZN6google8protobuf19FileDescriptorProto22kDependencyFieldNumberE R
_ZN6google8protobuf19FileDescriptorProto23kMessageTypeFieldNumberE R
_ZN6google8protobuf19FileDescriptorProto26kSourceCodeInfoFieldNumberE R
_ZN6google8protobuf19FileDescriptorProto26kWeakDependencyFieldNumberE R
_ZN6google8protobuf19FileDescriptorProto27MergePartialFromCodedStreamEPNS0_2io16CodedInputStreamE T
_ZN6google8protobuf19FileDescriptorProto28kPublicDependencyFieldNumberE R
_ZN6google8protobuf19FileDescriptorProto30_slow_mutable_source_code_infoEv T
_ZN6google8protobuf19FileDescriptorProto34unsafe_arena_set_allocated_optionsEPNS0_11FileOptionsE T
_ZN6google8protobuf19FileDescriptorProto43unsafe_arena_set_allocated_source_code_infoEPNS0_14SourceCodeInfoE T
_ZN6google8protobuf19FileDescriptorProto4SwapEPS1_ T
_ZN6google8protobuf19FileDescriptorProto5ClearEv T
_ZN6google8protobuf19FileDescriptorProto8CopyFromERKNS0_7MessageE T
_ZN6google8protobuf19FileDescriptorProto8CopyFromERKS1_ T
_ZN6google8protobuf19FileDescriptorProto9ArenaDtorEPv T
_ZN6google8protobuf19FileDescriptorProto9MergeFromERKNS0_7MessageE T
_ZN6google8protobuf19FileDescriptorProto9MergeFromERKS1_ T
_ZN6google8protobuf19FileDescriptorProtoC1EPNS0_5ArenaE T
_ZN6google8protobuf19FileDescriptorProtoC1ERKS1_ T
_ZN6google8protobuf19FileDescriptorProtoC1Ev T
_ZN6google8protobuf19FileDescriptorProtoC2EPNS0_5ArenaE T
_ZN6google8protobuf19FileDescriptorProtoC2ERKS1_ T
_ZN6google8protobuf19FileDescriptorProtoC2Ev T
_ZN6google8protobuf19FileDescriptorProtoD0Ev T
_ZN6google8protobuf19FileDescriptorProtoD1Ev T
_ZN6google8protobuf19FileDescriptorProtoD2Ev T
_ZN6google8protobuf19UninterpretedOption10SharedCtorEv T
_ZN6google8protobuf19UninterpretedOption10SharedDtorEv T
_ZN6google8protobuf19UninterpretedOption10descriptorEv T
_ZN6google8protobuf19UninterpretedOption12InternalSwapEPS1_ T
_ZN6google8protobuf19UninterpretedOption15UnsafeArenaSwapEPS1_ T
_ZN6google8protobuf19UninterpretedOption16default_instanceEv T
_ZN6google8protobuf19UninterpretedOption16kNameFieldNumberE R
_ZN6google8protobuf19UninterpretedOption21InitAsDefaultInstanceEv T
_ZN6google8protobuf19UninterpretedOption23kDoubleValueFieldNumberE R
_ZN6google8protobuf19UninterpretedOption23kStringValueFieldNumberE R
_ZN6google8protobuf19UninterpretedOption26kAggregateValueFieldNumberE R
_ZN6google8protobuf19UninterpretedOption27MergePartialFromCodedStreamEPNS0_2io16CodedInputStreamE T
_ZN6google8protobuf19UninterpretedOption27kIdentifierValueFieldNumberE R
_ZN6google8protobuf19UninterpretedOption28kNegativeIntValueFieldNumberE R
_ZN6google8protobuf19UninterpretedOption28kPositiveIntValueFieldNumberE R
_ZN6google8protobuf19UninterpretedOption4SwapEPS1_ T
_ZN6google8protobuf19UninterpretedOption5ClearEv T
_ZN6google8protobuf19UninterpretedOption8CopyFromERKNS0_7MessageE T
_ZN6google8protobuf19UninterpretedOption8CopyFromERKS1_ T
_ZN6google8protobuf19UninterpretedOption9ArenaDtorEPv T
_ZN6google8protobuf19UninterpretedOption9MergeFromERKNS0_7MessageE T
_ZN6google8protobuf19UninterpretedOption9MergeFromERKS1_ T
_ZN6google8protobuf19UninterpretedOptionC1EPNS0_5ArenaE T
_ZN6google8protobuf19UninterpretedOptionC1ERKS1_ T
_ZN6google8protobuf19UninterpretedOptionC1Ev T
_ZN6google8protobuf19UninterpretedOptionC2EPNS0_5ArenaE T
_ZN6google8protobuf19UninterpretedOptionC2ERKS1_ T
_ZN6google8protobuf19UninterpretedOptionC2Ev T
_ZN6google8protobuf19UninterpretedOptionD0Ev T
_ZN6google8protobuf19UninterpretedOptionD1Ev T
_ZN6google8protobuf19UninterpretedOptionD2Ev T
_ZN6google8protobuf20FieldDescriptorProto10SharedCtorEv T
_ZN6google8protobuf20FieldDescriptorProto10SharedDtorEv T
_ZN6google8protobuf20FieldDescriptorProto10TYPE_BYTESE R
_ZN6google8protobuf20FieldDescriptorProto10TYPE_FLOATE R
_ZN6google8protobuf20FieldDescriptorProto10TYPE_GROUPE R
_ZN6google8protobuf20FieldDescriptorProto10TYPE_INT32E R
_ZN6google8protobuf20FieldDescriptorProto10TYPE_INT64E R
_ZN6google8protobuf20FieldDescriptorProto10descriptorEv T
_ZN6google8protobuf20FieldDescriptorProto11TYPE_DOUBLEE R
_ZN6google8protobuf20FieldDescriptorProto11TYPE_SINT32E R
_ZN6google8protobuf20FieldDescriptorProto11TYPE_SINT64E R
_ZN6google8protobuf20FieldDescriptorProto11TYPE_STRINGE R
_ZN6google8protobuf20FieldDescriptorProto11TYPE_UINT32E R
_ZN6google8protobuf20FieldDescriptorProto11TYPE_UINT64E R
_ZN6google8protobuf20FieldDescriptorProto12InternalSwapEPS1_ T
_ZN6google8protobuf20FieldDescriptorProto12TYPE_FIXED32E R
_ZN6google8protobuf20FieldDescriptorProto12TYPE_FIXED64E R
_ZN6google8protobuf20FieldDescriptorProto12TYPE_MESSAGEE R
_ZN6google8protobuf20FieldDescriptorProto13TYPE_SFIXED32E R
_ZN6google8protobuf20FieldDescriptorProto13TYPE_SFIXED64E R
_ZN6google8protobuf20FieldDescriptorProto14LABEL_OPTIONALE R
_ZN6google8protobuf20FieldDescriptorProto14LABEL_REPEATEDE R
_ZN6google8protobuf20FieldDescriptorProto14LABEL_REQUIREDE R
_ZN6google8protobuf20FieldDescriptorProto14Type_ARRAYSIZEE R
_ZN6google8protobuf20FieldDescriptorProto15Label_ARRAYSIZEE R
_ZN6google8protobuf20FieldDescriptorProto15UnsafeArenaSwapEPS1_ T
_ZN6google8protobuf20FieldDescriptorProto16default_instanceEv T
_ZN6google8protobuf20FieldDescriptorProto16kNameFieldNumberE R
_ZN6google8protobuf20FieldDescriptorProto16kTypeFieldNumberE R
_ZN6google8protobuf20FieldDescriptorProto17kLabelFieldNumberE R
_ZN6google8protobuf20FieldDescriptorProto18kNumberFieldNumberE R
_ZN6google8protobuf20FieldDescriptorProto19kOptionsFieldNumberE R
_ZN6google8protobuf20FieldDescriptorProto20kExtendeeFieldNumberE R
_ZN6google8protobuf20FieldDescriptorProto20kJsonNameFieldNumberE R
_ZN6google8protobuf20FieldDescriptorProto20kTypeNameFieldNumberE R
_ZN6google8protobuf20FieldDescriptorProto21InitAsDefaultInstanceEv T
_ZN6google8protobuf20FieldDescriptorProto21_slow_mutable_optionsEv T
_ZN6google8protobuf20FieldDescriptorProto22kOneofIndexFieldNumberE R
_ZN6google8protobuf20FieldDescriptorProto24kDefaultValueFieldNumberE R
_ZN6google8protobuf20FieldDescriptorProto27MergePartialFromCodedStreamEPNS0_2io16CodedInputStreamE T
_ZN6google8protobuf20FieldDescriptorProto34unsafe_arena_set_allocated_optionsEPNS0_12FieldOptionsE T
_ZN6google8protobuf20FieldDescriptorProto4SwapEPS1_ T
_ZN6google8protobuf20FieldDescriptorProto5ClearEv T
_ZN6google8protobuf20FieldDescriptorProto8CopyFromERKNS0_7MessageE T
_ZN6google8protobuf20FieldDescriptorProto8CopyFromERKS1_ T
_ZN6google8protobuf20FieldDescriptorProto8Type_MAXE R
_ZN6google8protobuf20FieldDescriptorProto8Type_MINE R
_ZN6google8protobuf20FieldDescriptorProto9ArenaDtorEPv T
_ZN6google8protobuf20FieldDescriptorProto9Label_MAXE R
_ZN6google8protobuf20FieldDescriptorProto9Label_MINE R
_ZN6google8protobuf20FieldDescriptorProto9MergeFromERKNS0_7MessageE T
_ZN6google8protobuf20FieldDescriptorProto9MergeFromERKS1_ T
_ZN6google8protobuf20FieldDescriptorProto9TYPE_BOOLE R
_ZN6google8protobuf20FieldDescriptorProto9TYPE_ENUME R
_ZN6google8protobuf20FieldDescriptorProtoC1EPNS0_5ArenaE T
_ZN6google8protobuf20FieldDescriptorProtoC1ERKS1_ T
_ZN6google8protobuf20FieldDescriptorProtoC1Ev T
_ZN6google8protobuf20FieldDescriptorProtoC2EPNS0_5ArenaE T
_ZN6google8protobuf20FieldDescriptorProtoC2ERKS1_ T
_ZN6google8protobuf20FieldDescriptorProtoC2Ev T
_ZN6google8protobuf20FieldDescriptorProtoD0Ev T
_ZN6google8protobuf20FieldDescriptorProtoD1Ev T
_ZN6google8protobuf20FieldDescriptorProtoD2Ev T
_ZN6google8protobuf20FileDescriptorTables14FinalizeTablesEv T
_ZN6google8protobuf20FileDescriptorTables16AddFieldByNumberEPKNS0_15FieldDescriptorE T
_ZN6google8protobuf20FileDescriptorTables19AddAliasUnderParentEPKvRKNSt7__cxx1112basic_stringIcSt11char_traitsIcESaIcEEENS0_6SymbolE T
_ZN6google8protobuf20FileDescriptorTables20AddEnumValueByNumberEPKNS0_19EnumValueDescriptorE T
_ZN6google8protobuf20FileDescriptorTables20BuildLocationsByPathEPSt4pairIPKS1_PKNS0_14SourceCodeInfoEE T
_ZN6google8protobuf20FileDescriptorTables23AddFieldByStylizedNamesEPKNS0_15FieldDescriptorE T
_ZN6google8protobuf20FileDescriptorTables36FieldsByCamelcaseNamesLazyInitStaticEPKS1_ T
_ZN6google8protobuf20FileDescriptorTables36FieldsByLowercaseNamesLazyInitStaticEPKS1_ T
_ZN6google8protobuf20FileDescriptorTablesC1Ev T
_ZN6google8protobuf20FileDescriptorTablesC2Ev T
_ZN6google8protobuf20FileDescriptorTablesD1Ev T
_ZN6google8protobuf20FileDescriptorTablesD2Ev T
_ZN6google8protobuf20NullValue_descriptorEv T
_ZN6google8protobuf20OneofDescriptorProto10SharedCtorEv T
_ZN6google8protobuf20OneofDescriptorProto10SharedDtorEv T
_ZN6google8protobuf20OneofDescriptorProto10descriptorEv T
_ZN6google8protobuf20OneofDescriptorProto12InternalSwapEPS1_ T
_ZN6google8protobuf20OneofDescriptorProto15UnsafeArenaSwapEPS1_ T
_ZN6google8protobuf20OneofDescriptorProto16default_instanceEv T
_ZN6google8protobuf20OneofDescriptorProto16kNameFieldNumberE R
_ZN6google8protobuf20OneofDescriptorProto19kOptionsFieldNumberE R
_ZN6google8protobuf20OneofDescriptorProto21InitAsDefaultInstanceEv T
_ZN6google8protobuf20OneofDescriptorProto21_slow_mutable_optionsEv T
_ZN6google8protobuf20OneofDescriptorProto27MergePartialFromCodedStreamEPNS0_2io16CodedInputStreamE T
_ZN6google8protobuf20OneofDescriptorProto34unsafe_arena_set_allocated_optionsEPNS0_12OneofOptionsE T
_ZN6google8protobuf20OneofDescriptorProto4SwapEPS1_ T
_ZN6google8protobuf20OneofDescriptorProto5ClearEv T
_ZN6google8protobuf20OneofDescriptorProto8CopyFromERKNS0_7MessageE T
_ZN6google8protobuf20OneofDescriptorProto8CopyFromERKS1_ T
_ZN6google8protobuf20OneofDescriptorProto9ArenaDtorEPv T
_ZN6google8protobuf20OneofDescriptorProto9MergeFromERKNS0_7MessageE T
_ZN6google8protobuf20OneofDescriptorProto9MergeFromERKS1_ T
_ZN6google8protobuf20OneofDescriptorProtoC1EPNS0_5ArenaE T
_ZN6google8protobuf20OneofDescriptorProtoC1ERKS1_ T
_ZN6google8protobuf20OneofDescriptorProtoC1Ev T
_ZN6google8protobuf20OneofDescriptorProtoC2EPNS0_5ArenaE T
_ZN6google8protobuf20OneofDescriptorProtoC2ERKS1_ T
_ZN6google8protobuf20OneofDescriptorProtoC2Ev T
_ZN6google8protobuf20OneofDescriptorProtoD0Ev T
_ZN6google8protobuf20OneofDescriptorProtoD1Ev T
_ZN6google8protobuf20OneofDescriptorProtoD2Ev T
_ZN6google8protobuf21DynamicMessageFactory12GetPrototypeEPKNS0_10DescriptorE T
_ZN6google8protobuf21DynamicMessageFactory18GetPrototypeNoLockEPKNS0_10DescriptorE T
_ZN6google8protobuf21DynamicMessageFactory26DeleteDefaultOneofInstanceEPKNS0_10DescriptorEPKjPKv T
_ZN6google8protobuf21DynamicMessageFactory29ConstructDefaultOneofInstanceEPKNS0_10DescriptorEPKjPv T
_ZN6google8protobuf21DynamicMessageFactoryC1EPKNS0_14DescriptorPoolE T
_ZN6google8protobuf21DynamicMessageFactoryC1Ev T
_ZN6google8protobuf21DynamicMessageFactoryC2EPKNS0_14DescriptorPoolE T
_ZN6google8protobuf21DynamicMessageFactoryC2Ev T
_ZN6google8protobuf21DynamicMessageFactoryD0Ev T
_ZN6google8protobuf21DynamicMessageFactoryD1Ev T
_ZN6google8protobuf21DynamicMessageFactoryD2Ev T
_ZN6google8protobuf21ExtensionRangeOptions10SharedCtorEv T
_ZN6google8protobuf21ExtensionRangeOptions10SharedDtorEv T
_ZN6google8protobuf21ExtensionRangeOptions10descriptorEv T
_ZN6google8protobuf21ExtensionRangeOptions12InternalSwapEPS1_ T
_ZN6google8protobuf21ExtensionRangeOptions15UnsafeArenaSwapEPS1_ T
_ZN6google8protobuf21ExtensionRangeOptions16default_instanceEv T
_ZN6google8protobuf21ExtensionRangeOptions21InitAsDefaultInstanceEv T
_ZN6google8protobuf21ExtensionRangeOptions27MergePartialFromCodedStreamEPNS0_2io16CodedInputStreamE T
_ZN6google8protobuf21ExtensionRangeOptions31kUninterpretedOptionFieldNumberE R
_ZN6google8protobuf21ExtensionRangeOptions4SwapEPS1_ T
_ZN6google8protobuf21ExtensionRangeOptions5ClearEv T
_ZN6google8protobuf21ExtensionRangeOptions8CopyFromERKNS0_7MessageE T
_ZN6google8protobuf21ExtensionRangeOptions8CopyFromERKS1_ T
_ZN6google8protobuf21ExtensionRangeOptions9ArenaDtorEPv T
_ZN6google8protobuf21ExtensionRangeOptions9MergeFromERKNS0_7MessageE T
_ZN6google8protobuf21ExtensionRangeOptions9MergeFromERKS1_ T
_ZN6google8protobuf21ExtensionRangeOptionsC1EPNS0_5ArenaE T
_ZN6google8protobuf21ExtensionRangeOptionsC1ERKS1_ T
_ZN6google8protobuf21ExtensionRangeOptionsC1Ev T
_ZN6google8protobuf21ExtensionRangeOptionsC2EPNS0_5ArenaE T
_ZN6google8protobuf21ExtensionRangeOptionsC2ERKS1_ T
_ZN6google8protobuf21ExtensionRangeOptionsC2Ev T
_ZN6google8protobuf21ExtensionRangeOptionsD0Ev T
_ZN6google8protobuf21ExtensionRangeOptionsD1Ev T
_ZN6google8protobuf21ExtensionRangeOptionsD2Ev T
_ZN6google8protobuf21Field_Kind_descriptorEv T
_ZN6google8protobuf21MethodDescriptorProto10SharedCtorEv T
_ZN6google8protobuf21MethodDescriptorProto10SharedDtorEv T
_ZN6google8protobuf21MethodDescriptorProto10descriptorEv T
_ZN6google8protobuf21MethodDescriptorProto12InternalSwapEPS1_ T
_ZN6google8protobuf21MethodDescriptorProto15UnsafeArenaSwapEPS1_ T
_ZN6google8protobuf21MethodDescriptorProto16default_instanceEv T
_ZN6google8protobuf21MethodDescriptorProto16kNameFieldNumberE R
_ZN6google8protobuf21MethodDescriptorProto19kOptionsFieldNumberE R
_ZN6google8protobuf21MethodDescriptorProto21InitAsDefaultInstanceEv T
_ZN6google8protobuf21MethodDescriptorProto21_slow_mutable_optionsEv T
_ZN6google8protobuf21MethodDescriptorProto21kInputTypeFieldNumberE R
_ZN6google8protobuf21MethodDescriptorProto22kOutputTypeFieldNumberE R
_ZN6google8protobuf21MethodDescriptorProto27MergePartialFromCodedStreamEPNS0_2io16CodedInputStreamE T
_ZN6google8protobuf21MethodDescriptorProto27kClientStreamingFieldNumberE R
_ZN6google8protobuf21MethodDescriptorProto27kServerStreamingFieldNumberE R
_ZN6google8protobuf21MethodDescriptorProto34unsafe_arena_set_allocated_optionsEPNS0_13MethodOptionsE T
_ZN6google8protobuf21MethodDescriptorProto4SwapEPS1_ T
_ZN6google8protobuf21MethodDescriptorProto5ClearEv T
_ZN6google8protobuf21MethodDescriptorProto8CopyFromERKNS0_7MessageE T
_ZN6google8protobuf21MethodDescriptorProto8CopyFromERKS1_ T
_ZN6google8protobuf21MethodDescriptorProto9ArenaDtorEPv T
_ZN6google8protobuf21MethodDescriptorProto9MergeFromERKNS0_7MessageE T
_ZN6google8protobuf21MethodDescriptorProto9MergeFromERKS1_ T
_ZN6google8protobuf21MethodDescriptorProtoC1EPNS0_5ArenaE T
_ZN6google8protobuf21MethodDescriptorProtoC1ERKS1_ T
_ZN6google8protobuf21MethodDescriptorProtoC1Ev T
_ZN6google8protobuf21MethodDescriptorProtoC2EPNS0_5ArenaE T
_ZN6google8protobuf21MethodDescriptorProtoC2ERKS1_ T
_ZN6google8protobuf21MethodDescriptorProtoC2Ev T
_ZN6google8protobuf21MethodDescriptorProtoD0Ev T
_ZN6google8protobuf21MethodDescriptorProtoD1Ev T
_ZN6google8protobuf21MethodDescriptorProtoD2Ev T
_ZN6google8protobuf22DescriptorPoolDatabase14FindFileByNameERKNSt7__cxx1112basic_stringIcSt11char_traitsIcESaIcEEEPNS0_19FileDescriptorProtoE T
_ZN6google8protobuf22DescriptorPoolDatabase23FindAllExtensionNumbersERKNSt7__cxx1112basic_stringIcSt11char_traitsIcESaIcEEEPSt6vectorIiSaIiEE T
_ZN6google8protobuf22DescriptorPoolDatabase24FindFileContainingSymbolERKNSt7__cxx1112basic_stringIcSt11char_traitsIcESaIcEEEPNS0_19FileDescriptorProtoE T
_ZN6google8protobuf22DescriptorPoolDatabase27FindFileContainingExtensionERKNSt7__cxx1112basic_stringIcSt11char_traitsIcESaIcEEEiPNS0_19FileDescriptorProtoE T
_ZN6google8protobuf22DescriptorPoolDatabaseC1ERKNS0_14DescriptorPoolE T
_ZN6google8protobuf22DescriptorPoolDatabaseC2ERKNS0_14DescriptorPoolE T
_ZN6google8protobuf22DescriptorPoolDatabaseD0Ev T
_ZN6google8protobuf22DescriptorPoolDatabaseD1Ev T
_ZN6google8protobuf22DescriptorPoolDatabaseD2Ev T
_ZN6google8protobuf22ServiceDescriptorProto10SharedCtorEv T
_ZN6google8protobuf22ServiceDescriptorProto10SharedDtorEv T
_ZN6google8protobuf22ServiceDescriptorProto10descriptorEv T
_ZN6google8protobuf22ServiceDescriptorProto12InternalSwapEPS1_ T
_ZN6google8protobuf22ServiceDescriptorProto15UnsafeArenaSwapEPS1_ T
_ZN6google8protobuf22ServiceDescriptorProto16default_instanceEv T
_ZN6google8protobuf22ServiceDescriptorProto16kNameFieldNumberE R
_ZN6google8protobuf22ServiceDescriptorProto18kMethodFieldNumberE R
_ZN6google8protobuf22ServiceDescriptorProto19kOptionsFieldNumberE R
_ZN6google8protobuf22ServiceDescriptorProto21InitAsDefaultInstanceEv T
_ZN6google8protobuf22ServiceDescriptorProto21_slow_mutable_optionsEv T
_ZN6google8protobuf22ServiceDescriptorProto27MergePartialFromCodedStreamEPNS0_2io16CodedInputStreamE T
_ZN6google8protobuf22ServiceDescriptorProto34unsafe_arena_set_allocated_optionsEPNS0_14ServiceOptionsE T
_ZN6google8protobuf22ServiceDescriptorProto4SwapEPS1_ T
_ZN6google8protobuf22ServiceDescriptorProto5ClearEv T
_ZN6google8protobuf22ServiceDescriptorProto8CopyFromERKNS0_7MessageE T
_ZN6google8protobuf22ServiceDescriptorProto8CopyFromERKS1_ T
_ZN6google8protobuf22ServiceDescriptorProto9ArenaDtorEPv T
_ZN6google8protobuf22ServiceDescriptorProto9MergeFromERKNS0_7MessageE T
_ZN6google8protobuf22ServiceDescriptorProto9MergeFromERKS1_ T
_ZN6google8protobuf22ServiceDescriptorProtoC1EPNS0_5ArenaE T
_ZN6google8protobuf22ServiceDescriptorProtoC1ERKS1_ T
_ZN6google8protobuf22ServiceDescriptorProtoC1Ev T
_ZN6google8protobuf22ServiceDescriptorProtoC2EPNS0_5ArenaE T
_ZN6google8protobuf22ServiceDescriptorProtoC2ERKS1_ T
_ZN6google8protobuf22ServiceDescriptorProtoC2Ev T
_ZN6google8protobuf22ServiceDescriptorProtoD0Ev T
_ZN6google8protobuf22ServiceDescriptorProtoD1Ev T
_ZN6google8protobuf22ServiceDescriptorProtoD2Ev T
_ZN6google8protobuf22_Any_default_instance_E B 0000000000000038
_ZN6google8protobuf22_Api_default_instance_E B 0000000000000078
_ZN6google8protobuf23SourceCodeInfo_Location10SharedCtorEv T
_ZN6google8protobuf23SourceCodeInfo_Location10SharedDtorEv T
_ZN6google8protobuf23SourceCodeInfo_Location10descriptorEv T
_ZN6google8protobuf23SourceCodeInfo_Location12InternalSwapEPS1_ T
_ZN6google8protobuf23SourceCodeInfo_Location15UnsafeArenaSwapEPS1_ T
_ZN6google8protobuf23SourceCodeInfo_Location16default_instanceEv T
_ZN6google8protobuf23SourceCodeInfo_Location16kPathFieldNumberE R
_ZN6google8protobuf23SourceCodeInfo_Location16kSpanFieldNumberE R
_ZN6google8protobuf23SourceCodeInfo_Location21InitAsDefaultInstanceEv T
_ZN6google8protobuf23SourceCodeInfo_Location27MergePartialFromCodedStreamEPNS0_2io16CodedInputStreamE T
_ZN6google8protobuf23SourceCodeInfo_Location27kLeadingCommentsFieldNumberE R
_ZN6google8protobuf23SourceCodeInfo_Location28kTrailingCommentsFieldNumberE R
_ZN6google8protobuf23SourceCodeInfo_Location35kLeadingDetachedCommentsFieldNumberE R
_ZN6google8protobuf23SourceCodeInfo_Location4SwapEPS1_ T
_ZN6google8protobuf23SourceCodeInfo_Location5ClearEv T
_ZN6google8protobuf23SourceCodeInfo_Location8CopyFromERKNS0_7MessageE T
_ZN6google8protobuf23SourceCodeInfo_Location8CopyFromERKS1_ T
_ZN6google8protobuf23SourceCodeInfo_Location9ArenaDtorEPv T
_ZN6google8protobuf23SourceCodeInfo_Location9MergeFromERKNS0_7MessageE T
_ZN6google8protobuf23SourceCodeInfo_Location9MergeFromERKS1_ T
_ZN6google8protobuf23SourceCodeInfo_LocationC1EPNS0_5ArenaE T
_ZN6google8protobuf23SourceCodeInfo_LocationC1ERKS1_ T
_ZN6google8protobuf23SourceCodeInfo_LocationC1Ev T
_ZN6google8protobuf23SourceCodeInfo_LocationC2EPNS0_5ArenaE T
_ZN6google8protobuf23SourceCodeInfo_LocationC2ERKS1_ T
_ZN6google8protobuf23SourceCodeInfo_LocationC2Ev T
_ZN6google8protobuf23SourceCodeInfo_LocationD0Ev T
_ZN6google8protobuf23SourceCodeInfo_LocationD1Ev T
_ZN6google8protobuf23SourceCodeInfo_LocationD2Ev T
_ZN6google8protobuf23_Enum_default_instance_E B 0000000000000058
_ZN6google8protobuf23_Type_default_instance_E B 0000000000000070
_ZN6google8protobuf24EnumValueDescriptorProto10SharedCtorEv T
_ZN6google8protobuf24EnumValueDescriptorProto10SharedDtorEv T
_ZN6google8protobuf24EnumValueDescriptorProto10descriptorEv T
_ZN6google8protobuf24EnumValueDescriptorProto12InternalSwapEPS1_ T
_ZN6google8protobuf24EnumValueDescriptorProto15UnsafeArenaSwapEPS1_ T
_ZN6google8protobuf24EnumValueDescriptorProto16default_instanceEv T
_ZN6google8protobuf24EnumValueDescriptorProto16kNameFieldNumberE R
_ZN6google8protobuf24EnumValueDescriptorProto18kNumberFieldNumberE R
_ZN6google8protobuf24EnumValueDescriptorProto19kOptionsFieldNumberE R
_ZN6google8protobuf24EnumValueDescriptorProto21InitAsDefaultInstanceEv T
_ZN6google8protobuf24EnumValueDescriptorProto21_slow_mutable_optionsEv T
_ZN6google8protobuf24EnumValueDescriptorProto27MergePartialFromCodedStreamEPNS0_2io16CodedInputStreamE T
_ZN6google8protobuf24EnumValueDescriptorProto34unsafe_arena_set_allocated_optionsEPNS0_16EnumValueOptionsE T
_ZN6google8protobuf24EnumValueDescriptorProto4SwapEPS1_ T
_ZN6google8protobuf24EnumValueDescriptorProto5ClearEv T
_ZN6google8protobuf24EnumValueDescriptorProto8CopyFromERKNS0_7MessageE T
_ZN6google8protobuf24EnumValueDescriptorProto8CopyFromERKS1_ T
_ZN6google8protobuf24EnumValueDescriptorProto9ArenaDtorEPv T
_ZN6google8protobuf24EnumValueDescriptorProto9MergeFromERKNS0_7MessageE T
_ZN6google8protobuf24EnumValueDescriptorProto9MergeFromERKS1_ T
_ZN6google8protobuf24EnumValueDescriptorProtoC1EPNS0_5ArenaE T
_ZN6google8protobuf24EnumValueDescriptorProtoC1ERKS1_ T
_ZN6google8protobuf24EnumValueDescriptorProtoC1Ev T
_ZN6google8protobuf24EnumValueDescriptorProtoC2EPNS0_5ArenaE T
_ZN6google8protobuf24EnumValueDescriptorProtoC2ERKS1_ T
_ZN6google8protobuf24EnumValueDescriptorProtoC2Ev T
_ZN6google8protobuf24EnumValueDescriptorProtoD0Ev T
_ZN6google8protobuf24EnumValueDescriptorProtoD1Ev T
_ZN6google8protobuf24EnumValueDescriptorProtoD2Ev T
_ZN6google8protobuf24MergedDescriptorDatabase14FindFileByNameERKNSt7__cxx1112basic_stringIcSt11char_traitsIcESaIcEEEPNS0_19FileDescriptorProtoE T
_ZN6google8protobuf24MergedDescriptorDatabase23FindAllExtensionNumbersERKNSt7__cxx1112basic_stringIcSt11char_traitsIcESaIcEEEPSt6vectorIiSaIiEE T
_ZN6google8protobuf24MergedDescriptorDatabase24FindFileContainingSymbolERKNSt7__cxx1112basic_stringIcSt11char_traitsIcESaIcEEEPNS0_19FileDescriptorProtoE T
_ZN6google8protobuf24MergedDescriptorDatabase27FindFileContainingExtensionERKNSt7__cxx1112basic_stringIcSt11char_traitsIcESaIcEEEiPNS0_19FileDescriptorProtoE T
_ZN6google8protobuf24MergedDescriptorDatabaseC1EPNS0_18DescriptorDatabaseES3_ T
_ZN6google8protobuf24MergedDescriptorDatabaseC1ERKSt6vectorIPNS0_18DescriptorDatabaseESaIS4_EE T
_ZN6google8protobuf24MergedDescriptorDatabaseC2EPNS0_18DescriptorDatabaseES3_ T
_ZN6google8protobuf24MergedDescriptorDatabaseC2ERKSt6vectorIPNS0_18DescriptorDatabaseESaIS4_EE T
_ZN6google8protobuf24MergedDescriptorDatabaseD0Ev T
_ZN6google8protobuf24MergedDescriptorDatabaseD1Ev T
_ZN6google8protobuf24MergedDescriptorDatabaseD2Ev T
_ZN6google8protobuf24SimpleDescriptorDatabase14FindFileByNameERKNSt7__cxx1112basic_stringIcSt11char_traitsIcESaIcEEEPNS0_19FileDescriptorProtoE T
_ZN6google8protobuf24SimpleDescriptorDatabase15DescriptorIndexIPKNS0_19FileDescriptorProtoEE12AddExtensionERKNS0_20FieldDescriptorProtoES5_ W
_ZN6google8protobuf24SimpleDescriptorDatabase15DescriptorIndexIPKNS0_19FileDescriptorProtoEE19AddNestedExtensionsERKNS0_15DescriptorProtoES5_ W
_ZN6google8protobuf24SimpleDescriptorDatabase15DescriptorIndexIPKNS0_19FileDescriptorProtoEE23FindAllExtensionNumbersERKNSt7__cxx1112basic_stringIcSt11char_traitsIcESaIcEEEPSt6vectorIiSaIiEE W
_ZN6google8protobuf24SimpleDescriptorDatabase15DescriptorIndexIPKNS0_19FileDescriptorProtoEE7AddFileERS4_S5_ W
_ZN6google8protobuf24SimpleDescriptorDatabase15DescriptorIndexIPKNS0_19FileDescriptorProtoEE9AddSymbolERKNSt7__cxx1112basic_stringIcSt11char_traitsIcESaIcEEES5_ W
_ZN6google8protobuf24SimpleDescriptorDatabase15DescriptorIndexISt4pairIPKviEE12AddExtensionERKNS0_20FieldDescriptorProtoES6_ W
_ZN6google8protobuf24SimpleDescriptorDatabase15DescriptorIndexISt4pairIPKviEE19AddNestedExtensionsERKNS0_15DescriptorProtoES6_ W
_ZN6google8protobuf24SimpleDescriptorDatabase15DescriptorIndexISt4pairIPKviEE23FindAllExtensionNumbersERKNSt7__cxx1112basic_stringIcSt11char_traitsIcESaIcEEEPSt6vectorIiSaIiEE W
_ZN6google8protobuf24SimpleDescriptorDatabase15DescriptorIndexISt4pairIPKviEE7AddFileERKNS0_19FileDescriptorProtoES6_ W
_ZN6google8protobuf24SimpleDescriptorDatabase15DescriptorIndexISt4pairIPKviEE9AddSymbolERKNSt7__cxx1112basic_stringIcSt11char_traitsIcESaIcEEES6_ W
_ZN6google8protobuf24SimpleDescriptorDatabase23FindAllExtensionNumbersERKNSt7__cxx1112basic_stringIcSt11char_traitsIcESaIcEEEPSt6vectorIiSaIiEE T
_ZN6google8protobuf24SimpleDescriptorDatabase24FindFileContainingSymbolERKNSt7__cxx1112basic_stringIcSt11char_traitsIcESaIcEEEPNS0_19FileDescriptorProtoE T
_ZN6google8protobuf24SimpleDescriptorDatabase27FindFileContainingExtensionERKNSt7__cxx1112basic_stringIcSt11char_traitsIcESaIcEEEiPNS0_19FileDescriptorProtoE T
_ZN6google8protobuf24SimpleDescriptorDatabase3AddERKNS0_19FileDescriptorProtoE T
_ZN6google8protobuf24SimpleDescriptorDatabase9AddAndOwnEPKNS0_19FileDescriptorProtoE T
_ZN6google8protobuf24SimpleDescriptorDatabase9MaybeCopyEPKNS0_19FileDescriptorProtoEPS2_ T
_ZN6google8protobuf24SimpleDescriptorDatabaseC1Ev T
_ZN6google8protobuf24SimpleDescriptorDatabaseC2Ev T
_ZN6google8protobuf24SimpleDescriptorDatabaseD0Ev T
_ZN6google8protobuf24SimpleDescriptorDatabaseD1Ev T
_ZN6google8protobuf24SimpleDescriptorDatabaseD2Ev T
_ZN6google8protobuf24_Empty_default_instance_E B 0000000000000018
_ZN6google8protobuf24_Field_default_instance_E B 0000000000000060
_ZN6google8protobuf24_Mixin_default_instance_E B 0000000000000028
_ZN6google8protobuf24_Value_default_instance_E B 0000000000000050
_ZN6google8protobuf25EncodedDescriptorDatabase10MaybeParseESt4pairIPKviEPNS0_19FileDescriptorProtoE T
_ZN6google8protobuf25EncodedDescriptorDatabase14FindFileByNameERKNSt7__cxx1112basic_stringIcSt11char_traitsIcESaIcEEEPNS0_19FileDescriptorProtoE T
_ZN6google8protobuf25EncodedDescriptorDatabase23FindAllExtensionNumbersERKNSt7__cxx1112basic_stringIcSt11char_traitsIcESaIcEEEPSt6vectorIiSaIiEE T
_ZN6google8protobuf25EncodedDescriptorDatabase24FindFileContainingSymbolERKNSt7__cxx1112basic_stringIcSt11char_traitsIcESaIcEEEPNS0_19FileDescriptorProtoE T
_ZN6google8protobuf25EncodedDescriptorDatabase27FindFileContainingExtensionERKNSt7__cxx1112basic_stringIcSt11char_traitsIcESaIcEEEiPNS0_19FileDescriptorProtoE T
_ZN6google8protobuf25EncodedDescriptorDatabase30FindNameOfFileContainingSymbolERKNSt7__cxx1112basic_stringIcSt11char_traitsIcESaIcEEEPS7_ T
_ZN6google8protobuf25EncodedDescriptorDatabase3AddEPKvi T
_ZN6google8protobuf25EncodedDescriptorDatabase7AddCopyEPKvi T
_ZN6google8protobuf25EncodedDescriptorDatabaseC1Ev T
_ZN6google8protobuf25EncodedDescriptorDatabaseC2Ev T
_ZN6google8protobuf25EncodedDescriptorDatabaseD0Ev T
_ZN6google8protobuf25EncodedDescriptorDatabaseD1Ev T
_ZN6google8protobuf25EncodedDescriptorDatabaseD2Ev T
_ZN6google8protobuf25Field_Cardinality_IsValidEi T
_ZN6google8protobuf25_Method_default_instance_E B 0000000000000050
_ZN6google8protobuf25_Option_default_instance_E B 0000000000000028
_ZN6google8protobuf25_Struct_default_instance_E B 0000000000000060
_ZN6google8protobuf26FieldOptions_CType_IsValidEi T
_ZN6google8protobuf27FieldOptions_JSType_IsValidEi T
_ZN6google8protobuf27Struct_FieldsEntry_DoNotUse9MergeFromERKNS0_7MessageE T
_ZN6google8protobuf27Struct_FieldsEntry_DoNotUse9MergeFromERKS1_ T
_ZN6google8protobuf27Struct_FieldsEntry_DoNotUseC1EPNS0_5ArenaE T
_ZN6google8protobuf27Struct_FieldsEntry_DoNotUseC1Ev T
_ZN6google8protobuf27Struct_FieldsEntry_DoNotUseC2EPNS0_5ArenaE T
_ZN6google8protobuf27Struct_FieldsEntry_DoNotUseC2Ev T
_ZN6google8protobuf27Struct_FieldsEntry_DoNotUseD0Ev W
_ZN6google8protobuf27Struct_FieldsEntry_DoNotUseD1Ev W
_ZN6google8protobuf27Struct_FieldsEntry_DoNotUseD2Ev W
_ZN6google8protobuf27_Duration_default_instance_E B 0000000000000020
_ZN6google8protobuf28Field_Cardinality_descriptorEv T
_ZN6google8protobuf28GeneratedCodeInfo_Annotation10SharedCtorEv T
_ZN6google8protobuf28GeneratedCodeInfo_Annotation10SharedDtorEv T
_ZN6google8protobuf28GeneratedCodeInfo_Annotation10descriptorEv T
_ZN6google8protobuf28GeneratedCodeInfo_Annotation12InternalSwapEPS1_ T
_ZN6google8protobuf28GeneratedCodeInfo_Annotation15UnsafeArenaSwapEPS1_ T
_ZN6google8protobuf28GeneratedCodeInfo_Annotation15kEndFieldNumberE R
_ZN6google8protobuf28GeneratedCodeInfo_Annotation16default_instanceEv T
_ZN6google8protobuf28GeneratedCodeInfo_Annotation16kPathFieldNumberE R
_ZN6google8protobuf28GeneratedCodeInfo_Annotation17kBeginFieldNumberE R
_ZN6google8protobuf28GeneratedCodeInfo_Annotation21InitAsDefaultInstanceEv T
_ZN6google8protobuf28GeneratedCodeInfo_Annotation22kSourceFileFieldNumberE R
_ZN6google8protobuf28GeneratedCodeInfo_Annotation27MergePartialFromCodedStreamEPNS0_2io16CodedInputStreamE T
_ZN6google8protobuf28GeneratedCodeInfo_Annotation4SwapEPS1_ T
_ZN6google8protobuf28GeneratedCodeInfo_Annotation5ClearEv T
_ZN6google8protobuf28GeneratedCodeInfo_Annotation8CopyFromERKNS0_7MessageE T
_ZN6google8protobuf28GeneratedCodeInfo_Annotation8CopyFromERKS1_ T
_ZN6google8protobuf28GeneratedCodeInfo_Annotation9ArenaDtorEPv T
_ZN6google8protobuf28GeneratedCodeInfo_Annotation9MergeFromERKNS0_7MessageE T
_ZN6google8protobuf28GeneratedCodeInfo_Annotation9MergeFromERKS1_ T
_ZN6google8protobuf28GeneratedCodeInfo_AnnotationC1EPNS0_5ArenaE T
_ZN6google8protobuf28GeneratedCodeInfo_AnnotationC1ERKS1_ T
_ZN6google8protobuf28GeneratedCodeInfo_AnnotationC1Ev T
_ZN6google8protobuf28GeneratedCodeInfo_AnnotationC2EPNS0_5ArenaE T
_ZN6google8protobuf28GeneratedCodeInfo_AnnotationC2ERKS1_ T
_ZN6google8protobuf28GeneratedCodeInfo_AnnotationC2Ev T
_ZN6google8protobuf28GeneratedCodeInfo_AnnotationD0Ev T
_ZN6google8protobuf28GeneratedCodeInfo_AnnotationD1Ev T
_ZN6google8protobuf28GeneratedCodeInfo_AnnotationD2Ev T
_ZN6google8protobuf28UninterpretedOption_NamePart10SharedCtorEv T
_ZN6google8protobuf28UninterpretedOption_NamePart10SharedDtorEv T
_ZN6google8protobuf28UninterpretedOption_NamePart10descriptorEv T
_ZN6google8protobuf28UninterpretedOption_NamePart12InternalSwapEPS1_ T
_ZN6google8protobuf28UninterpretedOption_NamePart15UnsafeArenaSwapEPS1_ T
_ZN6google8protobuf28UninterpretedOption_NamePart16default_instanceEv T
_ZN6google8protobuf28UninterpretedOption_NamePart20kNamePartFieldNumberE R
_ZN6google8protobuf28UninterpretedOption_NamePart21InitAsDefaultInstanceEv T
_ZN6google8protobuf28UninterpretedOption_NamePart23kIsExtensionFieldNumberE R
_ZN6google8protobuf28UninterpretedOption_NamePart27MergePartialFromCodedStreamEPNS0_2io16CodedInputStreamE T
_ZN6google8protobuf28UninterpretedOption_NamePart4SwapEPS1_ T
_ZN6google8protobuf28UninterpretedOption_NamePart5ClearEv T
_ZN6google8protobuf28UninterpretedOption_NamePart8CopyFromERKNS0_7MessageE T
_ZN6google8protobuf28UninterpretedOption_NamePart8CopyFromERKS1_ T
_ZN6google8protobuf28UninterpretedOption_NamePart9ArenaDtorEPv T
_ZN6google8protobuf28UninterpretedOption_NamePart9MergeFromERKNS0_7MessageE T
_ZN6google8protobuf28UninterpretedOption_NamePart9MergeFromERKS1_ T
_ZN6google8protobuf28UninterpretedOption_NamePartC1EPNS0_5ArenaE T
_ZN6google8protobuf28UninterpretedOption_NamePartC1ERKS1_ T
_ZN6google8protobuf28UninterpretedOption_NamePartC1Ev T
_ZN6google8protobuf28UninterpretedOption_NamePartC2EPNS0_5ArenaE T
_ZN6google8protobuf28UninterpretedOption_NamePartC2ERKS1_ T
_ZN6google8protobuf28UninterpretedOption_NamePartC2Ev T
_ZN6google8protobuf28UninterpretedOption_NamePartD0Ev T
_ZN6google8protobuf28UninterpretedOption_NamePartD1Ev T
_ZN6google8protobuf28UninterpretedOption_NamePartD2Ev T
_ZN6google8protobuf28_BoolValue_default_instance_E B 0000000000000018
_ZN6google8protobuf28_EnumValue_default_instance_E B 0000000000000038
_ZN6google8protobuf28_FieldMask_default_instance_E B 0000000000000030
_ZN6google8protobuf28_ListValue_default_instance_E B 0000000000000030
_ZN6google8protobuf28_Timestamp_default_instance_E B 0000000000000020
_ZN6google8protobuf29DescriptorProto_ReservedRange10SharedCtorEv T
_ZN6google8protobuf29DescriptorProto_ReservedRange10SharedDtorEv T
_ZN6google8protobuf29DescriptorProto_ReservedRange10descriptorEv T
_ZN6google8protobuf29DescriptorProto_ReservedRange12InternalSwapEPS1_ T
_ZN6google8protobuf29DescriptorProto_ReservedRange15UnsafeArenaSwapEPS1_ T
_ZN6google8protobuf29DescriptorProto_ReservedRange15kEndFieldNumberE R
_ZN6google8protobuf29DescriptorProto_ReservedRange16default_instanceEv T
_ZN6google8protobuf29DescriptorProto_ReservedRange17kStartFieldNumberE R
_ZN6google8protobuf29DescriptorProto_ReservedRange21InitAsDefaultInstanceEv T
_ZN6google8protobuf29DescriptorProto_ReservedRange27MergePartialFromCodedStreamEPNS0_2io16CodedInputStreamE T
_ZN6google8protobuf29DescriptorProto_ReservedRange4SwapEPS1_ T
_ZN6google8protobuf29DescriptorProto_ReservedRange5ClearEv T
_ZN6google8protobuf29DescriptorProto_ReservedRange8CopyFromERKNS0_7MessageE T
_ZN6google8protobuf29DescriptorProto_ReservedRange8CopyFromERKS1_ T
_ZN6google8protobuf29DescriptorProto_ReservedRange9ArenaDtorEPv T
_ZN6google8protobuf29DescriptorProto_ReservedRange9MergeFromERKNS0_7MessageE T
_ZN6google8protobuf29DescriptorProto_ReservedRange9MergeFromERKS1_ T
_ZN6google8protobuf29DescriptorProto_ReservedRangeC1EPNS0_5ArenaE T
_ZN6google8protobuf29DescriptorProto_ReservedRangeC1ERKS1_ T
_ZN6google8protobuf29DescriptorProto_ReservedRangeC1Ev T
_ZN6google8protobuf29DescriptorProto_ReservedRangeC2EPNS0_5ArenaE T
_ZN6google8protobuf29DescriptorProto_ReservedRangeC2ERKS1_ T
_ZN6google8protobuf29DescriptorProto_ReservedRangeC2Ev T
_ZN6google8protobuf29DescriptorProto_ReservedRangeD0Ev T
_ZN6google8protobuf29DescriptorProto_ReservedRangeD1Ev T
_ZN6google8protobuf29DescriptorProto_ReservedRangeD2Ev T
_ZN6google8protobuf29FieldOptions_CType_descriptorEv T
_ZN6google8protobuf29_BytesValue_default_instance_E B 0000000000000020
_ZN6google8protobuf29_FloatValue_default_instance_E B 0000000000000018
_ZN6google8protobuf29_Int32Value_default_instance_E B 0000000000000018
_ZN6google8protobuf29_Int64Value_default_instance_E B 0000000000000020
_ZN6google8protobuf2io14ErrorCollector10AddWarningEiiRKNSt7__cxx1112basic_stringIcSt11char_traitsIcESaIcEEE W
_ZN6google8protobuf2io14ErrorCollectorD0Ev T
_ZN6google8protobuf2io14ErrorCollectorD1Ev T
_ZN6google8protobuf2io14ErrorCollectorD2Ev T
_ZN6google8protobuf2io14NoLocaleStrtodEPKcPPc T
_ZN6google8protobuf2io15FileInputStream22CopyingFileInputStream4ReadEPvi T
_ZN6google8protobuf2io15FileInputStream22CopyingFileInputStream4SkipEi T
_ZN6google8protobuf2io15FileInputStream22CopyingFileInputStream5CloseEv T
_ZN6google8protobuf2io15FileInputStream22CopyingFileInputStreamC1Ei T
_ZN6google8protobuf2io15FileInputStream22CopyingFileInputStreamC2Ei T
_ZN6google8protobuf2io15FileInputStream22CopyingFileInputStreamD0Ev T
_ZN6google8protobuf2io15FileInputStream22CopyingFileInputStreamD1Ev T
_ZN6google8protobuf2io15FileInputStream22CopyingFileInputStreamD2Ev T
_ZN6google8protobuf2io15FileInputStream4NextEPPKvPi T
_ZN6google8protobuf2io15FileInputStream4SkipEi T
_ZN6google8protobuf2io15FileInputStream5CloseEv T
_ZN6google8protobuf2io15FileInputStream6BackUpEi T
_ZN6google8protobuf2io15FileInputStreamC1Eii T
_ZN6google8protobuf2io15FileInputStreamC2Eii T
_ZN6google8protobuf2io15FileInputStreamD0Ev W
_ZN6google8protobuf2io15FileInputStreamD1Ev W
_ZN6google8protobuf2io15FileInputStreamD2Ev W
_ZN6google8protobuf2io16CodedInputStream12ReadVarint32EPj W
_ZN6google8protobuf2io16CodedInputStream12ReadVarint64EPm W
_ZN6google8protobuf2io16CodedInputStream18ReadLittleEndian32EPj W
_ZN6google8protobuf2io16CodedInputStream18ReadLittleEndian64EPm W
_ZN6google8protobuf2io16FileOutputStream23CopyingFileOutputStream5CloseEv T
_ZN6google8protobuf2io16FileOutputStream23CopyingFileOutputStream5WriteEPKvi T
_ZN6google8protobuf2io16FileOutputStream23CopyingFileOutputStreamC1Ei T
_ZN6google8protobuf2io16FileOutputStream23CopyingFileOutputStreamC2Ei T
_ZN6google8protobuf2io16FileOutputStream23CopyingFileOutputStreamD0Ev T
_ZN6google8protobuf2io16FileOutputStream23CopyingFileOutputStreamD1Ev T
_ZN6google8protobuf2io16FileOutputStream23CopyingFileOutputStreamD2Ev T
_ZN6google8protobuf2io16FileOutputStream4NextEPPvPi T
_ZN6google8protobuf2io16FileOutputStream5CloseEv T
_ZN6google8protobuf2io16FileOutputStream5FlushEv T
_ZN6google8protobuf2io16FileOutputStream6BackUpEi T
_ZN6google8protobuf2io16FileOutputStreamC1Eii T
_ZN6google8protobuf2io16FileOutputStreamC2Eii T
_ZN6google8protobuf2io16FileOutputStreamD0Ev T
_ZN6google8protobuf2io16FileOutputStreamD1Ev T
_ZN6google8protobuf2io16FileOutputStreamD2Ev T
_ZN6google8protobuf2io17CodedOutputStream13WriteVarint32Ej W
_ZN6google8protobuf2io17SafeDoubleToFloatEd T
_ZN6google8protobuf2io18IstreamInputStream25CopyingIstreamInputStream4ReadEPvi T
_ZN6google8protobuf2io18IstreamInputStream25CopyingIstreamInputStreamC1EPSi T
_ZN6google8protobuf2io18IstreamInputStream25CopyingIstreamInputStreamC2EPSi T
_ZN6google8protobuf2io18IstreamInputStream25CopyingIstreamInputStreamD0Ev T
_ZN6google8protobuf2io18IstreamInputStream25CopyingIstreamInputStreamD1Ev T
_ZN6google8protobuf2io18IstreamInputStream25CopyingIstreamInputStreamD2Ev T
_ZN6google8protobuf2io18IstreamInputStream4NextEPPKvPi T
_ZN6google8protobuf2io18IstreamInputStream4SkipEi T
_ZN6google8protobuf2io18IstreamInputStream6BackUpEi T
_ZN6google8protobuf2io18IstreamInputStreamC1EPSii T
_ZN6google8protobuf2io18IstreamInputStreamC2EPSii T
_ZN6google8protobuf2io18IstreamInputStreamD0Ev W
_ZN6google8protobuf2io18IstreamInputStreamD1Ev W
_ZN6google8protobuf2io18IstreamInputStreamD2Ev W
_ZN6google8protobuf2io19LimitingInputStream4NextEPPKvPi T
_ZN6google8protobuf2io19LimitingInputStream4SkipEi T
_ZN6google8protobuf2io19LimitingInputStream6BackUpEi T
_ZN6google8protobuf2io19LimitingInputStreamC1EPNS1_19ZeroCopyInputStreamEl T
_ZN6google8protobuf2io19LimitingInputStreamC2EPNS1_19ZeroCopyInputStreamEl T
_ZN6google8protobuf2io19LimitingInputStreamD0Ev T
_ZN6google8protobuf2io19LimitingInputStreamD1Ev T
_ZN6google8protobuf2io19LimitingInputStreamD2Ev T
_ZN6google8protobuf2io19OstreamOutputStream26CopyingOstreamOutputStream5WriteEPKvi T
_ZN6google8protobuf2io19OstreamOutputStream26CopyingOstreamOutputStreamC1EPSo T
_ZN6google8protobuf2io19OstreamOutputStream26CopyingOstreamOutputStreamC2EPSo T
_ZN6google8protobuf2io19OstreamOutputStream26CopyingOstreamOutputStreamD0Ev T
_ZN6google8protobuf2io19OstreamOutputStream26CopyingOstreamOutputStreamD1Ev T
_ZN6google8protobuf2io19OstreamOutputStream26CopyingOstreamOutputStreamD2Ev T
_ZN6google8protobuf2io19OstreamOutputStream4NextEPPvPi T
_ZN6google8protobuf2io19OstreamOutputStream6BackUpEi T
_ZN6google8protobuf2io19OstreamOutputStreamC1EPSoi T
_ZN6google8protobuf2io19OstreamOutputStreamC2EPSoi T
_ZN6google8protobuf2io19OstreamOutputStreamD0Ev T
_ZN6google8protobuf2io19OstreamOutputStreamD1Ev T
_ZN6google8protobuf2io19OstreamOutputStreamD2Ev T
_ZN6google8protobuf2io24ConcatenatingInputStream4NextEPPKvPi T
_ZN6google8protobuf2io24ConcatenatingInputStream4SkipEi T
_ZN6google8protobuf2io24ConcatenatingInputStream6BackUpEi T
_ZN6google8protobuf2io24ConcatenatingInputStreamC1EPKPNS1_19ZeroCopyInputStreamEi T
_ZN6google8protobuf2io24ConcatenatingInputStreamC2EPKPNS1_19ZeroCopyInputStreamEi T
_ZN6google8protobuf2io24ConcatenatingInputStreamD0Ev W
_ZN6google8protobuf2io24ConcatenatingInputStreamD1Ev W
_ZN6google8protobuf2io24ConcatenatingInputStreamD2Ev W
_ZN6google8protobuf2io7Printer12CopyToBufferEPKci T
_ZN6google8protobuf2io7Printer20GetSubstitutionRangeEPKcPSt4pairImmE T
_ZN6google8protobuf2io7Printer5PrintEPKc T
_ZN6google8protobuf2io7Printer5PrintEPKcS4_RKNSt7__cxx1112basic_stringIcSt11char_traitsIcESaIcEEE T
_ZN6google8protobuf2io7Printer5PrintEPKcS4_RKNSt7__cxx1112basic_stringIcSt11char_traitsIcESaIcEEES4_SC_ T
_ZN6google8protobuf2io7Printer5PrintEPKcS4_RKNSt7__cxx1112basic_stringIcSt11char_traitsIcESaIcEEES4_SC_S4_SC_ T
_ZN6google8protobuf2io7Printer5PrintEPKcS4_RKNSt7__cxx1112basic_stringIcSt11char_traitsIcESaIcEEES4_SC_S4_SC_S4_SC_ T
_ZN6google8protobuf2io7Printer5PrintEPKcS4_RKNSt7__cxx1112basic_stringIcSt11char_traitsIcESaIcEEES4_SC_S4_SC_S4_SC_S4_SC_ T
_ZN6google8protobuf2io7Printer5PrintEPKcS4_RKNSt7__cxx1112basic_stringIcSt11char_traitsIcESaIcEEES4_SC_S4_SC_S4_SC_S4_SC_S4_SC_ T
_ZN6google8protobuf2io7Printer5PrintEPKcS4_RKNSt7__cxx1112basic_stringIcSt11char_traitsIcESaIcEEES4_SC_S4_SC_S4_SC_S4_SC_S4_SC_S4_SC_ T
_ZN6google8protobuf2io7Printer5PrintEPKcS4_RKNSt7__cxx1112basic_stringIcSt11char_traitsIcESaIcEEES4_SC_S4_SC_S4_SC_S4_SC_S4_SC_S4_SC_S4_SC_ T
_ZN6google8protobuf2io7Printer5PrintERKSt3mapINSt7__cxx1112basic_stringIcSt11char_traitsIcESaIcEEES9_St4lessIS9_ESaISt4pairIKS9_S9_EEEPKc T
_ZN6google8protobuf2io7Printer6IndentEv T
_ZN6google8protobuf2io7Printer7OutdentEv T
_ZN6google8protobuf2io7Printer8AnnotateEPKcS4_RKNSt7__cxx1112basic_stringIcSt11char_traitsIcESaIcEEERKSt6vectorIiSaIiEE T
_ZN6google8protobuf2io7Printer8PrintRawEPKc T
_ZN6google8protobuf2io7Printer8PrintRawERKNSt7__cxx1112basic_stringIcSt11char_traitsIcESaIcEEE T
_ZN6google8protobuf2io7Printer8WriteRawEPKci T
_ZN6google8protobuf2io7PrinterC1EPNS1_20ZeroCopyOutputStreamEc T
_ZN6google8protobuf2io7PrinterC1EPNS1_20ZeroCopyOutputStreamEcPNS1_19AnnotationCollectorE T
_ZN6google8protobuf2io7PrinterC2EPNS1_20ZeroCopyOutputStreamEc T
_ZN6google8protobuf2io7PrinterC2EPNS1_20ZeroCopyOutputStreamEcPNS1_19AnnotationCollectorE T
_ZN6google8protobuf2io7PrinterD1Ev T
_ZN6google8protobuf2io7PrinterD2Ev T
_ZN6google8protobuf2io9Tokenizer10ParseFloatERKNSt7__cxx1112basic_stringIcSt11char_traitsIcESaIcEEE T
_ZN6google8protobuf2io9Tokenizer12IsIdentifierERKNSt7__cxx1112basic_stringIcSt11char_traitsIcESaIcEEE T
_ZN6google8protobuf2io9Tokenizer12ParseIntegerERKNSt7__cxx1112basic_stringIcSt11char_traitsIcESaIcEEEmPm T
_ZN6google8protobuf2io9Tokenizer13ConsumeNumberEbb T
_ZN6google8protobuf2io9Tokenizer13ConsumeStringEc T
_ZN6google8protobuf2io9Tokenizer16NextWithCommentsEPNSt7__cxx1112basic_stringIcSt11char_traitsIcESaIcEEEPSt6vectorIS8_SaIS8_EES9_ T
_ZN6google8protobuf2io9Tokenizer17ParseStringAppendERKNSt7__cxx1112basic_stringIcSt11char_traitsIcESaIcEEEPS8_ T
_ZN6google8protobuf2io9Tokenizer18ConsumeLineCommentEPNSt7__cxx1112basic_stringIcSt11char_traitsIcESaIcEEE T
_ZN6google8protobuf2io9Tokenizer19ConsumeBlockCommentEPNSt7__cxx1112basic_stringIcSt11char_traitsIcESaIcEEE T
_ZN6google8protobuf2io9Tokenizer22TryConsumeCommentStartEv T
_ZN6google8protobuf2io9Tokenizer4NextEv T
_ZN6google8protobuf2io9Tokenizer7RefreshEv T
_ZN6google8protobuf2io9Tokenizer8NextCharEv T
_ZN6google8protobuf2io9TokenizerC1EPNS1_19ZeroCopyInputStreamEPNS1_14ErrorCollectorE T
_ZN6google8protobuf2io9TokenizerC2EPNS1_19ZeroCopyInputStreamEPNS1_14ErrorCollectorE T
_ZN6google8protobuf2io9TokenizerD1Ev T
_ZN6google8protobuf2io9TokenizerD2Ev T
_ZN6google8protobuf30DescriptorProto_ExtensionRange10SharedCtorEv T
_ZN6google8protobuf30DescriptorProto_ExtensionRange10SharedDtorEv T
_ZN6google8protobuf30DescriptorProto_ExtensionRange10descriptorEv T
_ZN6google8protobuf30DescriptorProto_ExtensionRange12InternalSwapEPS1_ T
_ZN6google8protobuf30DescriptorProto_ExtensionRange15UnsafeArenaSwapEPS1_ T
_ZN6google8protobuf30DescriptorProto_ExtensionRange15kEndFieldNumberE R
_ZN6google8protobuf30DescriptorProto_ExtensionRange16default_instanceEv T
_ZN6google8protobuf30DescriptorProto_ExtensionRange17kStartFieldNumberE R
_ZN6google8protobuf30DescriptorProto_ExtensionRange19kOptionsFieldNumberE R
_ZN6google8protobuf30DescriptorProto_ExtensionRange21InitAsDefaultInstanceEv T
_ZN6google8protobuf30DescriptorProto_ExtensionRange21_slow_mutable_optionsEv T
_ZN6google8protobuf30DescriptorProto_ExtensionRange27MergePartialFromCodedStreamEPNS0_2io16CodedInputStreamE T
_ZN6google8protobuf30DescriptorProto_ExtensionRange34unsafe_arena_set_allocated_optionsEPNS0_21ExtensionRangeOptionsE T
_ZN6google8protobuf30DescriptorProto_ExtensionRange4SwapEPS1_ T
_ZN6google8protobuf30DescriptorProto_ExtensionRange5ClearEv T
_ZN6google8protobuf30DescriptorProto_ExtensionRange8CopyFromERKNS0_7MessageE T
_ZN6google8protobuf30DescriptorProto_ExtensionRange8CopyFromERKS1_ T
_ZN6google8protobuf30DescriptorProto_ExtensionRange9ArenaDtorEPv T
_ZN6google8protobuf30DescriptorProto_ExtensionRange9MergeFromERKNS0_7MessageE T
_ZN6google8protobuf30DescriptorProto_ExtensionRange9MergeFromERKS1_ T
_ZN6google8protobuf30DescriptorProto_ExtensionRangeC1EPNS0_5ArenaE T
_ZN6google8protobuf30DescriptorProto_ExtensionRangeC1ERKS1_ T
_ZN6google8protobuf30DescriptorProto_ExtensionRangeC1Ev T
_ZN6google8protobuf30DescriptorProto_ExtensionRangeC2EPNS0_5ArenaE T
_ZN6google8protobuf30DescriptorProto_ExtensionRangeC2ERKS1_ T
_ZN6google8protobuf30DescriptorProto_ExtensionRangeC2Ev T
_ZN6google8protobuf30DescriptorProto_ExtensionRangeD0Ev T
_ZN6google8protobuf30DescriptorProto_ExtensionRangeD1Ev T
_ZN6google8protobuf30DescriptorProto_ExtensionRangeD2Ev T
_ZN6google8protobuf30FieldOptions_JSType_descriptorEv T
_ZN6google8protobuf30_DoubleValue_default_instance_E B 0000000000000020
_ZN6google8protobuf30_EnumOptions_default_instance_E B 0000000000000070
_ZN6google8protobuf30_FileOptions_default_instance_E B 00000000000000b8
_ZN6google8protobuf30_StringValue_default_instance_E B 0000000000000020
_ZN6google8protobuf30_UInt32Value_default_instance_E B 0000000000000018
_ZN6google8protobuf30_UInt64Value_default_instance_E B 0000000000000020
_ZN6google8protobuf31_FieldOptions_default_instance_E B 0000000000000078
_ZN6google8protobuf31_OneofOptions_default_instance_E B 0000000000000068
_ZN6google8protobuf32FileOptions_OptimizeMode_IsValidEi T
_ZN6google8protobuf32_MethodOptions_default_instance_E B 0000000000000070
_ZN6google8protobuf32_SourceContext_default_instance_E B 0000000000000020
_ZN6google8protobuf33FieldDescriptorProto_Type_IsValidEi T
_ZN6google8protobuf33_MessageOptions_default_instance_E B 0000000000000070
_ZN6google8protobuf33_ServiceOptions_default_instance_E B 0000000000000070
_ZN6google8protobuf33_SourceCodeInfo_default_instance_E B 0000000000000030
_ZN6google8protobuf34FieldDescriptorProto_Label_IsValidEi T
_ZN6google8protobuf34_DescriptorProto_default_instance_E B 00000000000000e8
_ZN6google8protobuf35FileOptions_OptimizeMode_descriptorEv T
_ZN6google8protobuf35_EnumValueOptions_default_instance_E B 0000000000000070
_ZN6google8protobuf36FieldDescriptorProto_Type_descriptorEv T
_ZN6google8protobuf36_FileDescriptorSet_default_instance_E B 0000000000000030
_ZN6google8protobuf36_GeneratedCodeInfo_default_instance_E B 0000000000000030
_ZN6google8protobuf37EnumDescriptorProto_EnumReservedRange10SharedCtorEv T
_ZN6google8protobuf37EnumDescriptorProto_EnumReservedRange10SharedDtorEv T
_ZN6google8protobuf37EnumDescriptorProto_EnumReservedRange10descriptorEv T
_ZN6google8protobuf37EnumDescriptorProto_EnumReservedRange12InternalSwapEPS1_ T
_ZN6google8protobuf37EnumDescriptorProto_EnumReservedRange15UnsafeArenaSwapEPS1_ T
_ZN6google8protobuf37EnumDescriptorProto_EnumReservedRange15kEndFieldNumberE R
_ZN6google8protobuf37EnumDescriptorProto_EnumReservedRange16default_instanceEv T
_ZN6google8protobuf37EnumDescriptorProto_EnumReservedRange17kStartFieldNumberE R
_ZN6google8protobuf37EnumDescriptorProto_EnumReservedRange21InitAsDefaultInstanceEv T
_ZN6google8protobuf37EnumDescriptorProto_EnumReservedRange27MergePartialFromCodedStreamEPNS0_2io16CodedInputStreamE T
_ZN6google8protobuf37EnumDescriptorProto_EnumReservedRange4SwapEPS1_ T
_ZN6google8protobuf37EnumDescriptorProto_EnumReservedRange5ClearEv T
_ZN6google8protobuf37EnumDescriptorProto_EnumReservedRange8CopyFromERKNS0_7MessageE T
_ZN6google8protobuf37EnumDescriptorProto_EnumReservedRange8CopyFromERKS1_ T
_ZN6google8protobuf37EnumDescriptorProto_EnumReservedRange9ArenaDtorEPv T
_ZN6google8protobuf37EnumDescriptorProto_EnumReservedRange9MergeFromERKNS0_7MessageE T
_ZN6google8protobuf37EnumDescriptorProto_EnumReservedRange9MergeFromERKS1_ T
_ZN6google8protobuf37EnumDescriptorProto_EnumReservedRangeC1EPNS0_5ArenaE T
_ZN6google8protobuf37EnumDescriptorProto_EnumReservedRangeC1ERKS1_ T
_ZN6google8protobuf37EnumDescriptorProto_EnumReservedRangeC1Ev T
_ZN6google8protobuf37EnumDescriptorProto_EnumReservedRangeC2EPNS0_5ArenaE T
_ZN6google8protobuf37EnumDescriptorProto_EnumReservedRangeC2ERKS1_ T
_ZN6google8protobuf37EnumDescriptorProto_EnumReservedRangeC2Ev T
_ZN6google8protobuf37EnumDescriptorProto_EnumReservedRangeD0Ev T
_ZN6google8protobuf37EnumDescriptorProto_EnumReservedRangeD1Ev T
_ZN6google8protobuf37EnumDescriptorProto_EnumReservedRangeD2Ev T
_ZN6google8protobuf37FieldDescriptorProto_Label_descriptorEv T
_ZN6google8protobuf38MethodOptions_IdempotencyLevel_IsValidEi T
_ZN6google8protobuf38_EnumDescriptorProto_default_instance_E B 0000000000000070
_ZN6google8protobuf38_FileDescriptorProto_default_instance_E B 00000000000000d8
_ZN6google8protobuf38_UninterpretedOption_default_instance_E B 0000000000000060
_ZN6google8protobuf39_FieldDescriptorProto_default_instance_E B 0000000000000058
_ZN6google8protobuf39_OneofDescriptorProto_default_instance_E B 0000000000000028
_ZN6google8protobuf3Any10SharedCtorEv T
_ZN6google8protobuf3Any10SharedDtorEv T
_ZN6google8protobuf3Any10descriptorEv T
_ZN6google8protobuf3Any12InternalSwapEPS1_ T
_ZN6google8protobuf3Any16default_instanceEv T
_ZN6google8protobuf3Any17kValueFieldNumberE R
_ZN6google8protobuf3Any19kTypeUrlFieldNumberE R
_ZN6google8protobuf3Any21InitAsDefaultInstanceEv T
_ZN6google8protobuf3Any27MergePartialFromCodedStreamEPNS0_2io16CodedInputStreamE T
_ZN6google8protobuf3Any4SwapEPS1_ T
_ZN6google8protobuf3Any5ClearEv T
_ZN6google8protobuf3Any8CopyFromERKNS0_7MessageE T
_ZN6google8protobuf3Any8CopyFromERKS1_ T
_ZN6google8protobuf3Any8PackFromERKNS0_7MessageE T
_ZN6google8protobuf3Any8PackFromERKNS0_7MessageERKNSt7__cxx1112basic_stringIcSt11char_traitsIcESaIcEEE T
_ZN6google8protobuf3Any9MergeFromERKNS0_7MessageE T
_ZN6google8protobuf3Any9MergeFromERKS1_ T
_ZN6google8protobuf3AnyC1ERKS1_ T
_ZN6google8protobuf3AnyC1Ev T
_ZN6google8protobuf3AnyC2ERKS1_ T
_ZN6google8protobuf3AnyC2Ev T
_ZN6google8protobuf3AnyD0Ev T
_ZN6google8protobuf3AnyD1Ev T
_ZN6google8protobuf3AnyD2Ev T
_ZN6google8protobuf3Api10SharedCtorEv T
_ZN6google8protobuf3Api10SharedDtorEv T
_ZN6google8protobuf3Api10descriptorEv T
_ZN6google8protobuf3Api12InternalSwapEPS1_ T
_ZN6google8protobuf3Api13clear_optionsEv T
_ZN6google8protobuf3Api16default_instanceEv T
_ZN6google8protobuf3Api16kNameFieldNumberE R
_ZN6google8protobuf3Api18kMixinsFieldNumberE R
_ZN6google8protobuf3Api18kSyntaxFieldNumberE R
_ZN6google8protobuf3Api19kMethodsFieldNumberE R
_ZN6google8protobuf3Api19kOptionsFieldNumberE R
_ZN6google8protobuf3Api19kVersionFieldNumberE R
_ZN6google8protobuf3Api20clear_source_contextEv T
_ZN6google8protobuf3Api21InitAsDefaultInstanceEv T
_ZN6google8protobuf3Api25kSourceContextFieldNumberE R
_ZN6google8protobuf3Api27MergePartialFromCodedStreamEPNS0_2io16CodedInputStreamE T
_ZN6google8protobuf3Api4SwapEPS1_ T
_ZN6google8protobuf3Api5ClearEv T
_ZN6google8protobuf3Api8CopyFromERKNS0_7MessageE T
_ZN6google8protobuf3Api8CopyFromERKS1_ T
_ZN6google8protobuf3Api9MergeFromERKNS0_7MessageE T
_ZN6google8protobuf3Api9MergeFromERKS1_ T
_ZN6google8protobuf3ApiC1ERKS1_ T
_ZN6google8protobuf3ApiC1Ev T
_ZN6google8protobuf3ApiC2ERKS1_ T
_ZN6google8protobuf3ApiC2Ev T
_ZN6google8protobuf3ApiD0Ev T
_ZN6google8protobuf3ApiD1Ev T
_ZN6google8protobuf3ApiD2Ev T
_ZN6google8protobuf3MapINS0_6MapKeyENS0_11MapValueRefEE5clearEv W
_ZN6google8protobuf3MapINS0_6MapKeyENS0_11MapValueRefEE8InnerMap19EraseFromLinkedListEPNS5_4NodeES7_ W
_ZN6google8protobuf3MapINS0_6MapKeyENS0_11MapValueRefEE8InnerMap6ResizeEm W
_ZN6google8protobuf3MapINS0_6MapKeyENS0_11MapValueRefEE8InnerMapD1Ev W
_ZN6google8protobuf3MapINS0_6MapKeyENS0_11MapValueRefEE8InnerMapD2Ev W
_ZN6google8protobuf3MapINS0_6MapKeyENS0_11MapValueRefEED1Ev W
_ZN6google8protobuf3MapINS0_6MapKeyENS0_11MapValueRefEED2Ev W
_ZN6google8protobuf3MapINSt7__cxx1112basic_stringIcSt11char_traitsIcESaIcEEENS0_5ValueEE5clearEv W
_ZN6google8protobuf3MapINSt7__cxx1112basic_stringIcSt11char_traitsIcESaIcEEENS0_5ValueEE5eraseENS9_8iteratorE W
_ZN6google8protobuf3MapINSt7__cxx1112basic_stringIcSt11char_traitsIcESaIcEEENS0_5ValueEE5eraseERKS7_ W
_ZN6google8protobuf3MapINSt7__cxx1112basic_stringIcSt11char_traitsIcESaIcEEENS0_5ValueEE8InnerMap12InsertUniqueEmPNSA_4NodeE W
_ZN6google8protobuf3MapINSt7__cxx1112basic_stringIcSt11char_traitsIcESaIcEEENS0_5ValueEE8InnerMap13iterator_baseINS9_12KeyValuePairEE10SearchFromEm W
_ZN6google8protobuf3MapINSt7__cxx1112basic_stringIcSt11char_traitsIcESaIcEEENS0_5ValueEE8InnerMap19EraseFromLinkedListEPNSA_4NodeESC_ W
_ZN6google8protobuf3MapINSt7__cxx1112basic_stringIcSt11char_traitsIcESaIcEEENS0_5ValueEE8InnerMap6ResizeEm W
_ZN6google8protobuf3MapINSt7__cxx1112basic_stringIcSt11char_traitsIcESaIcEEENS0_5ValueEE8InnerMapD1Ev W
_ZN6google8protobuf3MapINSt7__cxx1112basic_stringIcSt11char_traitsIcESaIcEEENS0_5ValueEE8InnerMapD2Ev W
_ZN6google8protobuf3MapINSt7__cxx1112basic_stringIcSt11char_traitsIcESaIcEEENS0_5ValueEED1Ev W
_ZN6google8protobuf3MapINSt7__cxx1112basic_stringIcSt11char_traitsIcESaIcEEENS0_5ValueEED2Ev W
_ZN6google8protobuf3MapINSt7__cxx1112basic_stringIcSt11char_traitsIcESaIcEEENS0_5ValueEEixERKS7_ W
_ZN6google8protobuf40_ExtensionRangeOptions_default_instance_E B 0000000000000068
_ZN6google8protobuf40_MethodDescriptorProto_default_instance_E B 0000000000000040
_ZN6google8protobuf41MethodOptions_IdempotencyLevel_descriptorEv T
_ZN6google8protobuf41_ServiceDescriptorProto_default_instance_E B 0000000000000040
_ZN6google8protobuf42_SourceCodeInfo_Location_default_instance_E B 0000000000000070
_ZN6google8protobuf43_EnumValueDescriptorProto_default_instance_E B 0000000000000030
_ZN6google8protobuf46_Struct_FieldsEntry_DoNotUse_default_instance_E B 0000000000000030
_ZN6google8protobuf47_GeneratedCodeInfo_Annotation_default_instance_E B 0000000000000040
_ZN6google8protobuf47_UninterpretedOption_NamePart_default_instance_E B 0000000000000028
_ZN6google8protobuf48_DescriptorProto_ReservedRange_default_instance_E B 0000000000000020
_ZN6google8protobuf49_DescriptorProto_ExtensionRange_default_instance_E B 0000000000000028
_ZN6google8protobuf4Enum10SharedCtorEv T
_ZN6google8protobuf4Enum10SharedDtorEv T
_ZN6google8protobuf4Enum10descriptorEv T
_ZN6google8protobuf4Enum12InternalSwapEPS1_ T
_ZN6google8protobuf4Enum15UnsafeArenaSwapEPS1_ T
_ZN6google8protobuf4Enum16default_instanceEv T
_ZN6google8protobuf4Enum16kNameFieldNumberE R
_ZN6google8protobuf4Enum18kSyntaxFieldNumberE R
_ZN6google8protobuf4Enum19kOptionsFieldNumberE R
_ZN6google8protobuf4Enum20clear_source_contextEv T
_ZN6google8protobuf4Enum21InitAsDefaultInstanceEv T
_ZN6google8protobuf4Enum21kEnumvalueFieldNumberE R
_ZN6google8protobuf4Enum25kSourceContextFieldNumberE R
_ZN6google8protobuf4Enum27MergePartialFromCodedStreamEPNS0_2io16CodedInputStreamE T
_ZN6google8protobuf4Enum28_slow_mutable_source_contextEv T
_ZN6google8protobuf4Enum41unsafe_arena_set_allocated_source_contextEPNS0_13SourceContextE T
_ZN6google8protobuf4Enum4SwapEPS1_ T
_ZN6google8protobuf4Enum5ClearEv T
_ZN6google8protobuf4Enum8CopyFromERKNS0_7MessageE T
_ZN6google8protobuf4Enum8CopyFromERKS1_ T
_ZN6google8protobuf4Enum9ArenaDtorEPv T
_ZN6google8protobuf4Enum9MergeFromERKNS0_7MessageE T
_ZN6google8protobuf4Enum9MergeFromERKS1_ T
_ZN6google8protobuf4EnumC1EPNS0_5ArenaE T
_ZN6google8protobuf4EnumC1ERKS1_ T
_ZN6google8protobuf4EnumC1Ev T
_ZN6google8protobuf4EnumC2EPNS0_5ArenaE T
_ZN6google8protobuf4EnumC2ERKS1_ T
_ZN6google8protobuf4EnumC2Ev T
_ZN6google8protobuf4EnumD0Ev T
_ZN6google8protobuf4EnumD1Ev T
_ZN6google8protobuf4EnumD2Ev T
_ZN6google8protobuf4Type10SharedCtorEv T
_ZN6google8protobuf4Type10SharedDtorEv T
_ZN6google8protobuf4Type10descriptorEv T
_ZN6google8protobuf4Type12InternalSwapEPS1_ T
_ZN6google8protobuf4Type15UnsafeArenaSwapEPS1_ T
_ZN6google8protobuf4Type16default_instanceEv T
_ZN6google8protobuf4Type16kNameFieldNumberE R
_ZN6google8protobuf4Type18kFieldsFieldNumberE R
_ZN6google8protobuf4Type18kOneofsFieldNumberE R
_ZN6google8protobuf4Type18kSyntaxFieldNumberE R
_ZN6google8protobuf4Type19kOptionsFieldNumberE R
_ZN6google8protobuf4Type20clear_source_contextEv T
_ZN6google8protobuf4Type21InitAsDefaultInstanceEv T
_ZN6google8protobuf4Type25kSourceContextFieldNumberE R
_ZN6google8protobuf4Type27MergePartialFromCodedStreamEPNS0_2io16CodedInputStreamE T
_ZN6google8protobuf4Type28_slow_mutable_source_contextEv T
_ZN6google8protobuf4Type41unsafe_arena_set_allocated_source_contextEPNS0_13SourceContextE T
_ZN6google8protobuf4Type4SwapEPS1_ T
_ZN6google8protobuf4Type5ClearEv T
_ZN6google8protobuf4Type8CopyFromERKNS0_7MessageE T
_ZN6google8protobuf4Type8CopyFromERKS1_ T
_ZN6google8protobuf4Type9ArenaDtorEPv T
_ZN6google8protobuf4Type9MergeFromERKNS0_7MessageE T
_ZN6google8protobuf4Type9MergeFromERKS1_ T
_ZN6google8protobuf4TypeC1EPNS0_5ArenaE T
_ZN6google8protobuf4TypeC1ERKS1_ T
_ZN6google8protobuf4TypeC1Ev T
_ZN6google8protobuf4TypeC2EPNS0_5ArenaE T
_ZN6google8protobuf4TypeC2ERKS1_ T
_ZN6google8protobuf4TypeC2Ev T
_ZN6google8protobuf4TypeD0Ev T
_ZN6google8protobuf4TypeD1Ev T
_ZN6google8protobuf4TypeD2Ev T
_ZN6google8protobuf4util13FieldMaskUtil10FromStringENS0_11StringPieceEPNS0_9FieldMaskE T
_ZN6google8protobuf4util13FieldMaskUtil11TrimMessageERKNS0_9FieldMaskEPNS0_7MessageE T
_ZN6google8protobuf4util13FieldMaskUtil11TrimMessageERKNS0_9FieldMaskEPNS0_7MessageERKNS2_11TrimOptionsE T
_ZN6google8protobuf4util13FieldMaskUtil12ToJsonStringERKNS0_9FieldMaskEPNSt7__cxx1112basic_stringIcSt11char_traitsIcESaIcEEE T
_ZN6google8protobuf4util13FieldMaskUtil14FromJsonStringENS0_11StringPieceEPNS0_9FieldMaskE T
_ZN6google8protobuf4util13FieldMaskUtil14MergeMessageToERKNS0_7MessageERKNS0_9FieldMaskERKNS2_12MergeOptionsEPS3_ T
_ZN6google8protobuf4util13FieldMaskUtil15ToCanonicalFormERKNS0_9FieldMaskEPS3_ T
_ZN6google8protobuf4util13FieldMaskUtil16InternalSubtractEPKNS0_10DescriptorERKNS0_9FieldMaskES8_PS6_ T
_ZN6google8protobuf4util13FieldMaskUtil17IsPathInFieldMaskENS0_11StringPieceERKNS0_9FieldMaskE T
_ZN6google8protobuf4util13FieldMaskUtil19GetFieldDescriptorsEPKNS0_10DescriptorENS0_11StringPieceEPSt6vectorIPKNS0_15FieldDescriptorESaISA_EE T
_ZN6google8protobuf4util13FieldMaskUtil20CamelCaseToSnakeCaseENS0_11StringPieceEPNSt7__cxx1112basic_stringIcSt11char_traitsIcESaIcEEE T
_ZN6google8protobuf4util13FieldMaskUtil20SnakeCaseToCamelCaseENS0_11StringPieceEPNSt7__cxx1112basic_stringIcSt11char_traitsIcESaIcEEE T
_ZN6google8protobuf4util13FieldMaskUtil32InternalGetFieldMaskForAllFieldsEPKNS0_10DescriptorEPNS0_9FieldMaskE T
_ZN6google8protobuf4util13FieldMaskUtil5UnionERKNS0_9FieldMaskES5_PS3_ T
_ZN6google8protobuf4util13FieldMaskUtil8ToStringB5cxx11ERKNS0_9FieldMaskE T
_ZN6google8protobuf4util13FieldMaskUtil9IntersectERKNS0_9FieldMaskES5_PS3_ T
_ZN6google8protobuf4util15FieldComparatorC1Ev T
_ZN6google8protobuf4util15FieldComparatorC2Ev T
_ZN6google8protobuf4util15FieldComparatorD0Ev T
_ZN6google8protobuf4util15FieldComparatorD1Ev T
_ZN6google8protobuf4util15FieldComparatorD2Ev T
_ZN6google8protobuf4util18BinaryToJsonStreamEPNS1_12TypeResolverERKNSt7__cxx1112basic_stringIcSt11char_traitsIcESaIcEEEPNS0_2io19ZeroCopyInputStreamEPNSC_20ZeroCopyOutputStreamERKNS1_16JsonPrintOptionsE T
_ZN6google8protobuf4util18BinaryToJsonStringEPNS1_12TypeResolverERKNSt7__cxx1112basic_stringIcSt11char_traitsIcESaIcEEESB_PS9_RKNS1_16JsonPrintOptionsE T
_ZN6google8protobuf4util18JsonToBinaryStreamEPNS1_12TypeResolverERKNSt7__cxx1112basic_stringIcSt11char_traitsIcESaIcEEEPNS0_2io19ZeroCopyInputStreamEPNSC_20ZeroCopyOutputStreamERKNS1_16JsonParseOptionsE T
_ZN6google8protobuf4util18JsonToBinaryStringEPNS1_12TypeResolverERKNSt7__cxx1112basic_stringIcSt11char_traitsIcESaIcEEESB_PS9_RKNS1_16JsonParseOptionsE T
_ZN6google8protobuf4util18MessageDifferencer10EquivalentERKNS0_7MessageES5_ T
_ZN6google8protobuf4util18MessageDifferencer10TreatAsMapEPKNS0_15FieldDescriptorES5_ T
_ZN6google8protobuf4util18MessageDifferencer10TreatAsSetEPKNS0_15FieldDescriptorE T
_ZN6google8protobuf4util18MessageDifferencer11FieldBeforeEPKNS0_15FieldDescriptorES5_ T
_ZN6google8protobuf4util18MessageDifferencer11IgnoreFieldEPKNS0_15FieldDescriptorE T
_ZN6google8protobuf4util18MessageDifferencer11TreatAsListEPKNS0_15FieldDescriptorE T
_ZN6google8protobuf4util18MessageDifferencer13CombineFieldsERKSt6vectorIPKNS0_15FieldDescriptorESaIS6_EENS2_5ScopeESA_SB_PS8_ T
_ZN6google8protobuf4util18MessageDifferencer14IgnoreCriteria21IsUnknownFieldIgnoredERKNS0_7MessageES6_RKNS2_13SpecificFieldERKSt6vectorIS7_SaIS7_EE W
_ZN6google8protobuf4util18MessageDifferencer14IgnoreCriteriaC1Ev T
_ZN6google8protobuf4util18MessageDifferencer14IgnoreCriteriaC2Ev T
_ZN6google8protobuf4util18MessageDifferencer14IgnoreCriteriaD0Ev T
_ZN6google8protobuf4util18MessageDifferencer14IgnoreCriteriaD1Ev T
_ZN6google8protobuf4util18MessageDifferencer14IgnoreCriteriaD2Ev T
_ZN6google8protobuf4util18MessageDifferencer14IsTreatedAsSetEPKNS0_15FieldDescriptorE T
_ZN6google8protobuf4util18MessageDifferencer14StreamReporter10PrintValueERKNS0_7MessageERKSt6vectorINS2_13SpecificFieldESaIS8_EEb T
_ZN6google8protobuf4util18MessageDifferencer14StreamReporter11ReportAddedERKNS0_7MessageES6_RKSt6vectorINS2_13SpecificFieldESaIS8_EE T
_ZN6google8protobuf4util18MessageDifferencer14StreamReporter11ReportMovedERKNS0_7MessageES6_RKSt6vectorINS2_13SpecificFieldESaIS8_EE T
_ZN6google8protobuf4util18MessageDifferencer14StreamReporter13ReportDeletedERKNS0_7MessageES6_RKSt6vectorINS2_13SpecificFieldESaIS8_EE T
_ZN6google8protobuf4util18MessageDifferencer14StreamReporter13ReportIgnoredERKNS0_7MessageES6_RKSt6vectorINS2_13SpecificFieldESaIS8_EE T
_ZN6google8protobuf4util18MessageDifferencer14StreamReporter13ReportMatchedERKNS0_7MessageES6_RKSt6vectorINS2_13SpecificFieldESaIS8_EE T
_ZN6google8protobuf4util18MessageDifferencer14StreamReporter14ReportModifiedERKNS0_7MessageES6_RKSt6vectorINS2_13SpecificFieldESaIS8_EE T
_ZN6google8protobuf4util18MessageDifferencer14StreamReporter22PrintUnknownFieldValueEPKNS0_12UnknownFieldE T
_ZN6google8protobuf4util18MessageDifferencer14StreamReporter25ReportUnknownFieldIgnoredERKNS0_7MessageES6_RKSt6vectorINS2_13SpecificFieldESaIS8_EE T
_ZN6google8protobuf4util18MessageDifferencer14StreamReporter5PrintERKNSt7__cxx1112basic_stringIcSt11char_traitsIcESaIcEEE T
_ZN6google8protobuf4util18MessageDifferencer14StreamReporter9PrintPathERKSt6vectorINS2_13SpecificFieldESaIS5_EEb T
_ZN6google8protobuf4util18MessageDifferencer14StreamReporter9PrintPathERKSt6vectorINS2_13SpecificFieldESaIS5_EEbRKNS0_7MessageE T
_ZN6google8protobuf4util18MessageDifferencer14StreamReporterC1EPNS0_2io20ZeroCopyOutputStreamE T
_ZN6google8protobuf4util18MessageDifferencer14StreamReporterC1EPNS0_2io7PrinterE T
_ZN6google8protobuf4util18MessageDifferencer14StreamReporterC2EPNS0_2io20ZeroCopyOutputStreamE T
_ZN6google8protobuf4util18MessageDifferencer14StreamReporterC2EPNS0_2io7PrinterE T
_ZN6google8protobuf4util18MessageDifferencer14StreamReporterD0Ev T
_ZN6google8protobuf4util18MessageDifferencer14StreamReporterD1Ev T
_ZN6google8protobuf4util18MessageDifferencer14StreamReporterD2Ev T
_ZN6google8protobuf4util18MessageDifferencer16CheckPathChangedERKSt6vectorINS2_13SpecificFieldESaIS4_EE T
_ZN6google8protobuf4util18MessageDifferencer16MapKeyComparatorC1Ev T
_ZN6google8protobuf4util18MessageDifferencer16MapKeyComparatorC2Ev T
_ZN6google8protobuf4util18MessageDifferencer16MapKeyComparatorD0Ev T
_ZN6google8protobuf4util18MessageDifferencer16MapKeyComparatorD1Ev T
_ZN6google8protobuf4util18MessageDifferencer16MapKeyComparatorD2Ev T
_ZN6google8protobuf4util18MessageDifferencer17AddIgnoreCriteriaEPNS2_14IgnoreCriteriaE T
_ZN6google8protobuf4util18MessageDifferencer17CompareFieldValueERKNS0_7MessageES5_PKNS0_15FieldDescriptorEii T
_ZN6google8protobuf4util18MessageDifferencer17CompareWithFieldsERKNS0_7MessageES5_RKSt6vectorIPKNS0_15FieldDescriptorESaIS9_EESD_ T
_ZN6google8protobuf4util18MessageDifferencer17IsTreatedAsSubsetEPKNS0_15FieldDescriptorE T
_ZN6google8protobuf4util18MessageDifferencer19ApproximatelyEqualsERKNS0_7MessageES5_ T
_ZN6google8protobuf4util18MessageDifferencer19ReportDifferencesToEPNS2_8ReporterE T
_ZN6google8protobuf4util18MessageDifferencer20CompareRepeatedFieldERKNS0_7MessageES5_PKNS0_15FieldDescriptorEPSt6vectorINS2_13SpecificFieldESaISA_EE T
_ZN6google8protobuf4util18MessageDifferencer20CompareUnknownFieldsERKNS0_7MessageES5_RKNS0_15UnknownFieldSetES8_PSt6vectorINS2_13SpecificFieldESaISA_EE T
_ZN6google8protobuf4util18MessageDifferencer20SetFractionAndMarginEPKNS0_15FieldDescriptorEdd T
_ZN6google8protobuf4util18MessageDifferencer20set_field_comparatorEPNS1_15FieldComparatorE T
_ZN6google8protobuf4util18MessageDifferencer20set_float_comparisonENS2_15FloatComparisonE T
_ZN6google8protobuf4util18MessageDifferencer21IsUnknownFieldIgnoredERKNS0_7MessageES5_RKNS2_13SpecificFieldERKSt6vectorIS6_SaIS6_EE T
_ZN6google8protobuf4util18MessageDifferencer21MapEntryKeyComparatorC1EPS2_ T
_ZN6google8protobuf4util18MessageDifferencer21MapEntryKeyComparatorC2EPS2_ T
_ZN6google8protobuf4util18MessageDifferencer21MapEntryKeyComparatorD0Ev W
_ZN6google8protobuf4util18MessageDifferencer21MapEntryKeyComparatorD1Ev W
_ZN6google8protobuf4util18MessageDifferencer21MapEntryKeyComparatorD2Ev W
_ZN6google8protobuf4util18MessageDifferencer23ApproximatelyEquivalentERKNS0_7MessageES5_ T
_ZN6google8protobuf4util18MessageDifferencer24GetFieldComparisonResultERKNS0_7MessageES5_PKNS0_15FieldDescriptorEiiPKNS1_12FieldContextE T
_ZN6google8protobuf4util18MessageDifferencer25CompareWithFieldsInternalERKNS0_7MessageES5_RKSt6vectorIPKNS0_15FieldDescriptorESaIS9_EESD_PS6_INS2_13SpecificFieldESaISE_EE T
_ZN6google8protobuf4util18MessageDifferencer25MatchRepeatedFieldIndicesERKNS0_7MessageES5_PKNS0_15FieldDescriptorERKSt6vectorINS2_13SpecificFieldESaISA_EEPS9_IiSaIiEESH_ T
_ZN6google8protobuf4util18MessageDifferencer25ReportDifferencesToStringEPNSt7__cxx1112basic_stringIcSt11char_traitsIcESaIcEEE T
_ZN6google8protobuf4util18MessageDifferencer28TreatAsMapUsingKeyComparatorEPKNS0_15FieldDescriptorEPKNS2_16MapKeyComparatorE T
_ZN6google8protobuf4util18MessageDifferencer28set_message_field_comparisonENS2_22MessageFieldComparisonE T
_ZN6google8protobuf4util18MessageDifferencer29set_repeated_field_comparisonENS2_23RepeatedFieldComparisonE T
_ZN6google8protobuf4util18MessageDifferencer30MultipleFieldsMapKeyComparatorD0Ev W
_ZN6google8protobuf4util18MessageDifferencer30MultipleFieldsMapKeyComparatorD1Ev W
_ZN6google8protobuf4util18MessageDifferencer30MultipleFieldsMapKeyComparatorD2Ev W
_ZN6google8protobuf4util18MessageDifferencer33TreatAsMapWithMultipleFieldsAsKeyEPKNS0_15FieldDescriptorERKSt6vectorIS5_SaIS5_EE T
_ZN6google8protobuf4util18MessageDifferencer34CompareFieldValueUsingParentFieldsERKNS0_7MessageES5_PKNS0_15FieldDescriptorEiiPSt6vectorINS2_13SpecificFieldESaISA_EE T
_ZN6google8protobuf4util18MessageDifferencer35CompareRequestedFieldsUsingSettingsERKNS0_7MessageES5_RKSt6vectorIPKNS0_15FieldDescriptorESaIS9_EESD_PS6_INS2_13SpecificFieldESaISE_EE T
_ZN6google8protobuf4util18MessageDifferencer37TreatAsMapWithMultipleFieldPathsAsKeyEPKNS0_15FieldDescriptorERKSt6vectorIS6_IS5_SaIS5_EESaIS8_EE T
_ZN6google8protobuf4util18MessageDifferencer5scopeEv T
_ZN6google8protobuf4util18MessageDifferencer6EqualsERKNS0_7MessageES5_ T
_ZN6google8protobuf4util18MessageDifferencer7CompareERKNS0_7MessageES5_ T
_ZN6google8protobuf4util18MessageDifferencer7CompareERKNS0_7MessageES5_PSt6vectorINS2_13SpecificFieldESaIS7_EE T
_ZN6google8protobuf4util18MessageDifferencer7IsMatchEPKNS0_15FieldDescriptorEPKNS2_16MapKeyComparatorEPKNS0_7MessageESB_RKSt6vectorINS2_13SpecificFieldESaISD_EEii T
_ZN6google8protobuf4util18MessageDifferencer8Reporter11ReportMovedERKNS0_7MessageES6_RKSt6vectorINS2_13SpecificFieldESaIS8_EE W
_ZN6google8protobuf4util18MessageDifferencer8Reporter13ReportIgnoredERKNS0_7MessageES6_RKSt6vectorINS2_13SpecificFieldESaIS8_EE W
_ZN6google8protobuf4util18MessageDifferencer8Reporter13ReportMatchedERKNS0_7MessageES6_RKSt6vectorINS2_13SpecificFieldESaIS8_EE W
_ZN6google8protobuf4util18MessageDifferencer8Reporter25ReportUnknownFieldIgnoredERKNS0_7MessageES6_RKSt6vectorINS2_13SpecificFieldESaIS8_EE W
_ZN6google8protobuf4util18MessageDifferencer8ReporterC1Ev T
_ZN6google8protobuf4util18MessageDifferencer8ReporterC2Ev T
_ZN6google8protobuf4util18MessageDifferencer8ReporterD0Ev T
_ZN6google8protobuf4util18MessageDifferencer8ReporterD1Ev T
_ZN6google8protobuf4util18MessageDifferencer8ReporterD2Ev T
_ZN6google8protobuf4util18MessageDifferencer9IsIgnoredERKNS0_7MessageES5_PKNS0_15FieldDescriptorERKSt6vectorINS2_13SpecificFieldESaISA_EE T
_ZN6google8protobuf4util18MessageDifferencer9UnpackAnyERKNS0_7MessageEPNS0_8internal10scoped_ptrIS3_EE T
_ZN6google8protobuf4util18MessageDifferencer9set_scopeENS2_5ScopeE T
_ZN6google8protobuf4util18MessageDifferencerC1Ev T
_ZN6google8protobuf4util18MessageDifferencerC2Ev T
_ZN6google8protobuf4util18MessageDifferencerD1Ev T
_ZN6google8protobuf4util18MessageDifferencerD2Ev T
_ZN6google8protobuf4util19JsonStringToMessageERKNSt7__cxx1112basic_stringIcSt11char_traitsIcESaIcEEEPNS0_7MessageERKNS1_16JsonParseOptionsE T
_ZN6google8protobuf4util19MessageToJsonStringERKNS0_7MessageEPNSt7__cxx1112basic_stringIcSt11char_traitsIcESaIcEEERKNS1_16JsonPrintOptionsE T
_ZN6google8protobuf4util22DefaultFieldComparator11CompareEnumERKNS0_15FieldDescriptorEPKNS0_19EnumValueDescriptorES8_ T
_ZN6google8protobuf4util22DefaultFieldComparator12CompareFloatERKNS0_15FieldDescriptorEff T
_ZN6google8protobuf4util22DefaultFieldComparator13CompareDoubleERKNS0_15FieldDescriptorEdd T
_ZN6google8protobuf4util22DefaultFieldComparator20SetFractionAndMarginEPKNS0_15FieldDescriptorEdd T
_ZN6google8protobuf4util22DefaultFieldComparator27SetDefaultFractionAndMarginEdd T
_ZN6google8protobuf4util22DefaultFieldComparator7CompareERKNS0_7MessageES5_PKNS0_15FieldDescriptorEiiPKNS1_12FieldContextE T
_ZN6google8protobuf4util22DefaultFieldComparatorC1Ev T
_ZN6google8protobuf4util22DefaultFieldComparatorC2Ev T
_ZN6google8protobuf4util22DefaultFieldComparatorD0Ev T
_ZN6google8protobuf4util22DefaultFieldComparatorD1Ev T
_ZN6google8protobuf4util22DefaultFieldComparatorD2Ev T
_ZN6google8protobuf4util27SerializeDelimitedToOstreamERKNS0_11MessageLiteEPSo T
_ZN6google8protobuf4util29ParseDelimitedFromCodedStreamEPNS0_11MessageLiteEPNS0_2io16CodedInputStreamEPb T
_ZN6google8protobuf4util31SerializeDelimitedToCodedStreamERKNS0_11MessageLiteEPNS0_2io17CodedOutputStreamE T
_ZN6google8protobuf4util32NewTypeResolverForDescriptorPoolERKNSt7__cxx1112basic_stringIcSt11char_traitsIcESaIcEEEPKNS0_14DescriptorPoolE T
_ZN6google8protobuf4util32ParseDelimitedFromZeroCopyStreamEPNS0_11MessageLiteEPNS0_2io19ZeroCopyInputStreamEPb T
_ZN6google8protobuf4util34SerializeDelimitedToFileDescriptorERKNS0_11MessageLiteEi T
_ZN6google8protobuf4util34SerializeDelimitedToZeroCopyStreamERKNS0_11MessageLiteEPNS0_2io20ZeroCopyOutputStreamE T
_ZN6google8protobuf4util8StatusOrINSt7__cxx1112basic_stringIcSt11char_traitsIcESaIcEEEED1Ev W
_ZN6google8protobuf4util8StatusOrINSt7__cxx1112basic_stringIcSt11char_traitsIcESaIcEEEED2Ev W
_ZN6google8protobuf4util8TimeUtil10FromStringERKNSt7__cxx1112basic_stringIcSt11char_traitsIcESaIcEEEPNS0_8DurationE T
_ZN6google8protobuf4util8TimeUtil10FromStringERKNSt7__cxx1112basic_stringIcSt11char_traitsIcESaIcEEEPNS0_9TimestampE T
_ZN6google8protobuf4util8TimeUtil14GetCurrentTimeEv T
_ZN6google8protobuf4util8TimeUtil15DurationToHoursERKNS0_8DurationE T
_ZN6google8protobuf4util8TimeUtil15HoursToDurationEl T
_ZN6google8protobuf4util8TimeUtil16TimeTToTimestampEl T
_ZN6google8protobuf4util8TimeUtil16TimestampToTimeTERKNS0_9TimestampE T
_ZN6google8protobuf4util8TimeUtil17DurationToMinutesERKNS0_8DurationE T
_ZN6google8protobuf4util8TimeUtil17DurationToSecondsERKNS0_8DurationE T
_ZN6google8protobuf4util8TimeUtil17DurationToTimevalERKNS0_8DurationE T
_ZN6google8protobuf4util8TimeUtil17MinutesToDurationEl T
_ZN6google8protobuf4util8TimeUtil17SecondsToDurationEl T
_ZN6google8protobuf4util8TimeUtil17TimevalToDurationERK7timeval T
_ZN6google8protobuf4util8TimeUtil18SecondsToTimestampEl T
_ZN6google8protobuf4util8TimeUtil18TimestampToSecondsERKNS0_9TimestampE T
_ZN6google8protobuf4util8TimeUtil18TimestampToTimevalERKNS0_9TimestampE T
_ZN6google8protobuf4util8TimeUtil18TimevalToTimestampERK7timeval T
_ZN6google8protobuf4util8TimeUtil19kDurationMaxSecondsE R
_ZN6google8protobuf4util8TimeUtil19kDurationMinSecondsE R
_ZN6google8protobuf4util8TimeUtil20kTimestampMaxSecondsE R
_ZN6google8protobuf4util8TimeUtil20kTimestampMinSecondsE R
_ZN6google8protobuf4util8TimeUtil21DurationToNanosecondsERKNS0_8DurationE T
_ZN6google8protobuf4util8TimeUtil21NanosecondsToDurationEl T
_ZN6google8protobuf4util8TimeUtil22DurationToMicrosecondsERKNS0_8DurationE T
_ZN6google8protobuf4util8TimeUtil22DurationToMillisecondsERKNS0_8DurationE T
_ZN6google8protobuf4util8TimeUtil22MicrosecondsToDurationEl T
_ZN6google8protobuf4util8TimeUtil22MillisecondsToDurationEl T
_ZN6google8protobuf4util8TimeUtil22NanosecondsToTimestampEl T
_ZN6google8protobuf4util8TimeUtil22TimestampToNanosecondsERKNS0_9TimestampE T
_ZN6google8protobuf4util8TimeUtil23MicrosecondsToTimestampEl T
_ZN6google8protobuf4util8TimeUtil23MillisecondsToTimestampEl T
_ZN6google8protobuf4util8TimeUtil23TimestampToMicrosecondsERKNS0_9TimestampE T
_ZN6google8protobuf4util8TimeUtil23TimestampToMillisecondsERKNS0_9TimestampE T
_ZN6google8protobuf4util8TimeUtil8GetEpochEv T
_ZN6google8protobuf4util8TimeUtil8ToStringB5cxx11ERKNS0_8DurationE T
_ZN6google8protobuf4util8TimeUtil8ToStringB5cxx11ERKNS0_9TimestampE T
_ZN6google8protobuf4util8internal22ZeroCopyStreamByteSink6AppendEPKcm T
_ZN6google8protobuf4util8internal22ZeroCopyStreamByteSinkD0Ev T
_ZN6google8protobuf4util8internal22ZeroCopyStreamByteSinkD1Ev T
_ZN6google8protobuf4util8internal22ZeroCopyStreamByteSinkD2Ev T
_ZN6google8protobuf4util9converter11ProtoWriter10BeginNamedENS0_11StringPieceEb T
_ZN6google8protobuf4util9converter11ProtoWriter10IsRepeatedERKNS0_5FieldE T
_ZN6google8protobuf4util9converter11ProtoWriter10LookupTypeEPKNS0_5FieldE T
_ZN6google8protobuf4util9converter11ProtoWriter10RenderBoolENS0_11StringPieceEb W
_ZN6google8protobuf4util9converter11ProtoWriter10RenderNullENS0_11StringPieceE W
_ZN6google8protobuf4util9converter11ProtoWriter10ValidOneofERKNS0_5FieldENS0_11StringPieceE T
_ZN6google8protobuf4util9converter11ProtoWriter11InvalidNameENS0_11StringPieceES4_ T
_ZN6google8protobuf4util9converter11ProtoWriter11RenderBytesENS0_11StringPieceES4_ W
_ZN6google8protobuf4util9converter11ProtoWriter11RenderFloatENS0_11StringPieceEf W
_ZN6google8protobuf4util9converter11ProtoWriter11RenderInt32ENS0_11StringPieceEi W
_ZN6google8protobuf4util9converter11ProtoWriter11RenderInt64ENS0_11StringPieceEl W
_ZN6google8protobuf4util9converter11ProtoWriter11StartObjectENS0_11StringPieceE T
_ZN6google8protobuf4util9converter11ProtoWriter12InvalidValueENS0_11StringPieceES4_ T
_ZN6google8protobuf4util9converter11ProtoWriter12MissingFieldENS0_11StringPieceE T
_ZN6google8protobuf4util9converter11ProtoWriter12ProtoElement13RegisterFieldEPKNS0_5FieldE T
_ZN6google8protobuf4util9converter11ProtoWriter12ProtoElement14TakeOneofIndexEi T
_ZN6google8protobuf4util9converter11ProtoWriter12ProtoElement17IsOneofIndexTakenEi T
_ZN6google8protobuf4util9converter11ProtoWriter12ProtoElement3popEv T
_ZN6google8protobuf4util9converter11ProtoWriter12ProtoElementC1EPKNS2_8TypeInfoERKNS0_4TypeEPS3_ T
_ZN6google8protobuf4util9converter11ProtoWriter12ProtoElementC1EPS4_PKNS0_5FieldERKNS0_4TypeEb T
_ZN6google8protobuf4util9converter11ProtoWriter12ProtoElementC2EPKNS2_8TypeInfoERKNS0_4TypeEPS3_ T
_ZN6google8protobuf4util9converter11ProtoWriter12ProtoElementC2EPS4_PKNS0_5FieldERKNS0_4TypeEb T
_ZN6google8protobuf4util9converter11ProtoWriter12ProtoElementD0Ev W
_ZN6google8protobuf4util9converter11ProtoWriter12ProtoElementD1Ev W
_ZN6google8protobuf4util9converter11ProtoWriter12ProtoElementD2Ev W
_ZN6google8protobuf4util9converter11ProtoWriter12RenderDoubleENS0_11StringPieceEd W
_ZN6google8protobuf4util9converter11ProtoWriter12RenderStringENS0_11StringPieceES4_ W
_ZN6google8protobuf4util9converter11ProtoWriter12RenderUint32ENS0_11StringPieceEj W
_ZN6google8protobuf4util9converter11ProtoWriter12RenderUint64ENS0_11StringPieceEm W
_ZN6google8protobuf4util9converter11ProtoWriter14StartListFieldERKNS0_5FieldERKNS0_4TypeE T
_ZN6google8protobuf4util9converter11ProtoWriter15RenderDataPieceENS0_11StringPieceERKNS2_9DataPieceE T
_ZN6google8protobuf4util9converter11ProtoWriter16StartObjectFieldERKNS0_5FieldERKNS0_4TypeE T
_ZN6google8protobuf4util9converter11ProtoWriter16WriteRootMessageEv T
_ZN6google8protobuf4util9converter11ProtoWriter20RenderPrimitiveFieldERKNS0_5FieldERKNS0_4TypeERKNS2_9DataPieceE T
_ZN6google8protobuf4util9converter11ProtoWriter4doneEv W
_ZN6google8protobuf4util9converter11ProtoWriter6LookupENS0_11StringPieceE T
_ZN6google8protobuf4util9converter11ProtoWriter7EndListEv T
_ZN6google8protobuf4util9converter11ProtoWriter7elementEv W
_ZN6google8protobuf4util9converter11ProtoWriter8WriteTagERKNS0_5FieldE T
_ZN6google8protobuf4util9converter11ProtoWriter9EndObjectEv T
_ZN6google8protobuf4util9converter11ProtoWriter9StartListENS0_11StringPieceE T
_ZN6google8protobuf4util9converter11ProtoWriterC1EPKNS2_8TypeInfoERKNS0_4TypeEPNS0_7strings8ByteSinkEPNS2_13ErrorListenerE T
_ZN6google8protobuf4util9converter11ProtoWriterC1EPNS1_12TypeResolverERKNS0_4TypeEPNS0_7strings8ByteSinkEPNS2_13ErrorListenerE T
_ZN6google8protobuf4util9converter11ProtoWriterC2EPKNS2_8TypeInfoERKNS0_4TypeEPNS0_7strings8ByteSinkEPNS2_13ErrorListenerE T
_ZN6google8protobuf4util9converter11ProtoWriterC2EPNS1_12TypeResolverERKNS0_4TypeEPNS0_7strings8ByteSinkEPNS2_13ErrorListenerE T
_ZN6google8protobuf4util9converter11ProtoWriterD0Ev T
_ZN6google8protobuf4util9converter11ProtoWriterD1Ev T
_ZN6google8protobuf4util9converter11ProtoWriterD2Ev T
_ZN6google8protobuf4util9converter11ToCamelCaseB5cxx11ENS0_11StringPieceE T
_ZN6google8protobuf4util9converter11ToSnakeCaseB5cxx11ENS0_11StringPieceE T
_ZN6google8protobuf4util9converter12JsonEscaping6EscapeEPNS0_7strings10ByteSourceEPNS4_8ByteSinkE T
_ZN6google8protobuf4util9converter12ObjectWriter17RenderDataPieceToERKNS2_9DataPieceENS0_11StringPieceEPS3_ T
_ZN6google8protobuf4util9converter12ObjectWriter26empty_name_ok_for_next_keyEv W
_ZN6google8protobuf4util9converter12ObjectWriter4doneEv W
_ZN6google8protobuf4util9converter13FloatAsStringB5cxx11Ef T
_ZN6google8protobuf4util9converter14DoubleAsStringB5cxx11Ed T
_ZN6google8protobuf4util9converter14GetBoolFromAnyERKNS0_3AnyE T
_ZN6google8protobuf4util9converter14SafeStrToFloatENS0_11StringPieceEPf T
_ZN6google8protobuf4util9converter15GetInt64FromAnyERKNS0_3AnyE T
_ZN6google8protobuf4util9converter15IsWellKnownTypeERKNSt7__cxx1112basic_stringIcSt11char_traitsIcESaIcEEE T
_ZN6google8protobuf4util9converter16FindOptionOrNullERKNS0_16RepeatedPtrFieldINS0_6OptionEEERKNSt7__cxx1112basic_stringIcSt11char_traitsIcESaIcEEE T
_ZN6google8protobuf4util9converter16GetDoubleFromAnyERKNS0_3AnyE T
_ZN6google8protobuf4util9converter16GetStringFromAnyB5cxx11ERKNS0_3AnyE T
_ZN6google8protobuf4util9converter16JsonObjectWriter10RenderBoolENS0_11StringPieceEb T
_ZN6google8protobuf4util9converter16JsonObjectWriter10RenderNullENS0_11StringPieceE T
_ZN6google8protobuf4util9converter16JsonObjectWriter11RenderBytesENS0_11StringPieceES4_ T
_ZN6google8protobuf4util9converter16JsonObjectWriter11RenderFloatENS0_11StringPieceEf T
_ZN6google8protobuf4util9converter16JsonObjectWriter11RenderInt32ENS0_11StringPieceEi T
_ZN6google8protobuf4util9converter16JsonObjectWriter11RenderInt64ENS0_11StringPieceEl T
_ZN6google8protobuf4util9converter16JsonObjectWriter11StartObjectENS0_11StringPieceE T
_ZN6google8protobuf4util9converter16JsonObjectWriter11WritePrefixENS0_11StringPieceE T
_ZN6google8protobuf4util9converter16JsonObjectWriter12RenderDoubleENS0_11StringPieceEd T
_ZN6google8protobuf4util9converter16JsonObjectWriter12RenderStringENS0_11StringPieceES4_ T
_ZN6google8protobuf4util9converter16JsonObjectWriter12RenderUint32ENS0_11StringPieceEj T
_ZN6google8protobuf4util9converter16JsonObjectWriter12RenderUint64ENS0_11StringPieceEm T
_ZN6google8protobuf4util9converter16JsonObjectWriter15ByteSinkWrapper6AppendEPKcm W
_ZN6google8protobuf4util9converter16JsonObjectWriter15ByteSinkWrapperD0Ev W
_ZN6google8protobuf4util9converter16JsonObjectWriter15ByteSinkWrapperD1Ev W
_ZN6google8protobuf4util9converter16JsonObjectWriter15ByteSinkWrapperD2Ev W
_ZN6google8protobuf4util9converter16JsonObjectWriter17RenderNullAsEmptyENS0_11StringPieceE T
_ZN6google8protobuf4util9converter16JsonObjectWriter21GetAndResetEmptyKeyOkEv T
_ZN6google8protobuf4util9converter16JsonObjectWriter26empty_name_ok_for_next_keyEv W
_ZN6google8protobuf4util9converter16JsonObjectWriter7ElementD0Ev W
_ZN6google8protobuf4util9converter16JsonObjectWriter7ElementD1Ev W
_ZN6google8protobuf4util9converter16JsonObjectWriter7ElementD2Ev W
_ZN6google8protobuf4util9converter16JsonObjectWriter7EndListEv T
_ZN6google8protobuf4util9converter16JsonObjectWriter7elementEv W
_ZN6google8protobuf4util9converter16JsonObjectWriter9EndObjectEv T
_ZN6google8protobuf4util9converter16JsonObjectWriter9StartListENS0_11StringPieceE T
_ZN6google8protobuf4util9converter16JsonObjectWriterD0Ev T
_ZN6google8protobuf4util9converter16JsonObjectWriterD1Ev T
_ZN6google8protobuf4util9converter16JsonObjectWriterD2Ev T
_ZN6google8protobuf4util9converter16JsonStreamParser10ParseChunkENS0_11StringPieceE T
_ZN6google8protobuf4util9converter16JsonStreamParser10ParseEntryENS3_9TokenTypeE T
_ZN6google8protobuf4util9converter16JsonStreamParser10ParseFalseEv T
_ZN6google8protobuf4util9converter16JsonStreamParser10ParseValueENS3_9TokenTypeE T
_ZN6google8protobuf4util9converter16JsonStreamParser11FinishParseEv T
_ZN6google8protobuf4util9converter16JsonStreamParser11ParseNumberEv T
_ZN6google8protobuf4util9converter16JsonStreamParser11ParseStringEv T
_ZN6google8protobuf4util9converter16JsonStreamParser13ParseArrayMidENS3_9TokenTypeE T
_ZN6google8protobuf4util9converter16JsonStreamParser13ParseEntryMidENS3_9TokenTypeE T
_ZN6google8protobuf4util9converter16JsonStreamParser13ReportFailureENS0_11StringPieceE T
_ZN6google8protobuf4util9converter16JsonStreamParser13ReportUnknownENS0_11StringPieceE T
_ZN6google8protobuf4util9converter16JsonStreamParser14ParseEmptyNullEv T
_ZN6google8protobuf4util9converter16JsonStreamParser14ParseObjectMidENS3_9TokenTypeE T
_ZN6google8protobuf4util9converter16JsonStreamParser14SkipWhitespaceEv T
_ZN6google8protobuf4util9converter16JsonStreamParser15ParseArrayValueENS3_9TokenTypeE T
_ZN6google8protobuf4util9converter16JsonStreamParser16GetNextTokenTypeEv T
_ZN6google8protobuf4util9converter16JsonStreamParser16HandleBeginArrayEv T
_ZN6google8protobuf4util9converter16JsonStreamParser17HandleBeginObjectEv T
_ZN6google8protobuf4util9converter16JsonStreamParser17ParseDoubleHelperERKNSt7__cxx1112basic_stringIcSt11char_traitsIcESaIcEEEPNS3_12NumberResultE T
_ZN6google8protobuf4util9converter16JsonStreamParser17ParseNumberHelperEPNS3_12NumberResultE T
_ZN6google8protobuf4util9converter16JsonStreamParser17ParseStringHelperEv T
_ZN6google8protobuf4util9converter16JsonStreamParser18IsEmptyNullAllowedENS3_9TokenTypeE T
_ZN6google8protobuf4util9converter16JsonStreamParser18ParseUnicodeEscapeEv T
_ZN6google8protobuf4util9converter16JsonStreamParser5ParseENS0_11StringPieceE T
_ZN6google8protobuf4util9converter16JsonStreamParser7AdvanceEv T
_ZN6google8protobuf4util9converter16JsonStreamParser8ParseKeyEv T
_ZN6google8protobuf4util9converter16JsonStreamParser9ParseNullEv T
_ZN6google8protobuf4util9converter16JsonStreamParser9ParseTrueEv T
_ZN6google8protobuf4util9converter16JsonStreamParser9RunParserEv T
_ZN6google8protobuf4util9converter16JsonStreamParserC1EPNS2_12ObjectWriterE T
_ZN6google8protobuf4util9converter16JsonStreamParserC2EPNS2_12ObjectWriterE T
_ZN6google8protobuf4util9converter16JsonStreamParserD0Ev T
_ZN6google8protobuf4util9converter16JsonStreamParserD1Ev T
_ZN6google8protobuf4util9converter16JsonStreamParserD2Ev T
_ZN6google8protobuf4util9converter17GetTypeWithoutUrlENS0_11StringPieceE T
_ZN6google8protobuf4util9converter17IsValidBoolStringERKNSt7__cxx1112basic_stringIcSt11char_traitsIcESaIcEEE T
_ZN6google8protobuf4util9converter17NoopErrorListener11InvalidNameERKNS2_24LocationTrackerInterfaceENS0_11StringPieceES7_ W
_ZN6google8protobuf4util9converter17NoopErrorListener12InvalidValueERKNS2_24LocationTrackerInterfaceENS0_11StringPieceES7_ W
_ZN6google8protobuf4util9converter17NoopErrorListener12MissingFieldERKNS2_24LocationTrackerInterfaceENS0_11StringPieceE W
_ZN6google8protobuf4util9converter17well_known_types_B5cxx11E B 0000000000000008
_ZN6google8protobuf4util9converter18GetFullTypeWithUrlB5cxx11ENS0_11StringPieceE T
_ZN6google8protobuf4util9converter18InitWellKnownTypesEv T
_ZN6google8protobuf4util9converter20ConvertFieldMaskPathENS0_11StringPieceEPFNSt7__cxx1112basic_stringIcSt11char_traitsIcESaIcEEES3_E T
_ZN6google8protobuf4util9converter20DeleteWellKnownTypesEv T
_ZN6google8protobuf4util9converter21FindFieldInTypeOrNullEPKNS0_4TypeENS0_11StringPieceE T
_ZN6google8protobuf4util9converter21ObjectLocationTrackerD0Ev W
_ZN6google8protobuf4util9converter21ObjectLocationTrackerD1Ev W
_ZN6google8protobuf4util9converter21ObjectLocationTrackerD2Ev W
_ZN6google8protobuf4util9converter22GetBoolOptionOrDefaultERKNS0_16RepeatedPtrFieldINS0_6OptionEEERKNSt7__cxx1112basic_stringIcSt11char_traitsIcESaIcEEEb T
_ZN6google8protobuf4util9converter22IsMessageSetWireFormatERKNS0_4TypeE T
_ZN6google8protobuf4util9converter22StructuredObjectWriter11BaseElementD0Ev W
_ZN6google8protobuf4util9converter22StructuredObjectWriter11BaseElementD1Ev W
_ZN6google8protobuf4util9converter22StructuredObjectWriter11BaseElementD2Ev W
_ZN6google8protobuf4util9converter22source_renderers_init_E B 0000000000000008
_ZN6google8protobuf4util9converter22well_known_types_init_E B 0000000000000008
_ZN6google8protobuf4util9converter22writer_renderers_init_E B 0000000000000008
_ZN6google8protobuf4util9converter23GetInt64OptionOrDefaultERKNS0_16RepeatedPtrFieldINS0_6OptionEEERKNSt7__cxx1112basic_stringIcSt11char_traitsIcESaIcEEEl T
_ZN6google8protobuf4util9converter23ProtoStreamObjectSource10RenderBoolEPKS3_RKNS0_4TypeENS0_11StringPieceEPNS2_12ObjectWriterE T
_ZN6google8protobuf4util9converter23ProtoStreamObjectSource10renderers_B5cxx11E B 0000000000000008
_ZN6google8protobuf4util9converter23ProtoStreamObjectSource11RenderBytesEPKS3_RKNS0_4TypeENS0_11StringPieceEPNS2_12ObjectWriterE T
_ZN6google8protobuf4util9converter23ProtoStreamObjectSource11RenderFloatEPKS3_RKNS0_4TypeENS0_11StringPieceEPNS2_12ObjectWriterE T
_ZN6google8protobuf4util9converter23ProtoStreamObjectSource11RenderInt32EPKS3_RKNS0_4TypeENS0_11StringPieceEPNS2_12ObjectWriterE T
_ZN6google8protobuf4util9converter23ProtoStreamObjectSource11RenderInt64EPKS3_RKNS0_4TypeENS0_11StringPieceEPNS2_12ObjectWriterE T
_ZN6google8protobuf4util9converter23ProtoStreamObjectSource12RenderDoubleEPKS3_RKNS0_4TypeENS0_11StringPieceEPNS2_12ObjectWriterE T
_ZN6google8protobuf4util9converter23ProtoStreamObjectSource12RenderStringEPKS3_RKNS0_4TypeENS0_11StringPieceEPNS2_12ObjectWriterE T
_ZN6google8protobuf4util9converter23ProtoStreamObjectSource12RenderStructEPKS3_RKNS0_4TypeENS0_11StringPieceEPNS2_12ObjectWriterE T
_ZN6google8protobuf4util9converter23ProtoStreamObjectSource12RenderUInt32EPKS3_RKNS0_4TypeENS0_11StringPieceEPNS2_12ObjectWriterE T
_ZN6google8protobuf4util9converter23ProtoStreamObjectSource12RenderUInt64EPKS3_RKNS0_4TypeENS0_11StringPieceEPNS2_12ObjectWriterE T
_ZN6google8protobuf4util9converter23ProtoStreamObjectSource14RenderDurationEPKS3_RKNS0_4TypeENS0_11StringPieceEPNS2_12ObjectWriterE T
_ZN6google8protobuf4util9converter23ProtoStreamObjectSource15InitRendererMapEv T
_ZN6google8protobuf4util9converter23ProtoStreamObjectSource15RenderFieldMaskEPKS3_RKNS0_4TypeENS0_11StringPieceEPNS2_12ObjectWriterE T
_ZN6google8protobuf4util9converter23ProtoStreamObjectSource15RenderTimestampEPKS3_RKNS0_4TypeENS0_11StringPieceEPNS2_12ObjectWriterE T
_ZN6google8protobuf4util9converter23ProtoStreamObjectSource16FindTypeRendererERKNSt7__cxx1112basic_stringIcSt11char_traitsIcESaIcEEE T
_ZN6google8protobuf4util9converter23ProtoStreamObjectSource17DeleteRendererMapEv T
_ZN6google8protobuf4util9converter23ProtoStreamObjectSource17RenderStructValueEPKS3_RKNS0_4TypeENS0_11StringPieceEPNS2_12ObjectWriterE T
_ZN6google8protobuf4util9converter23ProtoStreamObjectSource21RenderStructListValueEPKS3_RKNS0_4TypeENS0_11StringPieceEPNS2_12ObjectWriterE T
_ZN6google8protobuf4util9converter23ProtoStreamObjectSource9RenderAnyEPKS3_RKNS0_4TypeENS0_11StringPieceEPNS2_12ObjectWriterE T
_ZN6google8protobuf4util9converter23ProtoStreamObjectSourceC1EPNS0_2io16CodedInputStreamEPKNS2_8TypeInfoERKNS0_4TypeE T
_ZN6google8protobuf4util9converter23ProtoStreamObjectSourceC1EPNS0_2io16CodedInputStreamEPNS1_12TypeResolverERKNS0_4TypeE T
_ZN6google8protobuf4util9converter23ProtoStreamObjectSourceC2EPNS0_2io16CodedInputStreamEPKNS2_8TypeInfoERKNS0_4TypeE T
_ZN6google8protobuf4util9converter23ProtoStreamObjectSourceC2EPNS0_2io16CodedInputStreamEPNS1_12TypeResolverERKNS0_4TypeE T
_ZN6google8protobuf4util9converter23ProtoStreamObjectSourceD0Ev T
_ZN6google8protobuf4util9converter23ProtoStreamObjectSourceD1Ev T
_ZN6google8protobuf4util9converter23ProtoStreamObjectSourceD2Ev T
_ZN6google8protobuf4util9converter23ProtoStreamObjectWriter10renderers_B5cxx11E B 0000000000000008
_ZN6google8protobuf4util9converter23ProtoStreamObjectWriter11StartObjectENS0_11StringPieceE T
_ZN6google8protobuf4util9converter23ProtoStreamObjectWriter11ValidMapKeyENS0_11StringPieceE T
_ZN6google8protobuf4util9converter23ProtoStreamObjectWriter13PopOneElementEv T
_ZN6google8protobuf4util9converter23ProtoStreamObjectWriter14RenderDurationEPS3_RKNS2_9DataPieceE T
_ZN6google8protobuf4util9converter23ProtoStreamObjectWriter15InitRendererMapEv T
_ZN6google8protobuf4util9converter23ProtoStreamObjectWriter15RenderDataPieceENS0_11StringPieceERKNS2_9DataPieceE T
_ZN6google8protobuf4util9converter23ProtoStreamObjectWriter15RenderFieldMaskEPS3_RKNS2_9DataPieceE T
_ZN6google8protobuf4util9converter23ProtoStreamObjectWriter15RenderTimestampEPS3_RKNS2_9DataPieceE T
_ZN6google8protobuf4util9converter23ProtoStreamObjectWriter16FindTypeRendererERKNSt7__cxx1112basic_stringIcSt11char_traitsIcESaIcEEE T
_ZN6google8protobuf4util9converter23ProtoStreamObjectWriter17DeleteRendererMapEv T
_ZN6google8protobuf4util9converter23ProtoStreamObjectWriter17RenderStructValueEPS3_RKNS2_9DataPieceE T
_ZN6google8protobuf4util9converter23ProtoStreamObjectWriter17RenderWrapperTypeEPS3_RKNS2_9DataPieceE T
_ZN6google8protobuf4util9converter23ProtoStreamObjectWriter3PopEv T
_ZN6google8protobuf4util9converter23ProtoStreamObjectWriter4Item24InsertMapKeyIfNotPresentENS0_11StringPieceE T
_ZN6google8protobuf4util9converter23ProtoStreamObjectWriter4ItemC1EPS3_NS4_8ItemTypeEbb T
_ZN6google8protobuf4util9converter23ProtoStreamObjectWriter4ItemC1EPS4_NS4_8ItemTypeEbb T
_ZN6google8protobuf4util9converter23ProtoStreamObjectWriter4ItemC2EPS3_NS4_8ItemTypeEbb T
_ZN6google8protobuf4util9converter23ProtoStreamObjectWriter4ItemC2EPS4_NS4_8ItemTypeEbb T
_ZN6google8protobuf4util9converter23ProtoStreamObjectWriter4ItemD0Ev W
_ZN6google8protobuf4util9converter23ProtoStreamObjectWriter4ItemD1Ev W
_ZN6google8protobuf4util9converter23ProtoStreamObjectWriter4ItemD2Ev W
_ZN6google8protobuf4util9converter23ProtoStreamObjectWriter4PushENS0_11StringPieceENS3_4Item8ItemTypeEbb T
_ZN6google8protobuf4util9converter23ProtoStreamObjectWriter7EndListEv T
_ZN6google8protobuf4util9converter23ProtoStreamObjectWriter9AnyWriter11StartObjectENS0_11StringPieceE T
_ZN6google8protobuf4util9converter23ProtoStreamObjectWriter9AnyWriter15RenderDataPieceENS0_11StringPieceERKNS2_9DataPieceE T
_ZN6google8protobuf4util9converter23ProtoStreamObjectWriter9AnyWriter5Event8DeepCopyEv T
_ZN6google8protobuf4util9converter23ProtoStreamObjectWriter9AnyWriter5EventD1Ev W
_ZN6google8protobuf4util9converter23ProtoStreamObjectWriter9AnyWriter5EventD2Ev W
_ZN6google8protobuf4util9converter23ProtoStreamObjectWriter9AnyWriter7EndListEv T
_ZN6google8protobuf4util9converter23ProtoStreamObjectWriter9AnyWriter8StartAnyERKNS2_9DataPieceE T
_ZN6google8protobuf4util9converter23ProtoStreamObjectWriter9AnyWriter8WriteAnyEv T
_ZN6google8protobuf4util9converter23ProtoStreamObjectWriter9AnyWriter9EndObjectEv T
_ZN6google8protobuf4util9converter23ProtoStreamObjectWriter9AnyWriter9StartListENS0_11StringPieceE T
_ZN6google8protobuf4util9converter23ProtoStreamObjectWriter9AnyWriterC1EPS3_ T
_ZN6google8protobuf4util9converter23ProtoStreamObjectWriter9AnyWriterC2EPS3_ T
_ZN6google8protobuf4util9converter23ProtoStreamObjectWriter9AnyWriterD1Ev T
_ZN6google8protobuf4util9converter23ProtoStreamObjectWriter9AnyWriterD2Ev T
_ZN6google8protobuf4util9converter23ProtoStreamObjectWriter9EndObjectEv T
_ZN6google8protobuf4util9converter23ProtoStreamObjectWriter9StartListENS0_11StringPieceE T
_ZN6google8protobuf4util9converter23ProtoStreamObjectWriterC1EPKNS2_8TypeInfoERKNS0_4TypeEPNS0_7strings8ByteSinkEPNS2_13ErrorListenerE T
_ZN6google8protobuf4util9converter23ProtoStreamObjectWriterC1EPNS1_12TypeResolverERKNS0_4TypeEPNS0_7strings8ByteSinkEPNS2_13ErrorListenerERKNS3_7OptionsE T
_ZN6google8protobuf4util9converter23ProtoStreamObjectWriterC2EPKNS2_8TypeInfoERKNS0_4TypeEPNS0_7strings8ByteSinkEPNS2_13ErrorListenerE T
_ZN6google8protobuf4util9converter23ProtoStreamObjectWriterC2EPNS1_12TypeResolverERKNS0_4TypeEPNS0_7strings8ByteSinkEPNS2_13ErrorListenerERKNS3_7OptionsE T
_ZN6google8protobuf4util9converter23ProtoStreamObjectWriterD0Ev T
_ZN6google8protobuf4util9converter23ProtoStreamObjectWriterD1Ev T
_ZN6google8protobuf4util9converter23ProtoStreamObjectWriterD2Ev T
_ZN6google8protobuf4util9converter24DefaultValueObjectWriter10RenderBoolENS0_11StringPieceEb T
_ZN6google8protobuf4util9converter24DefaultValueObjectWriter10RenderNullENS0_11StringPieceE T
_ZN6google8protobuf4util9converter24DefaultValueObjectWriter11RenderBytesENS0_11StringPieceES4_ T
_ZN6google8protobuf4util9converter24DefaultValueObjectWriter11RenderFloatENS0_11StringPieceEf T
_ZN6google8protobuf4util9converter24DefaultValueObjectWriter11RenderInt32ENS0_11StringPieceEi T
_ZN6google8protobuf4util9converter24DefaultValueObjectWriter11RenderInt64ENS0_11StringPieceEl T
_ZN6google8protobuf4util9converter24DefaultValueObjectWriter11StartObjectENS0_11StringPieceE T
_ZN6google8protobuf4util9converter24DefaultValueObjectWriter12RenderDoubleENS0_11StringPieceEd T
_ZN6google8protobuf4util9converter24DefaultValueObjectWriter12RenderStringENS0_11StringPieceES4_ T
_ZN6google8protobuf4util9converter24DefaultValueObjectWriter12RenderUint32ENS0_11StringPieceEj T
_ZN6google8protobuf4util9converter24DefaultValueObjectWriter12RenderUint64ENS0_11StringPieceEm T
_ZN6google8protobuf4util9converter24DefaultValueObjectWriter13CreateNewNodeERKNSt7__cxx1112basic_stringIcSt11char_traitsIcESaIcEEEPKNS0_4TypeENS3_8NodeKindERKNS2_9DataPieceEbRKSt6vectorIS9_SaIS9_EEbPNS0_15ResultCallback2IbSN_PKNS0_5FieldEEE T
_ZN6google8protobuf4util9converter24DefaultValueObjectWriter13CreateNewNodeERKNSt7__cxx1112basic_stringIcSt11char_traitsIcESaIcEEEPKNS0_4TypeENS3_8NodeKindERKNS2_9DataPieceEbRKSt6vectorIS9_SaIS9_EEbbPNS0_15ResultCallback2IbSN_PKNS0_5FieldEEE T
_ZN6google8protobuf4util9converter24DefaultValueObjectWriter15FindEnumDefaultERKNS0_5FieldEPKNS2_8TypeInfoE T
_ZN6google8protobuf4util9converter24DefaultValueObjectWriter15RenderDataPieceENS0_11StringPieceERKNS2_9DataPieceE T
_ZN6google8protobuf4util9converter24DefaultValueObjectWriter26MaybePopulateChildrenOfAnyEPNS3_4NodeE T
_ZN6google8protobuf4util9converter24DefaultValueObjectWriter26RegisterFieldScrubCallBackENS0_8internal10scoped_ptrINS0_15ResultCallback2IbRKSt6vectorINSt7__cxx1112basic_stringIcSt11char_traitsIcESaIcEEESaISD_EEPKNS0_5FieldEEEEE T
_ZN6google8protobuf4util9converter24DefaultValueObjectWriter30CreateDefaultDataPieceForFieldERKNS0_5FieldEPKNS2_8TypeInfoE T
_ZN6google8protobuf4util9converter24DefaultValueObjectWriter4Node13WriteChildrenEPNS2_12ObjectWriterE T
_ZN6google8protobuf4util9converter24DefaultValueObjectWriter4Node15GetMapValueTypeERKNS0_4TypeEPKNS2_8TypeInfoE T
_ZN6google8protobuf4util9converter24DefaultValueObjectWriter4Node16PopulateChildrenEPKNS2_8TypeInfoE T
_ZN6google8protobuf4util9converter24DefaultValueObjectWriter4Node7WriteToEPNS2_12ObjectWriterE T
_ZN6google8protobuf4util9converter24DefaultValueObjectWriter4Node9FindChildENS0_11StringPieceE T
_ZN6google8protobuf4util9converter24DefaultValueObjectWriter4NodeC1ERKNSt7__cxx1112basic_stringIcSt11char_traitsIcESaIcEEEPKNS0_4TypeENS3_8NodeKindERKNS2_9DataPieceEbRKSt6vectorISA_SaISA_EEbPNS0_15ResultCallback2IbSO_PKNS0_5FieldEEE T
_ZN6google8protobuf4util9converter24DefaultValueObjectWriter4NodeC1ERKNSt7__cxx1112basic_stringIcSt11char_traitsIcESaIcEEEPKNS0_4TypeENS3_8NodeKindERKNS2_9DataPieceEbRKSt6vectorISA_SaISA_EEbbPNS0_15ResultCallback2IbSO_PKNS0_5FieldEEE T
_ZN6google8protobuf4util9converter24DefaultValueObjectWriter4NodeC2ERKNSt7__cxx1112basic_stringIcSt11char_traitsIcESaIcEEEPKNS0_4TypeENS3_8NodeKindERKNS2_9DataPieceEbRKSt6vectorISA_SaISA_EEbPNS0_15ResultCallback2IbSO_PKNS0_5FieldEEE T
_ZN6google8protobuf4util9converter24DefaultValueObjectWriter4NodeC2ERKNSt7__cxx1112basic_stringIcSt11char_traitsIcESaIcEEEPKNS0_4TypeENS3_8NodeKindERKNS2_9DataPieceEbRKSt6vectorISA_SaISA_EEbbPNS0_15ResultCallback2IbSO_PKNS0_5FieldEEE T
_ZN6google8protobuf4util9converter24DefaultValueObjectWriter4NodeD0Ev W
_ZN6google8protobuf4util9converter24DefaultValueObjectWriter4NodeD1Ev W
_ZN6google8protobuf4util9converter24DefaultValueObjectWriter4NodeD2Ev W
_ZN6google8protobuf4util9converter24DefaultValueObjectWriter7EndListEv T
_ZN6google8protobuf4util9converter24DefaultValueObjectWriter9EndObjectEv T
_ZN6google8protobuf4util9converter24DefaultValueObjectWriter9StartListENS0_11StringPieceE T
_ZN6google8protobuf4util9converter24DefaultValueObjectWriter9WriteRootEv T
_ZN6google8protobuf4util9converter24DefaultValueObjectWriterC1EPNS1_12TypeResolverERKNS0_4TypeEPNS2_12ObjectWriterE T
_ZN6google8protobuf4util9converter24DefaultValueObjectWriterC2EPNS1_12TypeResolverERKNS0_4TypeEPNS2_12ObjectWriterE T
_ZN6google8protobuf4util9converter24DefaultValueObjectWriterD0Ev T
_ZN6google8protobuf4util9converter24DefaultValueObjectWriterD1Ev T
_ZN6google8protobuf4util9converter24DefaultValueObjectWriterD2Ev T
_ZN6google8protobuf4util9converter24GetDoubleOptionOrDefaultERKNS0_16RepeatedPtrFieldINS0_6OptionEEERKNSt7__cxx1112basic_stringIcSt11char_traitsIcESaIcEEEd T
_ZN6google8protobuf4util9converter24GetStringOptionOrDefaultERKNS0_16RepeatedPtrFieldINS0_6OptionEEERKNSt7__cxx1112basic_stringIcSt11char_traitsIcESaIcEEESF_ T
_ZN6google8protobuf4util9converter25FindEnumValueByNameOrNullEPKNS0_4EnumENS0_11StringPieceE T
_ZN6google8protobuf4util9converter25FindJsonFieldInTypeOrNullEPKNS0_4TypeENS0_11StringPieceE T
_ZN6google8protobuf4util9converter27DecodeCompactFieldMaskPathsENS0_11StringPieceEPNS0_15ResultCallback1INS1_6StatusES3_EE T
_ZN6google8protobuf4util9converter27FindEnumValueByNumberOrNullEPKNS0_4EnumEi T
_ZN6google8protobuf4util9converter28well_known_types_name_array_E D 0000000000000060
_ZN6google8protobuf4util9converter29FindFieldInTypeByNumberOrNullEPKNS0_4TypeEi T
_ZN6google8protobuf4util9converter42FindEnumValueByNameWithoutUnderscoreOrNullEPKNS0_4EnumENS0_11StringPieceE T
_ZN6google8protobuf4util9converter5IsMapERKNS0_5FieldERKNS0_4TypeE T
_ZN6google8protobuf4util9converter7testing18TypeInfoTestHelper11GetTypeInfoEv T
_ZN6google8protobuf4util9converter7testing18TypeInfoTestHelper13ResetTypeInfoEPKNS0_10DescriptorE T
_ZN6google8protobuf4util9converter7testing18TypeInfoTestHelper13ResetTypeInfoEPKNS0_10DescriptorES7_ T
_ZN6google8protobuf4util9converter7testing18TypeInfoTestHelper13ResetTypeInfoERKSt6vectorIPKNS0_10DescriptorESaIS8_EE T
_ZN6google8protobuf4util9converter7testing18TypeInfoTestHelper14NewProtoSourceEPNS0_2io16CodedInputStreamERKNSt7__cxx1112basic_stringIcSt11char_traitsIcESaIcEEE T
_ZN6google8protobuf4util9converter7testing18TypeInfoTestHelper14NewProtoWriterERKNSt7__cxx1112basic_stringIcSt11char_traitsIcESaIcEEEPNS0_7strings8ByteSinkEPNS2_13ErrorListenerERKNS2_23ProtoStreamObjectWriter7OptionsE T
_ZN6google8protobuf4util9converter7testing18TypeInfoTestHelper21NewDefaultValueWriterERKNSt7__cxx1112basic_stringIcSt11char_traitsIcESaIcEEEPNS2_12ObjectWriterE T
_ZN6google8protobuf4util9converter8TypeInfo11NewTypeInfoEPNS1_12TypeResolverE T
_ZN6google8protobuf4util9converter9DataPiece12InternalCopyERKS3_ T
_ZN6google8protobuf4util9converter9DataPieceD0Ev W
_ZN6google8protobuf4util9converter9DataPieceD1Ev W
_ZN6google8protobuf4util9converter9DataPieceD2Ev W
_ZN6google8protobuf56_EnumDescriptorProto_EnumReservedRange_default_instance_E B 0000000000000020
_ZN6google8protobuf5Arena13OwnDestructorINS0_11MapValueRefEEEvPT_ W
_ZN6google8protobuf5Arena13OwnDestructorINS0_6MapKeyEEEvPT_ W
_ZN6google8protobuf5Arena13OwnDestructorINS0_8internal5MutexEEEvPT_ W
_ZN6google8protobuf5Arena13OwnDestructorINSt7__cxx1112basic_stringIcSt11char_traitsIcESaIcEEEEEvPT_ W
_ZN6google8protobuf5Arena3OwnINS0_13SourceContextEEEvPT_ W
_ZN6google8protobuf5Arena3OwnINS0_27Struct_FieldsEntry_DoNotUseEEEvPT_ W
_ZN6google8protobuf5Arena3OwnINS0_3AnyEEEvPT_ W
_ZN6google8protobuf5Arena3OwnINS0_3ApiEEEvPT_ W
_ZN6google8protobuf5Arena3OwnINS0_5MixinEEEvPT_ W
_ZN6google8protobuf5Arena3OwnINS0_6MethodEEEvPT_ W
_ZN6google8protobuf5Arena3OwnINS0_7MessageEEEvPT_ W
_ZN6google8protobuf5Arena3OwnINS0_9FieldMaskEEEvPT_ W
_ZN6google8protobuf5Arena3OwnINSt7__cxx1112basic_stringIcSt11char_traitsIcESaIcEEEEEvPT_ W
_ZN6google8protobuf5Empty10SharedCtorEv T
_ZN6google8protobuf5Empty10SharedDtorEv T
_ZN6google8protobuf5Empty10descriptorEv T
_ZN6google8protobuf5Empty12InternalSwapEPS1_ T
_ZN6google8protobuf5Empty15UnsafeArenaSwapEPS1_ T
_ZN6google8protobuf5Empty16default_instanceEv T
_ZN6google8protobuf5Empty21InitAsDefaultInstanceEv T
_ZN6google8protobuf5Empty27MergePartialFromCodedStreamEPNS0_2io16CodedInputStreamE T
_ZN6google8protobuf5Empty4SwapEPS1_ T
_ZN6google8protobuf5Empty5ClearEv T
_ZN6google8protobuf5Empty8CopyFromERKNS0_7MessageE T
_ZN6google8protobuf5Empty8CopyFromERKS1_ T
_ZN6google8protobuf5Empty9ArenaDtorEPv T
_ZN6google8protobuf5Empty9MergeFromERKNS0_7MessageE T
_ZN6google8protobuf5Empty9MergeFromERKS1_ T
_ZN6google8protobuf5EmptyC1EPNS0_5ArenaE T
_ZN6google8protobuf5EmptyC1ERKS1_ T
_ZN6google8protobuf5EmptyC1Ev T
_ZN6google8protobuf5EmptyC2EPNS0_5ArenaE T
_ZN6google8protobuf5EmptyC2ERKS1_ T
_ZN6google8protobuf5EmptyC2Ev T
_ZN6google8protobuf5EmptyD0Ev T
_ZN6google8protobuf5EmptyD1Ev T
_ZN6google8protobuf5EmptyD2Ev T
_ZN6google8protobuf5Field10SharedCtorEv T
_ZN6google8protobuf5Field10SharedDtorEv T
_ZN6google8protobuf5Field10TYPE_BYTESE R
_ZN6google8protobuf5Field10TYPE_FLOATE R
_ZN6google8protobuf5Field10TYPE_GROUPE R
_ZN6google8protobuf5Field10TYPE_INT32E R
_ZN6google8protobuf5Field10TYPE_INT64E R
_ZN6google8protobuf5Field10descriptorEv T
_ZN6google8protobuf5Field11TYPE_DOUBLEE R
_ZN6google8protobuf5Field11TYPE_SINT32E R
_ZN6google8protobuf5Field11TYPE_SINT64E R
_ZN6google8protobuf5Field11TYPE_STRINGE R
_ZN6google8protobuf5Field11TYPE_UINT32E R
_ZN6google8protobuf5Field11TYPE_UINT64E R
_ZN6google8protobuf5Field12InternalSwapEPS1_ T
_ZN6google8protobuf5Field12TYPE_FIXED32E R
_ZN6google8protobuf5Field12TYPE_FIXED64E R
_ZN6google8protobuf5Field12TYPE_MESSAGEE R
_ZN6google8protobuf5Field12TYPE_UNKNOWNE R
_ZN6google8protobuf5Field13TYPE_SFIXED32E R
_ZN6google8protobuf5Field13TYPE_SFIXED64E R
_ZN6google8protobuf5Field14Kind_ARRAYSIZEE R
_ZN6google8protobuf5Field15Cardinality_MAXE R
_ZN6google8protobuf5Field15Cardinality_MINE R
_ZN6google8protobuf5Field15UnsafeArenaSwapEPS1_ T
_ZN6google8protobuf5Field16default_instanceEv T
_ZN6google8protobuf5Field16kKindFieldNumberE R
_ZN6google8protobuf5Field16kNameFieldNumberE R
_ZN6google8protobuf5Field18kNumberFieldNumberE R
_ZN6google8protobuf5Field18kPackedFieldNumberE R
_ZN6google8protobuf5Field19CARDINALITY_UNKNOWNE R
_ZN6google8protobuf5Field19kOptionsFieldNumberE R
_ZN6google8protobuf5Field19kTypeUrlFieldNumberE R
_ZN6google8protobuf5Field20CARDINALITY_OPTIONALE R
_ZN6google8protobuf5Field20CARDINALITY_REPEATEDE R
_ZN6google8protobuf5Field20CARDINALITY_REQUIREDE R
_ZN6google8protobuf5Field20kJsonNameFieldNumberE R
_ZN6google8protobuf5Field21Cardinality_ARRAYSIZEE R
_ZN6google8protobuf5Field21InitAsDefaultInstanceEv T
_ZN6google8protobuf5Field22kOneofIndexFieldNumberE R
_ZN6google8protobuf5Field23kCardinalityFieldNumberE R
_ZN6google8protobuf5Field24kDefaultValueFieldNumberE R
_ZN6google8protobuf5Field27MergePartialFromCodedStreamEPNS0_2io16CodedInputStreamE T
_ZN6google8protobuf5Field4SwapEPS1_ T
_ZN6google8protobuf5Field5ClearEv T
_ZN6google8protobuf5Field8CopyFromERKNS0_7MessageE T
_ZN6google8protobuf5Field8CopyFromERKS1_ T
_ZN6google8protobuf5Field8Kind_MAXE R
_ZN6google8protobuf5Field8Kind_MINE R
_ZN6google8protobuf5Field9ArenaDtorEPv T
_ZN6google8protobuf5Field9MergeFromERKNS0_7MessageE T
_ZN6google8protobuf5Field9MergeFromERKS1_ T
_ZN6google8protobuf5Field9TYPE_BOOLE R
_ZN6google8protobuf5Field9TYPE_ENUME R
_ZN6google8protobuf5FieldC1EPNS0_5ArenaE T
_ZN6google8protobuf5FieldC1ERKS1_ T
_ZN6google8protobuf5FieldC1Ev T
_ZN6google8protobuf5FieldC2EPNS0_5ArenaE T
_ZN6google8protobuf5FieldC2ERKS1_ T
_ZN6google8protobuf5FieldC2Ev T
_ZN6google8protobuf5FieldD0Ev T
_ZN6google8protobuf5FieldD1Ev T
_ZN6google8protobuf5FieldD2Ev T
_ZN6google8protobuf5Mixin10SharedCtorEv T
_ZN6google8protobuf5Mixin10SharedDtorEv T
_ZN6google8protobuf5Mixin10descriptorEv T
_ZN6google8protobuf5Mixin12InternalSwapEPS1_ T
_ZN6google8protobuf5Mixin16default_instanceEv T
_ZN6google8protobuf5Mixin16kNameFieldNumberE R
_ZN6google8protobuf5Mixin16kRootFieldNumberE R
_ZN6google8protobuf5Mixin21InitAsDefaultInstanceEv T
_ZN6google8protobuf5Mixin27MergePartialFromCodedStreamEPNS0_2io16CodedInputStreamE T
_ZN6google8protobuf5Mixin4SwapEPS1_ T
_ZN6google8protobuf5Mixin5ClearEv T
_ZN6google8protobuf5Mixin8CopyFromERKNS0_7MessageE T
_ZN6google8protobuf5Mixin8CopyFromERKS1_ T
_ZN6google8protobuf5Mixin9MergeFromERKNS0_7MessageE T
_ZN6google8protobuf5Mixin9MergeFromERKS1_ T
_ZN6google8protobuf5MixinC1ERKS1_ T
_ZN6google8protobuf5MixinC1Ev T
_ZN6google8protobuf5MixinC2ERKS1_ T
_ZN6google8protobuf5MixinC2Ev T
_ZN6google8protobuf5MixinD0Ev T
_ZN6google8protobuf5MixinD1Ev T
_ZN6google8protobuf5MixinD2Ev T
_ZN6google8protobuf5Value10SharedCtorEv T
_ZN6google8protobuf5Value10SharedDtorEv T
_ZN6google8protobuf5Value10clear_kindEv T
_ZN6google8protobuf5Value10descriptorEv T
_ZN6google8protobuf5Value12InternalSwapEPS1_ T
_ZN6google8protobuf5Value15UnsafeArenaSwapEPS1_ T
_ZN6google8protobuf5Value16default_instanceEv T
_ZN6google8protobuf5Value21InitAsDefaultInstanceEv T
_ZN6google8protobuf5Value21kBoolValueFieldNumberE R
_ZN6google8protobuf5Value21kListValueFieldNumberE R
_ZN6google8protobuf5Value21kNullValueFieldNumberE R
_ZN6google8protobuf5Value23kNumberValueFieldNumberE R
_ZN6google8protobuf5Value23kStringValueFieldNumberE R
_ZN6google8protobuf5Value23kStructValueFieldNumberE R
_ZN6google8protobuf5Value24set_allocated_list_valueEPNS0_9ListValueE T
_ZN6google8protobuf5Value26set_allocated_struct_valueEPNS0_6StructE T
_ZN6google8protobuf5Value27MergePartialFromCodedStreamEPNS0_2io16CodedInputStreamE T
_ZN6google8protobuf5Value4SwapEPS1_ T
_ZN6google8protobuf5Value5ClearEv T
_ZN6google8protobuf5Value8CopyFromERKNS0_7MessageE T
_ZN6google8protobuf5Value8CopyFromERKS1_ T
_ZN6google8protobuf5Value9ArenaDtorEPv T
_ZN6google8protobuf5Value9MergeFromERKNS0_7MessageE T
_ZN6google8protobuf5Value9MergeFromERKS1_ T
_ZN6google8protobuf5ValueC1EPNS0_5ArenaE T
_ZN6google8protobuf5ValueC1ERKS1_ T
_ZN6google8protobuf5ValueC1Ev T
_ZN6google8protobuf5ValueC2EPNS0_5ArenaE T
_ZN6google8protobuf5ValueC2ERKS1_ T
_ZN6google8protobuf5ValueC2Ev T
_ZN6google8protobuf5ValueD0Ev T
_ZN6google8protobuf5ValueD1Ev T
_ZN6google8protobuf5ValueD2Ev T
_ZN6google8protobuf6MapKey8CopyFromERKS1_ W
_ZN6google8protobuf6MapKeyD1Ev W
_ZN6google8protobuf6MapKeyD2Ev W
_ZN6google8protobuf6Method10SharedCtorEv T
_ZN6google8protobuf6Method10SharedDtorEv T
_ZN6google8protobuf6Method10descriptorEv T
_ZN6google8protobuf6Method12InternalSwapEPS1_ T
_ZN6google8protobuf6Method13clear_optionsEv T
_ZN6google8protobuf6Method16default_instanceEv T
_ZN6google8protobuf6Method16kNameFieldNumberE R
_ZN6google8protobuf6Method18kSyntaxFieldNumberE R
_ZN6google8protobuf6Method19kOptionsFieldNumberE R
_ZN6google8protobuf6Method21InitAsDefaultInstanceEv T
_ZN6google8protobuf6Method26kRequestTypeUrlFieldNumberE R
_ZN6google8protobuf6Method27MergePartialFromCodedStreamEPNS0_2io16CodedInputStreamE T
_ZN6google8protobuf6Method27kResponseTypeUrlFieldNumberE R
_ZN6google8protobuf6Method28kRequestStreamingFieldNumberE R
_ZN6google8protobuf6Method29kResponseStreamingFieldNumberE R
_ZN6google8protobuf6Method4SwapEPS1_ T
_ZN6google8protobuf6Method5ClearEv T
_ZN6google8protobuf6Method8CopyFromERKNS0_7MessageE T
_ZN6google8protobuf6Method8CopyFromERKS1_ T
_ZN6google8protobuf6Method9MergeFromERKNS0_7MessageE T
_ZN6google8protobuf6Method9MergeFromERKS1_ T
_ZN6google8protobuf6MethodC1ERKS1_ T
_ZN6google8protobuf6MethodC1Ev T
_ZN6google8protobuf6MethodC2ERKS1_ T
_ZN6google8protobuf6MethodC2Ev T
_ZN6google8protobuf6MethodD0Ev T
_ZN6google8protobuf6MethodD1Ev T
_ZN6google8protobuf6MethodD2Ev T
_ZN6google8protobuf6Option10SharedCtorEv T
_ZN6google8protobuf6Option10SharedDtorEv T
_ZN6google8protobuf6Option10descriptorEv T
_ZN6google8protobuf6Option11clear_valueEv T
_ZN6google8protobuf6Option12InternalSwapEPS1_ T
_ZN6google8protobuf6Option15UnsafeArenaSwapEPS1_ T
_ZN6google8protobuf6Option16default_instanceEv T
_ZN6google8protobuf6Option16kNameFieldNumberE R
_ZN6google8protobuf6Option17kValueFieldNumberE R
_ZN6google8protobuf6Option19_slow_mutable_valueEv T
_ZN6google8protobuf6Option21InitAsDefaultInstanceEv T
_ZN6google8protobuf6Option27MergePartialFromCodedStreamEPNS0_2io16CodedInputStreamE T
_ZN6google8protobuf6Option32unsafe_arena_set_allocated_valueEPNS0_3AnyE T
_ZN6google8protobuf6Option4SwapEPS1_ T
_ZN6google8protobuf6Option5ClearEv T
_ZN6google8protobuf6Option8CopyFromERKNS0_7MessageE T
_ZN6google8protobuf6Option8CopyFromERKS1_ T
_ZN6google8protobuf6Option9ArenaDtorEPv T
_ZN6google8protobuf6Option9MergeFromERKNS0_7MessageE T
_ZN6google8protobuf6Option9MergeFromERKS1_ T
_ZN6google8protobuf6OptionC1EPNS0_5ArenaE T
_ZN6google8protobuf6OptionC1ERKS1_ T
_ZN6google8protobuf6OptionC1Ev T
_ZN6google8protobuf6OptionC2EPNS0_5ArenaE T
_ZN6google8protobuf6OptionC2ERKS1_ T
_ZN6google8protobuf6OptionC2Ev T
_ZN6google8protobuf6OptionD0Ev T
_ZN6google8protobuf6OptionD1Ev T
_ZN6google8protobuf6OptionD2Ev T
_ZN6google8protobuf6Struct10SharedCtorEv T
_ZN6google8protobuf6Struct10SharedDtorEv T
_ZN6google8protobuf6Struct10descriptorEv T
_ZN6google8protobuf6Struct12InternalSwapEPS1_ T
_ZN6google8protobuf6Struct15UnsafeArenaSwapEPS1_ T
_ZN6google8protobuf6Struct16default_instanceEv T
_ZN6google8protobuf6Struct18kFieldsFieldNumberE R
_ZN6google8protobuf6Struct21InitAsDefaultInstanceEv T
_ZN6google8protobuf6Struct27MergePartialFromCodedStreamEPNS0_2io16CodedInputStreamE T
_ZN6google8protobuf6Struct4SwapEPS1_ T
_ZN6google8protobuf6Struct5ClearEv T
_ZN6google8protobuf6Struct8CopyFromERKNS0_7MessageE T
_ZN6google8protobuf6Struct8CopyFromERKS1_ T
_ZN6google8protobuf6Struct9ArenaDtorEPv T
_ZN6google8protobuf6Struct9MergeFromERKNS0_7MessageE T
_ZN6google8protobuf6Struct9MergeFromERKS1_ T
_ZN6google8protobuf6StructC1EPNS0_5ArenaE T
_ZN6google8protobuf6StructC1ERKS1_ T
_ZN6google8protobuf6StructC1Ev T
_ZN6google8protobuf6StructC2EPNS0_5ArenaE T
_ZN6google8protobuf6StructC2ERKS1_ T
_ZN6google8protobuf6StructC2Ev T
_ZN6google8protobuf6StructD0Ev T
_ZN6google8protobuf6StructD1Ev T
_ZN6google8protobuf6StructD2Ev T
_ZN6google8protobuf7Message16ParseFromIstreamEPSi T
_ZN6google8protobuf7Message20DiscardUnknownFieldsEv T
_ZN6google8protobuf7Message21CheckTypeAndMergeFromERKNS0_11MessageLiteE T
_ZN6google8protobuf7Message23ParseFromFileDescriptorEi T
_ZN6google8protobuf7Message23ParsePartialFromIstreamEPSi T
_ZN6google8protobuf7Message27MergePartialFromCodedStreamEPNS0_2io16CodedInputStreamE T
_ZN6google8protobuf7Message30ParsePartialFromFileDescriptorEi T
_ZN6google8protobuf7Message5ClearEv T
_ZN6google8protobuf7Message8CopyFromERKS1_ T
_ZN6google8protobuf7Message9MergeFromERKS1_ T
_ZN6google8protobuf7ServiceD0Ev T
_ZN6google8protobuf7ServiceD1Ev T
_ZN6google8protobuf7ServiceD2Ev T
_ZN6google8protobuf7strings10SubstituteB5cxx11EPKcRKNS1_8internal13SubstituteArgES7_S7_S7_S7_S7_S7_S7_S7_S7_ T
_ZN6google8protobuf7strings12NullByteSink6AppendEPKcm W
_ZN6google8protobuf7strings19SubstituteAndAppendEPNSt7__cxx1112basic_stringIcSt11char_traitsIcESaIcEEEPKcRKNS1_8internal13SubstituteArgESE_SE_SE_SE_SE_SE_SE_SE_SE_ T
_ZN6google8protobuf8Duration10SharedCtorEv T
_ZN6google8protobuf8Duration10SharedDtorEv T
_ZN6google8protobuf8Duration10descriptorEv T
_ZN6google8protobuf8Duration12InternalSwapEPS1_ T
_ZN6google8protobuf8Duration15UnsafeArenaSwapEPS1_ T
_ZN6google8protobuf8Duration16default_instanceEv T
_ZN6google8protobuf8Duration17kNanosFieldNumberE R
_ZN6google8protobuf8Duration19kSecondsFieldNumberE R
_ZN6google8protobuf8Duration21InitAsDefaultInstanceEv T
_ZN6google8protobuf8Duration27MergePartialFromCodedStreamEPNS0_2io16CodedInputStreamE T
_ZN6google8protobuf8Duration4SwapEPS1_ T
_ZN6google8protobuf8Duration5ClearEv T
_ZN6google8protobuf8Duration8CopyFromERKNS0_7MessageE T
_ZN6google8protobuf8Duration8CopyFromERKS1_ T
_ZN6google8protobuf8Duration9ArenaDtorEPv T
_ZN6google8protobuf8Duration9MergeFromERKNS0_7MessageE T
_ZN6google8protobuf8Duration9MergeFromERKS1_ T
_ZN6google8protobuf8DurationC1EPNS0_5ArenaE T
_ZN6google8protobuf8DurationC1ERKS1_ T
_ZN6google8protobuf8DurationC1Ev T
_ZN6google8protobuf8DurationC2EPNS0_5ArenaE T
_ZN6google8protobuf8DurationC2ERKS1_ T
_ZN6google8protobuf8DurationC2Ev T
_ZN6google8protobuf8DurationD0Ev T
_ZN6google8protobuf8DurationD1Ev T
_ZN6google8protobuf8DurationD2Ev T
_ZN6google8protobuf8compiler10SourceTree19GetLastErrorMessageB5cxx11Ev T
_ZN6google8protobuf8compiler10SourceTreeD0Ev T
_ZN6google8protobuf8compiler10SourceTreeD1Ev T
_ZN6google8protobuf8compiler10SourceTreeD2Ev T
_ZN6google8protobuf8compiler14DiskSourceTree12OpenDiskFileERKNSt7__cxx1112basic_stringIcSt11char_traitsIcESaIcEEE T
_ZN6google8protobuf8compiler14DiskSourceTree15OpenVirtualFileERKNSt7__cxx1112basic_stringIcSt11char_traitsIcESaIcEEEPS8_ T
_ZN6google8protobuf8compiler14DiskSourceTree19GetLastErrorMessageB5cxx11Ev T
_ZN6google8protobuf8compiler14DiskSourceTree21DiskFileToVirtualFileERKNSt7__cxx1112basic_stringIcSt11char_traitsIcESaIcEEEPS8_SB_ T
_ZN6google8protobuf8compiler14DiskSourceTree21VirtualFileToDiskFileERKNSt7__cxx1112basic_stringIcSt11char_traitsIcESaIcEEEPS8_ T
_ZN6google8protobuf8compiler14DiskSourceTree4OpenERKNSt7__cxx1112basic_stringIcSt11char_traitsIcESaIcEEE T
_ZN6google8protobuf8compiler14DiskSourceTree7MapPathERKNSt7__cxx1112basic_stringIcSt11char_traitsIcESaIcEEESA_ T
_ZN6google8protobuf8compiler14DiskSourceTreeC1Ev T
_ZN6google8protobuf8compiler14DiskSourceTreeC2Ev T
_ZN6google8protobuf8compiler14DiskSourceTreeD0Ev T
_ZN6google8protobuf8compiler14DiskSourceTreeD1Ev T
_ZN6google8protobuf8compiler14DiskSourceTreeD2Ev T
_ZN6google8protobuf8compiler19SourceLocationTable3AddEPKNS0_7MessageENS0_14DescriptorPool14ErrorCollector13ErrorLocationEii T
_ZN6google8protobuf8compiler19SourceLocationTable5ClearEv T
_ZN6google8protobuf8compiler19SourceLocationTableC1Ev T
_ZN6google8protobuf8compiler19SourceLocationTableC2Ev T
_ZN6google8protobuf8compiler19SourceLocationTableD1Ev T
_ZN6google8protobuf8compiler19SourceLocationTableD2Ev T
_ZN6google8protobuf8compiler23MultiFileErrorCollector10AddWarningERKNSt7__cxx1112basic_stringIcSt11char_traitsIcESaIcEEEiiSA_ W
_ZN6google8protobuf8compiler23MultiFileErrorCollectorD0Ev T
_ZN6google8protobuf8compiler23MultiFileErrorCollectorD1Ev T
_ZN6google8protobuf8compiler23MultiFileErrorCollectorD2Ev T
_ZN6google8protobuf8compiler28SourceTreeDescriptorDatabase14FindFileByNameERKNSt7__cxx1112basic_stringIcSt11char_traitsIcESaIcEEEPNS0_19FileDescriptorProtoE T
_ZN6google8protobuf8compiler28SourceTreeDescriptorDatabase24FindFileContainingSymbolERKNSt7__cxx1112basic_stringIcSt11char_traitsIcESaIcEEEPNS0_19FileDescriptorProtoE T
_ZN6google8protobuf8compiler28SourceTreeDescriptorDatabase24SingleFileErrorCollector8AddErrorEiiRKNSt7__cxx1112basic_stringIcSt11char_traitsIcESaIcEEE W
_ZN6google8protobuf8compiler28SourceTreeDescriptorDatabase24SingleFileErrorCollectorD0Ev W
_ZN6google8protobuf8compiler28SourceTreeDescriptorDatabase24SingleFileErrorCollectorD1Ev W
_ZN6google8protobuf8compiler28SourceTreeDescriptorDatabase24SingleFileErrorCollectorD2Ev W
_ZN6google8protobuf8compiler28SourceTreeDescriptorDatabase24ValidationErrorCollector10AddWarningERKNSt7__cxx1112basic_stringIcSt11char_traitsIcESaIcEEESB_PKNS0_7MessageENS0_14DescriptorPool14ErrorCollector13ErrorLocationESB_ T
_ZN6google8protobuf8compiler28SourceTreeDescriptorDatabase24ValidationErrorCollector8AddErrorERKNSt7__cxx1112basic_stringIcSt11char_traitsIcESaIcEEESB_PKNS0_7MessageENS0_14DescriptorPool14ErrorCollector13ErrorLocationESB_ T
_ZN6google8protobuf8compiler28SourceTreeDescriptorDatabase24ValidationErrorCollectorC1EPS2_ T
_ZN6google8protobuf8compiler28SourceTreeDescriptorDatabase24ValidationErrorCollectorC2EPS2_ T
_ZN6google8protobuf8compiler28SourceTreeDescriptorDatabase24ValidationErrorCollectorD0Ev T
_ZN6google8protobuf8compiler28SourceTreeDescriptorDatabase24ValidationErrorCollectorD1Ev T
_ZN6google8protobuf8compiler28SourceTreeDescriptorDatabase24ValidationErrorCollectorD2Ev T
_ZN6google8protobuf8compiler28SourceTreeDescriptorDatabase27FindFileContainingExtensionERKNSt7__cxx1112basic_stringIcSt11char_traitsIcESaIcEEEiPNS0_19FileDescriptorProtoE T
_ZN6google8protobuf8compiler28SourceTreeDescriptorDatabaseC1EPNS1_10SourceTreeE T
_ZN6google8protobuf8compiler28SourceTreeDescriptorDatabaseC2EPNS1_10SourceTreeE T
_ZN6google8protobuf8compiler28SourceTreeDescriptorDatabaseD0Ev T
_ZN6google8protobuf8compiler28SourceTreeDescriptorDatabaseD1Ev T
_ZN6google8protobuf8compiler28SourceTreeDescriptorDatabaseD2Ev T
_ZN6google8protobuf8compiler6Parser10ParseLabelEPNS0_26FieldDescriptorProto_LabelEPKNS0_19FileDescriptorProtoE T
_ZN6google8protobuf8compiler6Parser10ParseOneofEPNS0_20OneofDescriptorProtoEPNS0_15DescriptorProtoEiRKNS2_16LocationRecorderES9_PKNS0_19FileDescriptorProtoE T
_ZN6google8protobuf8compiler6Parser10TryConsumeEPKc T
_ZN6google8protobuf8compiler6Parser11ParseExtendEPNS0_16RepeatedPtrFieldINS0_20FieldDescriptorProtoEEEPNS3_INS0_15DescriptorProtoEEERKNS2_16LocationRecorderEiSC_PKNS0_19FileDescriptorProtoE T
_ZN6google8protobuf8compiler6Parser11ParseImportEPNS0_16RepeatedPtrFieldINSt7__cxx1112basic_stringIcSt11char_traitsIcESaIcEEEEEPNS0_13RepeatedFieldIiEESE_RKNS2_16LocationRecorderEPKNS0_19FileDescriptorProtoE T
_ZN6google8protobuf8compiler6Parser11ParseOptionEPNS0_7MessageERKNS2_16LocationRecorderEPKNS0_19FileDescriptorProtoENS2_11OptionStyleE T
_ZN6google8protobuf8compiler6Parser12ParsePackageEPNS0_19FileDescriptorProtoERKNS2_16LocationRecorderEPKS3_ T
_ZN6google8protobuf8compiler6Parser12ValidateEnumEPKNS0_19EnumDescriptorProtoE T
_ZN6google8protobuf8compiler6Parser13ConsumeNumberEPdPKc T
_ZN6google8protobuf8compiler6Parser13ConsumeStringEPNSt7__cxx1112basic_stringIcSt11char_traitsIcESaIcEEEPKc T
_ZN6google8protobuf8compiler6Parser13ParseJsonNameEPNS0_20FieldDescriptorProtoERKNS2_16LocationRecorderEPKNS0_19FileDescriptorProtoE T
_ZN6google8protobuf8compiler6Parser13ParseReservedEPNS0_15DescriptorProtoERKNS2_16LocationRecorderE T
_ZN6google8protobuf8compiler6Parser13ParseReservedEPNS0_19EnumDescriptorProtoERKNS2_16LocationRecorderE T
_ZN6google8protobuf8compiler6Parser13SkipStatementEv T
_ZN6google8protobuf8compiler6Parser14ConsumeIntegerEPiPKc T
_ZN6google8protobuf8compiler6Parser14ParseEnumBlockEPNS0_19EnumDescriptorProtoERKNS2_16LocationRecorderEPKNS0_19FileDescriptorProtoE T
_ZN6google8protobuf8compiler6Parser15ParseExtensionsEPNS0_15DescriptorProtoERKNS2_16LocationRecorderEPKNS0_19FileDescriptorProtoE T
_ZN6google8protobuf8compiler6Parser15SkipRestOfBlockEv T
_ZN6google8protobuf8compiler6Parser16ConsumeInteger64EmPmPKc T
_ZN6google8protobuf8compiler6Parser16GenerateMapEntryERKNS2_8MapFieldEPNS0_20FieldDescriptorProtoEPNS0_16RepeatedPtrFieldINS0_15DescriptorProtoEEE T
_ZN6google8protobuf8compiler6Parser16LocationRecorder20RecordLegacyLocationEPKNS0_7MessageENS0_14DescriptorPool14ErrorCollector13ErrorLocationE T
_ZN6google8protobuf8compiler6Parser16LocationRecorder4InitERKS3_ T
_ZN6google8protobuf8compiler6Parser16LocationRecorder5EndAtERKNS0_2io9Tokenizer5TokenE T
_ZN6google8protobuf8compiler6Parser16LocationRecorder7AddPathEi T
_ZN6google8protobuf8compiler6Parser16LocationRecorder7StartAtERKNS0_2io9Tokenizer5TokenE T
_ZN6google8protobuf8compiler6Parser16LocationRecorder7StartAtERKS3_ T
_ZN6google8protobuf8compiler6Parser16LocationRecorderC1EPS2_ T
_ZN6google8protobuf8compiler6Parser16LocationRecorderC1ERKS3_ T
_ZN6google8protobuf8compiler6Parser16LocationRecorderC1ERKS3_i T
_ZN6google8protobuf8compiler6Parser16LocationRecorderC1ERKS3_ii T
_ZN6google8protobuf8compiler6Parser16LocationRecorderC2EPS2_ T
_ZN6google8protobuf8compiler6Parser16LocationRecorderC2ERKS3_ T
_ZN6google8protobuf8compiler6Parser16LocationRecorderC2ERKS3_i T
_ZN6google8protobuf8compiler6Parser16LocationRecorderC2ERKS3_ii T
_ZN6google8protobuf8compiler6Parser16LocationRecorderD1Ev T
_ZN6google8protobuf8compiler6Parser16LocationRecorderD2Ev T
_ZN6google8protobuf8compiler6Parser17ConsumeIdentifierEPNSt7__cxx1112basic_stringIcSt11char_traitsIcESaIcEEEPKc T
_ZN6google8protobuf8compiler6Parser17ParseEnumConstantEPNS0_24EnumValueDescriptorProtoERKNS2_16LocationRecorderEPKNS0_19FileDescriptorProtoE T
_ZN6google8protobuf8compiler6Parser17ParseFieldOptionsEPNS0_20FieldDescriptorProtoERKNS2_16LocationRecorderEPKNS0_19FileDescriptorProtoE T
_ZN6google8protobuf8compiler6Parser17ParseMessageBlockEPNS0_15DescriptorProtoERKNS2_16LocationRecorderEPKNS0_19FileDescriptorProtoE T
_ZN6google8protobuf8compiler6Parser17ParseMessageFieldEPNS0_20FieldDescriptorProtoEPNS0_16RepeatedPtrFieldINS0_15DescriptorProtoEEERKNS2_16LocationRecorderEiSB_PKNS0_19FileDescriptorProtoE T
_ZN6google8protobuf8compiler6Parser17ParseServiceBlockEPNS0_22ServiceDescriptorProtoERKNS2_16LocationRecorderEPKNS0_19FileDescriptorProtoE T
_ZN6google8protobuf8compiler6Parser18ParseEnumStatementEPNS0_19EnumDescriptorProtoERKNS2_16LocationRecorderEPKNS0_19FileDescriptorProtoE T
_ZN6google8protobuf8compiler6Parser18ParseMethodOptionsERKNS2_16LocationRecorderEPKNS0_19FileDescriptorProtoEiPNS0_7MessageE T
_ZN6google8protobuf8compiler6Parser18ParseReservedNamesEPNS0_15DescriptorProtoERKNS2_16LocationRecorderE T
_ZN6google8protobuf8compiler6Parser18ParseReservedNamesEPNS0_19EnumDescriptorProtoERKNS2_16LocationRecorderE T
_ZN6google8protobuf8compiler6Parser18ParseServiceMethodEPNS0_21MethodDescriptorProtoERKNS2_16LocationRecorderEPKNS0_19FileDescriptorProtoE T
_ZN6google8protobuf8compiler6Parser19ParseEnumDefinitionEPNS0_19EnumDescriptorProtoERKNS2_16LocationRecorderEPKNS0_19FileDescriptorProtoE T
_ZN6google8protobuf8compiler6Parser19ParseOptionNamePartEPNS0_19UninterpretedOptionERKNS2_16LocationRecorderEPKNS0_19FileDescriptorProtoE T
_ZN6google8protobuf8compiler6Parser20ConsumeSignedIntegerEPiPKc T
_ZN6google8protobuf8compiler6Parser20ParseReservedNumbersEPNS0_15DescriptorProtoERKNS2_16LocationRecorderE T
_ZN6google8protobuf8compiler6Parser20ParseReservedNumbersEPNS0_19EnumDescriptorProtoERKNS2_16LocationRecorderE T
_ZN6google8protobuf8compiler6Parser20ParseUserDefinedTypeEPNSt7__cxx1112basic_stringIcSt11char_traitsIcESaIcEEE T
_ZN6google8protobuf8compiler6Parser21ParseMessageStatementEPNS0_15DescriptorProtoERKNS2_16LocationRecorderEPKNS0_19FileDescriptorProtoE T
_ZN6google8protobuf8compiler6Parser21ParseServiceStatementEPNS0_22ServiceDescriptorProtoERKNS2_16LocationRecorderEPKNS0_19FileDescriptorProtoE T
_ZN6google8protobuf8compiler6Parser21ParseSyntaxIdentifierERKNS2_16LocationRecorderE T
_ZN6google8protobuf8compiler6Parser22ParseDefaultAssignmentEPNS0_20FieldDescriptorProtoERKNS2_16LocationRecorderEPKNS0_19FileDescriptorProtoE T
_ZN6google8protobuf8compiler6Parser22ParseMessageDefinitionEPNS0_15DescriptorProtoERKNS2_16LocationRecorderEPKNS0_19FileDescriptorProtoE T
_ZN6google8protobuf8compiler6Parser22ParseServiceDefinitionEPNS0_22ServiceDescriptorProtoERKNS2_16LocationRecorderEPKNS0_19FileDescriptorProtoE T
_ZN6google8protobuf8compiler6Parser22ParseTopLevelStatementEPNS0_19FileDescriptorProtoERKNS2_16LocationRecorderE T
_ZN6google8protobuf8compiler6Parser23ConsumeEndOfDeclarationEPKcPKNS2_16LocationRecorderE T
_ZN6google8protobuf8compiler6Parser23ParseUninterpretedBlockEPNSt7__cxx1112basic_stringIcSt11char_traitsIcESaIcEEE T
_ZN6google8protobuf8compiler6Parser24ParseEnumConstantOptionsEPNS0_24EnumValueDescriptorProtoERKNS2_16LocationRecorderEPKNS0_19FileDescriptorProtoE T
_ZN6google8protobuf8compiler6Parser24ParseMessageFieldNoLabelEPNS0_20FieldDescriptorProtoEPNS0_16RepeatedPtrFieldINS0_15DescriptorProtoEEERKNS2_16LocationRecorderEiSB_PKNS0_19FileDescriptorProtoE T
_ZN6google8protobuf8compiler6Parser26TryConsumeEndOfDeclarationEPKcPKNS2_16LocationRecorderE T
_ZN6google8protobuf8compiler6Parser5ParseEPNS0_2io9TokenizerEPNS0_19FileDescriptorProtoE T
_ZN6google8protobuf8compiler6Parser7ConsumeEPKc T
_ZN6google8protobuf8compiler6Parser7ConsumeEPKcS4_ T
_ZN6google8protobuf8compiler6Parser8AddErrorERKNSt7__cxx1112basic_stringIcSt11char_traitsIcESaIcEEE T
_ZN6google8protobuf8compiler6Parser8AddErrorEiiRKNSt7__cxx1112basic_stringIcSt11char_traitsIcESaIcEEE T
_ZN6google8protobuf8compiler6Parser9ParseTypeEPNS0_25FieldDescriptorProto_TypeEPNSt7__cxx1112basic_stringIcSt11char_traitsIcESaIcEEE T
_ZN6google8protobuf8compiler6ParserC1Ev T
_ZN6google8protobuf8compiler6ParserC2Ev T
_ZN6google8protobuf8compiler6ParserD1Ev T
_ZN6google8protobuf8compiler6ParserD2Ev T
_ZN6google8protobuf8compiler8Importer24AddUnusedImportTrackFileERKNSt7__cxx1112basic_stringIcSt11char_traitsIcESaIcEEE T
_ZN6google8protobuf8compiler8Importer27ClearUnusedImportTrackFilesEv T
_ZN6google8protobuf8compiler8Importer6ImportERKNSt7__cxx1112basic_stringIcSt11char_traitsIcESaIcEEE T
_ZN6google8protobuf8compiler8ImporterC1EPNS1_10SourceTreeEPNS1_23MultiFileErrorCollectorE T
_ZN6google8protobuf8compiler8ImporterC2EPNS1_10SourceTreeEPNS1_23MultiFileErrorCollectorE T
_ZN6google8protobuf8compiler8ImporterD1Ev T
_ZN6google8protobuf8compiler8ImporterD2Ev T
_ZN6google8protobuf8hash_mapINSt7__cxx1112basic_stringIcSt11char_traitsIcESaIcEEENS0_25FieldDescriptorProto_TypeENS0_4hashIS7_EESt8equal_toIS7_ESaISt4pairIKS7_S8_EEED1Ev W
_ZN6google8protobuf8hash_mapINSt7__cxx1112basic_stringIcSt11char_traitsIcESaIcEEENS0_25FieldDescriptorProto_TypeENS0_4hashIS7_EESt8equal_toIS7_ESaISt4pairIKS7_S8_EEED2Ev W
_ZN6google8protobuf8internal10NameOfEnumB5cxx11EPKNS0_14EnumDescriptorEi T
_ZN6google8protobuf8internal10WireFormat11SkipMessageEPNS0_2io16CodedInputStreamEPNS0_15UnknownFieldSetE T
_ZN6google8protobuf8internal10WireFormat13FieldByteSizeEPKNS0_15FieldDescriptorERKNS0_7MessageE T
_ZN6google8protobuf8internal10WireFormat18ParseAndMergeFieldEjPKNS0_15FieldDescriptorEPNS0_7MessageEPNS0_2io16CodedInputStreamE T
_ZN6google8protobuf8internal10WireFormat19SkipMessageSetFieldEPNS0_2io16CodedInputStreamEjPNS0_15UnknownFieldSetE T
_ZN6google8protobuf8internal10WireFormat20ParseAndMergePartialEPNS0_2io16CodedInputStreamEPNS0_7MessageE T
_ZN6google8protobuf8internal10WireFormat21FieldDataOnlyByteSizeEPKNS0_15FieldDescriptorERKNS0_7MessageE T
_ZN6google8protobuf8internal10WireFormat22MessageSetItemByteSizeEPKNS0_15FieldDescriptorERKNS0_7MessageE T
_ZN6google8protobuf8internal10WireFormat22SerializeUnknownFieldsERKNS0_15UnknownFieldSetEPNS0_2io17CodedOutputStreamE T
_ZN6google8protobuf8internal10WireFormat24ComputeUnknownFieldsSizeERKNS0_15UnknownFieldSetE T
_ZN6google8protobuf8internal10WireFormat24SerializeWithCachedSizesERKNS0_7MessageEiPNS0_2io17CodedOutputStreamE T
_ZN6google8protobuf8internal10WireFormat27ParseAndMergeMessageSetItemEPNS0_2io16CodedInputStreamEPNS0_7MessageE T
_ZN6google8protobuf8internal10WireFormat28ParseAndMergeMessageSetFieldEjPKNS0_15FieldDescriptorEPNS0_7MessageEPNS0_2io16CodedInputStreamE T
_ZN6google8protobuf8internal10WireFormat29SerializeFieldWithCachedSizesEPKNS0_15FieldDescriptorERKNS0_7MessageEPNS0_2io17CodedOutputStreamE T
_ZN6google8protobuf8internal10WireFormat29SerializeUnknownFieldsToArrayERKNS0_15UnknownFieldSetEPh T
_ZN6google8protobuf8internal10WireFormat30ReadPackedEnumPreserveUnknownsEPNS0_2io16CodedInputStreamEjPFbiEPNS0_15UnknownFieldSetEPNS0_13RepeatedFieldIiEE T
_ZN6google8protobuf8internal10WireFormat31SerializeUnknownMessageSetItemsERKNS0_15UnknownFieldSetEPNS0_2io17CodedOutputStreamE T
_ZN6google8protobuf8internal10WireFormat33ComputeUnknownMessageSetItemsSizeERKNS0_15UnknownFieldSetE T
_ZN6google8protobuf8internal10WireFormat38SerializeMessageSetItemWithCachedSizesEPKNS0_15FieldDescriptorERKNS0_7MessageEPNS0_2io17CodedOutputStreamE T
_ZN6google8protobuf8internal10WireFormat38SerializeUnknownMessageSetItemsToArrayERKNS0_15UnknownFieldSetEPh T
_ZN6google8protobuf8internal10WireFormat8ByteSizeERKNS0_7MessageE T
_ZN6google8protobuf8internal10WireFormat9SkipFieldEPNS0_2io16CodedInputStreamEjPNS0_15UnknownFieldSetE T
_ZN6google8protobuf8internal10scoped_ptrINS0_15UnknownFieldSetEED1Ev W
_ZN6google8protobuf8internal10scoped_ptrINS0_15UnknownFieldSetEED2Ev W
_ZN6google8protobuf8internal10scoped_ptrINS0_21DynamicMessageFactory12PrototypeMapEED1Ev W
_ZN6google8protobuf8internal10scoped_ptrINS0_21DynamicMessageFactory12PrototypeMapEED2Ev W
_ZN6google8protobuf8internal10scoped_ptrINS0_2io17CodedOutputStreamEED1Ev W
_ZN6google8protobuf8internal10scoped_ptrINS0_2io17CodedOutputStreamEED2Ev W
_ZN6google8protobuf8internal10scoped_ptrINS0_4util9converter23ProtoStreamObjectWriter9AnyWriterEED1Ev W
_ZN6google8protobuf8internal10scoped_ptrINS0_4util9converter23ProtoStreamObjectWriter9AnyWriterEED2Ev W
_ZN6google8protobuf8internal10scoped_ptrINS0_8hash_setINSt7__cxx1112basic_stringIcSt11char_traitsIcESaIcEEENS0_4hashIS9_EESt8equal_toIS9_EEEED1Ev W
_ZN6google8protobuf8internal10scoped_ptrINS0_8hash_setINSt7__cxx1112basic_stringIcSt11char_traitsIcESaIcEEENS0_4hashIS9_EESt8equal_toIS9_EEEED2Ev W
_ZN6google8protobuf8internal11AnyMetadata8PackFromERKNS0_7MessageE T
_ZN6google8protobuf8internal11AnyMetadata8PackFromERKNS0_7MessageERKNSt7__cxx1112basic_stringIcSt11char_traitsIcESaIcEEE T
_ZN6google8protobuf8internal11AnyMetadataC1EPNS1_14ArenaStringPtrES4_ T
_ZN6google8protobuf8internal11AnyMetadataC2EPNS1_14ArenaStringPtrES4_ T
_ZN6google8protobuf8internal12ExtensionSet10AddMessageEPKNS0_15FieldDescriptorEPNS0_14MessageFactoryE T
_ZN6google8protobuf8internal12ExtensionSet10ParseFieldEjPNS0_2io16CodedInputStreamEPKNS0_7MessageEPNS0_15UnknownFieldSetE T
_ZN6google8protobuf8internal12ExtensionSet14MutableMessageEPKNS0_15FieldDescriptorEPNS0_14MessageFactoryE T
_ZN6google8protobuf8internal12ExtensionSet14ReleaseMessageEPKNS0_15FieldDescriptorEPNS0_14MessageFactoryE T
_ZN6google8protobuf8internal12ExtensionSet15ParseMessageSetEPNS0_2io16CodedInputStreamEPKNS0_11MessageLiteE T
_ZN6google8protobuf8internal12ExtensionSet15ParseMessageSetEPNS0_2io16CodedInputStreamEPKNS0_7MessageEPNS0_15UnknownFieldSetE T
_ZN6google8protobuf8internal12ExtensionSet15ParseMessageSetEPNS0_2io16CodedInputStreamEPNS1_15ExtensionFinderEPNS1_22MessageSetFieldSkipperE T
_ZN6google8protobuf8internal12ExtensionSet19AddAllocatedMessageEPKNS0_15FieldDescriptorEPNS0_11MessageLiteE T
_ZN6google8protobuf8internal12ExtensionSet19ParseMessageSetItemEPNS0_2io16CodedInputStreamEPNS1_15ExtensionFinderEPNS1_22MessageSetFieldSkipperE T
_ZN6google8protobuf8internal12ExtensionSet21ParseFieldMaybeLazilyEiiPNS0_2io16CodedInputStreamEPNS1_15ExtensionFinderEPNS1_22MessageSetFieldSkipperE T
_ZN6google8protobuf8internal12ExtensionSet25MaybeNewRepeatedExtensionEPKNS0_15FieldDescriptorE T
_ZN6google8protobuf8internal12ExtensionSet25UnsafeArenaReleaseMessageEPKNS0_15FieldDescriptorEPNS0_14MessageFactoryE T
_ZN6google8protobuf8internal12MapEntryImplINS0_27Struct_FieldsEntry_DoNotUseENS0_7MessageENSt7__cxx1112basic_stringIcSt11char_traitsIcESaIcEEENS0_5ValueELNS1_14WireFormatLite9FieldTypeE9ELSD_11ELi0EE15MapEntryWrapperD0Ev W
_ZN6google8protobuf8internal12MapEntryImplINS0_27Struct_FieldsEntry_DoNotUseENS0_7MessageENSt7__cxx1112basic_stringIcSt11char_traitsIcESaIcEEENS0_5ValueELNS1_14WireFormatLite9FieldTypeE9ELSD_11ELi0EE15MapEntryWrapperD1Ev W
_ZN6google8protobuf8internal12MapEntryImplINS0_27Struct_FieldsEntry_DoNotUseENS0_7MessageENSt7__cxx1112basic_stringIcSt11char_traitsIcESaIcEEENS0_5ValueELNS1_14WireFormatLite9FieldTypeE9ELSD_11ELi0EE15MapEntryWrapperD2Ev W
_ZN6google8protobuf8internal12MapEntryImplINS0_27Struct_FieldsEntry_DoNotUseENS0_7MessageENSt7__cxx1112basic_stringIcSt11char_traitsIcESaIcEEENS0_5ValueELNS1_14WireFormatLite9FieldTypeE9ELSD_11ELi0EE21CheckTypeAndMergeFromERKNS0_11MessageLiteE W
_ZN6google8protobuf8internal12MapEntryImplINS0_27Struct_FieldsEntry_DoNotUseENS0_7MessageENSt7__cxx1112basic_stringIcSt11char_traitsIcESaIcEEENS0_5ValueELNS1_14WireFormatLite9FieldTypeE9ELSD_11ELi0EE27MergePartialFromCodedStreamEPNS0_2io16CodedInputStreamE W
_ZN6google8protobuf8internal12MapEntryImplINS0_27Struct_FieldsEntry_DoNotUseENS0_7MessageENSt7__cxx1112basic_stringIcSt11char_traitsIcESaIcEEENS0_5ValueELNS1_14WireFormatLite9FieldTypeE9ELSD_11ELi0EE5ClearEv W
_ZN6google8protobuf8internal12MapEntryImplINS0_27Struct_FieldsEntry_DoNotUseENS0_7MessageENSt7__cxx1112basic_stringIcSt11char_traitsIcESaIcEEENS0_5ValueELNS1_14WireFormatLite9FieldTypeE9ELSD_11ELi0EE6ParserINS1_8MapFieldIS3_SA_SB_LSD_9ELSD_11ELi0EEENS0_3MapISA_SB_EEE27MergePartialFromCodedStreamEPNS0_2io16CodedInputStreamE W
_ZN6google8protobuf8internal12MapEntryImplINS0_27Struct_FieldsEntry_DoNotUseENS0_7MessageENSt7__cxx1112basic_stringIcSt11char_traitsIcESaIcEEENS0_5ValueELNS1_14WireFormatLite9FieldTypeE9ELSD_11ELi0EED0Ev W
_ZN6google8protobuf8internal12MapEntryImplINS0_27Struct_FieldsEntry_DoNotUseENS0_7MessageENSt7__cxx1112basic_stringIcSt11char_traitsIcESaIcEEENS0_5ValueELNS1_14WireFormatLite9FieldTypeE9ELSD_11ELi0EED1Ev W
_ZN6google8protobuf8internal12MapEntryImplINS0_27Struct_FieldsEntry_DoNotUseENS0_7MessageENSt7__cxx1112basic_stringIcSt11char_traitsIcESaIcEEENS0_5ValueELNS1_14WireFormatLite9FieldTypeE9ELSD_11ELi0EED2Ev W
_ZN6google8protobuf8internal12MapFieldBase11SetMapDirtyEv T
_ZN6google8protobuf8internal12MapFieldBase16SetRepeatedDirtyEv T
_ZN6google8protobuf8internal12MapFieldBase20MutableRepeatedFieldEv T
_ZN6google8protobuf8internal12MapFieldBaseD0Ev T
_ZN6google8protobuf8internal12MapFieldBaseD1Ev T
_ZN6google8protobuf8internal12MapFieldBaseD2Ev T
_ZN6google8protobuf8internal13ReflectionOps13IsInitializedERKNS0_7MessageE T
_ZN6google8protobuf8internal13ReflectionOps20DiscardUnknownFieldsEPNS0_7MessageE T
_ZN6google8protobuf8internal13ReflectionOps24FindInitializationErrorsERKNS0_7MessageERKNSt7__cxx1112basic_stringIcSt11char_traitsIcESaIcEEEPSt6vectorISB_SaISB_EE T
_ZN6google8protobuf8internal13ReflectionOps4CopyERKNS0_7MessageEPS3_ T
_ZN6google8protobuf8internal13ReflectionOps5ClearEPNS0_7MessageE T
_ZN6google8protobuf8internal13ReflectionOps5MergeERKNS0_7MessageEPS3_ T
_ZN6google8protobuf8internal14LazyDescriptor10OnceStaticEPS2_ T
_ZN6google8protobuf8internal14LazyDescriptor12OnceInternalEv T
_ZN6google8protobuf8internal14LazyDescriptor3SetEPKNS0_10DescriptorE T
_ZN6google8protobuf8internal14LazyDescriptor4OnceEv T
_ZN6google8protobuf8internal14LazyDescriptor7SetLazyERKNSt7__cxx1112basic_stringIcSt11char_traitsIcESaIcEEEPKNS0_14FileDescriptorE T
_ZN6google8protobuf8internal14ParseNamedEnumEPKNS0_14EnumDescriptorERKNSt7__cxx1112basic_stringIcSt11char_traitsIcESaIcEEEPi T
_ZN6google8protobuf8internal14WireFormatLite11ReadMessageEPNS0_2io16CodedInputStreamEPNS0_11MessageLiteE W
_ZN6google8protobuf8internal14WireFormatLite13ReadPrimitiveIiLNS2_9FieldTypeE17EEEbPNS0_2io16CodedInputStreamEPT_ W
_ZN6google8protobuf8internal14WireFormatLite13ReadPrimitiveIlLNS2_9FieldTypeE18EEEbPNS0_2io16CodedInputStreamEPT_ W
_ZN6google8protobuf8internal14WireFormatLite27ReadPackedPrimitiveNoInlineIiLNS2_9FieldTypeE5EEEbPNS0_2io16CodedInputStreamEPNS0_13RepeatedFieldIT_EE W
_ZN6google8protobuf8internal14WireFormatLite29ReadRepeatedPrimitiveNoInlineIiLNS2_9FieldTypeE5EEEbijPNS0_2io16CodedInputStreamEPNS0_13RepeatedFieldIT_EE W
_ZN6google8protobuf8internal15ClearOneofFieldERKNS1_15ParseTableFieldEPNS0_5ArenaEPNS0_11MessageLiteE W
_ZN6google8protobuf8internal15DynamicMapField10MutableMapEv T
_ZN6google8protobuf8internal15DynamicMapField14DeleteMapValueERKNS0_6MapKeyE T
_ZN6google8protobuf8internal15DynamicMapField22InsertOrLookupMapValueERKNS0_6MapKeyEPNS0_11MapValueRefE T
_ZN6google8protobuf8internal15DynamicMapFieldC1EPKNS0_7MessageE T
_ZN6google8protobuf8internal15DynamicMapFieldC1EPKNS0_7MessageEPNS0_5ArenaE T
_ZN6google8protobuf8internal15DynamicMapFieldC2EPKNS0_7MessageE T
_ZN6google8protobuf8internal15DynamicMapFieldC2EPKNS0_7MessageEPNS0_5ArenaE T
_ZN6google8protobuf8internal15DynamicMapFieldD0Ev T
_ZN6google8protobuf8internal15DynamicMapFieldD1Ev T
_ZN6google8protobuf8internal15DynamicMapFieldD2Ev T
_ZN6google8protobuf8internal15ParseAnyTypeUrlERKNSt7__cxx1112basic_stringIcSt11char_traitsIcESaIcEEEPS7_ T
_ZN6google8protobuf8internal16FunctionClosure1IPKNS0_14FileDescriptorEE3RunEv W
_ZN6google8protobuf8internal16FunctionClosure1IPKNS0_14FileDescriptorEED0Ev W
_ZN6google8protobuf8internal16FunctionClosure1IPKNS0_14FileDescriptorEED1Ev W
_ZN6google8protobuf8internal16FunctionClosure1IPKNS0_14FileDescriptorEED2Ev W
_ZN6google8protobuf8internal16FunctionClosure1IPKNS0_15FieldDescriptorEE3RunEv W
_ZN6google8protobuf8internal16FunctionClosure1IPKNS0_15FieldDescriptorEED0Ev W
_ZN6google8protobuf8internal16FunctionClosure1IPKNS0_15FieldDescriptorEED1Ev W
_ZN6google8protobuf8internal16FunctionClosure1IPKNS0_15FieldDescriptorEED2Ev W
_ZN6google8protobuf8internal16FunctionClosure1IPKNS0_20FileDescriptorTablesEE3RunEv W
_ZN6google8protobuf8internal16FunctionClosure1IPKNS0_20FileDescriptorTablesEED0Ev W
_ZN6google8protobuf8internal16FunctionClosure1IPKNS0_20FileDescriptorTablesEED1Ev W
_ZN6google8protobuf8internal16FunctionClosure1IPKNS0_20FileDescriptorTablesEED2Ev W
_ZN6google8protobuf8internal16FunctionClosure1IPNS1_14LazyDescriptorEE3RunEv W
_ZN6google8protobuf8internal16FunctionClosure1IPNS1_14LazyDescriptorEED0Ev W
_ZN6google8protobuf8internal16FunctionClosure1IPNS1_14LazyDescriptorEED1Ev W
_ZN6google8protobuf8internal16FunctionClosure1IPNS1_14LazyDescriptorEED2Ev W
_ZN6google8protobuf8internal16FunctionClosure1IPSt4pairIPKNS0_20FileDescriptorTablesEPKNS0_14SourceCodeInfoEEE3RunEv W
_ZN6google8protobuf8internal16FunctionClosure1IPSt4pairIPKNS0_20FileDescriptorTablesEPKNS0_14SourceCodeInfoEEED0Ev W
_ZN6google8protobuf8internal16FunctionClosure1IPSt4pairIPKNS0_20FileDescriptorTablesEPKNS0_14SourceCodeInfoEEED1Ev W
_ZN6google8protobuf8internal16FunctionClosure1IPSt4pairIPKNS0_20FileDescriptorTablesEPKNS0_14SourceCodeInfoEEED2Ev W
_ZN6google8protobuf8internal16MapFieldAccessorD0Ev W
_ZN6google8protobuf8internal16MapFieldAccessorD1Ev W
_ZN6google8protobuf8internal16MapFieldAccessorD2Ev W
_ZN6google8protobuf8internal16RegisterAllTypesEPKNS0_8MetadataEi T
_ZN6google8protobuf8internal16kAnyFullTypeNameE R
_ZN6google8protobuf8internal17AssignDescriptorsERKNSt7__cxx1112basic_stringIcSt11char_traitsIcESaIcEEEPKNS1_15MigrationSchemaEPKPKNS0_7MessageEPKjPNS0_14MessageFactoryEPNS0_8MetadataEPPKNS0_14EnumDescriptorEPPKNS0_17ServiceDescriptorE T
_ZN6google8protobuf8internal18GenericTypeHandlerINS0_15DescriptorProtoEE5MergeERKS3_PS3_ W
_ZN6google8protobuf8internal18GenericTypeHandlerINS0_19EnumDescriptorProtoEE5MergeERKS3_PS3_ W
_ZN6google8protobuf8internal18GenericTypeHandlerINS0_19FileDescriptorProtoEE5MergeERKS3_PS3_ W
_ZN6google8protobuf8internal18GenericTypeHandlerINS0_19UninterpretedOptionEE5MergeERKS3_PS3_ W
_ZN6google8protobuf8internal18GenericTypeHandlerINS0_20FieldDescriptorProtoEE5MergeERKS3_PS3_ W
_ZN6google8protobuf8internal18GenericTypeHandlerINS0_20OneofDescriptorProtoEE5MergeERKS3_PS3_ W
_ZN6google8protobuf8internal18GenericTypeHandlerINS0_21MethodDescriptorProtoEE5MergeERKS3_PS3_ W
_ZN6google8protobuf8internal18GenericTypeHandlerINS0_22ServiceDescriptorProtoEE5MergeERKS3_PS3_ W
_ZN6google8protobuf8internal18GenericTypeHandlerINS0_23SourceCodeInfo_LocationEE5MergeERKS3_PS3_ W
_ZN6google8protobuf8internal18GenericTypeHandlerINS0_24EnumValueDescriptorProtoEE5MergeERKS3_PS3_ W
_ZN6google8protobuf8internal18GenericTypeHandlerINS0_27Struct_FieldsEntry_DoNotUseEE5MergeERKS3_PS3_ W
_ZN6google8protobuf8internal18GenericTypeHandlerINS0_28GeneratedCodeInfo_AnnotationEE5MergeERKS3_PS3_ W
_ZN6google8protobuf8internal18GenericTypeHandlerINS0_28UninterpretedOption_NamePartEE5MergeERKS3_PS3_ W
_ZN6google8protobuf8internal18GenericTypeHandlerINS0_29DescriptorProto_ReservedRangeEE5MergeERKS3_PS3_ W
_ZN6google8protobuf8internal18GenericTypeHandlerINS0_30DescriptorProto_ExtensionRangeEE5MergeERKS3_PS3_ W
_ZN6google8protobuf8internal18GenericTypeHandlerINS0_37EnumDescriptorProto_EnumReservedRangeEE5MergeERKS3_PS3_ W
_ZN6google8protobuf8internal18GenericTypeHandlerINS0_5FieldEE5MergeERKS3_PS3_ W
_ZN6google8protobuf8internal18GenericTypeHandlerINS0_5MixinEE5MergeERKS3_PS3_ W
_ZN6google8protobuf8internal18GenericTypeHandlerINS0_5ValueEE5MergeERKS3_PS3_ W
_ZN6google8protobuf8internal18GenericTypeHandlerINS0_6MethodEE5MergeERKS3_PS3_ W
_ZN6google8protobuf8internal18GenericTypeHandlerINS0_6OptionEE5MergeERKS3_PS3_ W
_ZN6google8protobuf8internal18GenericTypeHandlerINS0_7MessageEE16NewFromPrototypeEPKS3_PNS0_5ArenaE T
_ZN6google8protobuf8internal18GenericTypeHandlerINS0_7MessageEE20GetMaybeArenaPointerEPS3_ T
_ZN6google8protobuf8internal18GenericTypeHandlerINS0_7MessageEE5MergeERKS3_PS3_ W
_ZN6google8protobuf8internal18GenericTypeHandlerINS0_7MessageEE8GetArenaEPS3_ T
_ZN6google8protobuf8internal18GenericTypeHandlerINS0_9EnumValueEE5MergeERKS3_PS3_ W
_ZN6google8protobuf8internal19arena_delete_objectINS0_7MessageEEEvPv W
_ZN6google8protobuf8internal19arena_delete_objectINSt7__cxx1112basic_stringIcSt11char_traitsIcESaIcEEEEEvPv W
_ZN6google8protobuf8internal20RepeatedPtrFieldBase12SwapFallbackINS0_16RepeatedPtrFieldINS0_7MessageEE11TypeHandlerEEEvPS2_ W
_ZN6google8protobuf8internal20RepeatedPtrFieldBase12SwapFallbackINS0_16RepeatedPtrFieldINSt7__cxx1112basic_stringIcSt11char_traitsIcESaIcEEEE11TypeHandlerEEEvPS2_ W
_ZN6google8protobuf8internal20RepeatedPtrFieldBase12SwapFallbackINS1_18GenericTypeHandlerINS0_7MessageEEEEEvPS2_ W
_ZN6google8protobuf8internal20RepeatedPtrFieldBase12SwapFallbackINS1_18GenericTypeHandlerINSt7__cxx1112basic_stringIcSt11char_traitsIcESaIcEEEEEEEvPS2_ W
_ZN6google8protobuf8internal20RepeatedPtrFieldBase18MergeFromInnerLoopINS0_16RepeatedPtrFieldINS0_15DescriptorProtoEE11TypeHandlerEEEvPPvS9_ii W
_ZN6google8protobuf8internal20RepeatedPtrFieldBase18MergeFromInnerLoopINS0_16RepeatedPtrFieldINS0_19EnumDescriptorProtoEE11TypeHandlerEEEvPPvS9_ii W
_ZN6google8protobuf8internal20RepeatedPtrFieldBase18MergeFromInnerLoopINS0_16RepeatedPtrFieldINS0_19FileDescriptorProtoEE11TypeHandlerEEEvPPvS9_ii W
_ZN6google8protobuf8internal20RepeatedPtrFieldBase18MergeFromInnerLoopINS0_16RepeatedPtrFieldINS0_19UninterpretedOptionEE11TypeHandlerEEEvPPvS9_ii W
_ZN6google8protobuf8internal20RepeatedPtrFieldBase18MergeFromInnerLoopINS0_16RepeatedPtrFieldINS0_20FieldDescriptorProtoEE11TypeHandlerEEEvPPvS9_ii W
_ZN6google8protobuf8internal20RepeatedPtrFieldBase18MergeFromInnerLoopINS0_16RepeatedPtrFieldINS0_20OneofDescriptorProtoEE11TypeHandlerEEEvPPvS9_ii W
_ZN6google8protobuf8internal20RepeatedPtrFieldBase18MergeFromInnerLoopINS0_16RepeatedPtrFieldINS0_21MethodDescriptorProtoEE11TypeHandlerEEEvPPvS9_ii W
_ZN6google8protobuf8internal20RepeatedPtrFieldBase18MergeFromInnerLoopINS0_16RepeatedPtrFieldINS0_22ServiceDescriptorProtoEE11TypeHandlerEEEvPPvS9_ii W
_ZN6google8protobuf8internal20RepeatedPtrFieldBase18MergeFromInnerLoopINS0_16RepeatedPtrFieldINS0_23SourceCodeInfo_LocationEE11TypeHandlerEEEvPPvS9_ii W
_ZN6google8protobuf8internal20RepeatedPtrFieldBase18MergeFromInnerLoopINS0_16RepeatedPtrFieldINS0_24EnumValueDescriptorProtoEE11TypeHandlerEEEvPPvS9_ii W
_ZN6google8protobuf8internal20RepeatedPtrFieldBase18MergeFromInnerLoopINS0_16RepeatedPtrFieldINS0_28GeneratedCodeInfo_AnnotationEE11TypeHandlerEEEvPPvS9_ii W
_ZN6google8protobuf8internal20RepeatedPtrFieldBase18MergeFromInnerLoopINS0_16RepeatedPtrFieldINS0_28UninterpretedOption_NamePartEE11TypeHandlerEEEvPPvS9_ii W
_ZN6google8protobuf8internal20RepeatedPtrFieldBase18MergeFromInnerLoopINS0_16RepeatedPtrFieldINS0_29DescriptorProto_ReservedRangeEE11TypeHandlerEEEvPPvS9_ii W
_ZN6google8protobuf8internal20RepeatedPtrFieldBase18MergeFromInnerLoopINS0_16RepeatedPtrFieldINS0_30DescriptorProto_ExtensionRangeEE11TypeHandlerEEEvPPvS9_ii W
_ZN6google8protobuf8internal20RepeatedPtrFieldBase18MergeFromInnerLoopINS0_16RepeatedPtrFieldINS0_37EnumDescriptorProto_EnumReservedRangeEE11TypeHandlerEEEvPPvS9_ii W
_ZN6google8protobuf8internal20RepeatedPtrFieldBase18MergeFromInnerLoopINS0_16RepeatedPtrFieldINS0_5FieldEE11TypeHandlerEEEvPPvS9_ii W
_ZN6google8protobuf8internal20RepeatedPtrFieldBase18MergeFromInnerLoopINS0_16RepeatedPtrFieldINS0_5MixinEE11TypeHandlerEEEvPPvS9_ii W
_ZN6google8protobuf8internal20RepeatedPtrFieldBase18MergeFromInnerLoopINS0_16RepeatedPtrFieldINS0_5ValueEE11TypeHandlerEEEvPPvS9_ii W
_ZN6google8protobuf8internal20RepeatedPtrFieldBase18MergeFromInnerLoopINS0_16RepeatedPtrFieldINS0_6MethodEE11TypeHandlerEEEvPPvS9_ii W
_ZN6google8protobuf8internal20RepeatedPtrFieldBase18MergeFromInnerLoopINS0_16RepeatedPtrFieldINS0_6OptionEE11TypeHandlerEEEvPPvS9_ii W
_ZN6google8protobuf8internal20RepeatedPtrFieldBase18MergeFromInnerLoopINS0_16RepeatedPtrFieldINS0_7MessageEE11TypeHandlerEEEvPPvS9_ii W
_ZN6google8protobuf8internal20RepeatedPtrFieldBase18MergeFromInnerLoopINS0_16RepeatedPtrFieldINS0_9EnumValueEE11TypeHandlerEEEvPPvS9_ii W
_ZN6google8protobuf8internal20RepeatedPtrFieldBase18MergeFromInnerLoopINS0_16RepeatedPtrFieldINSt7__cxx1112basic_stringIcSt11char_traitsIcESaIcEEEE11TypeHandlerEEEvPPvSE_ii W
_ZN6google8protobuf8internal20RepeatedPtrFieldBase18MergeFromInnerLoopINS1_18GenericTypeHandlerINS0_7MessageEEEEEvPPvS8_ii W
_ZN6google8protobuf8internal20RepeatedPtrFieldBase18MergeFromInnerLoopINS1_18GenericTypeHandlerINSt7__cxx1112basic_stringIcSt11char_traitsIcESaIcEEEEEEEvPPvSD_ii W
_ZN6google8protobuf8internal20RepeatedPtrFieldBase20AddAllocatedInternalINS0_16RepeatedPtrFieldINS0_11MessageLiteEE11TypeHandlerEEEvPNT_4TypeENS1_17integral_constantIbLb0EEE W
_ZN6google8protobuf8internal20RepeatedPtrFieldBase24AddAllocatedSlowWithCopyINS0_16RepeatedPtrFieldINS0_27Struct_FieldsEntry_DoNotUseEE11TypeHandlerEEEvPNT_4TypeEPNS0_5ArenaESC_ W
_ZN6google8protobuf8internal20RepeatedPtrFieldBase24AddAllocatedSlowWithCopyINS0_16RepeatedPtrFieldINS0_7MessageEE11TypeHandlerEEEvPNT_4TypeEPNS0_5ArenaESC_ W
_ZN6google8protobuf8internal20RepeatedPtrFieldBase24AddAllocatedSlowWithCopyINS0_16RepeatedPtrFieldINSt7__cxx1112basic_stringIcSt11char_traitsIcESaIcEEEE11TypeHandlerEEEvPNT_4TypeEPNS0_5ArenaESH_ W
_ZN6google8protobuf8internal20RepeatedPtrFieldBase24AddAllocatedSlowWithCopyINS1_18GenericTypeHandlerINS0_7MessageEEEEEvPNT_4TypeEPNS0_5ArenaESB_ W
_ZN6google8protobuf8internal20RepeatedPtrFieldBase7DestroyINS0_16RepeatedPtrFieldINS0_15DescriptorProtoEE11TypeHandlerEEEvv W
_ZN6google8protobuf8internal20RepeatedPtrFieldBase7DestroyINS0_16RepeatedPtrFieldINS0_19EnumDescriptorProtoEE11TypeHandlerEEEvv W
_ZN6google8protobuf8internal20RepeatedPtrFieldBase7DestroyINS0_16RepeatedPtrFieldINS0_19FileDescriptorProtoEE11TypeHandlerEEEvv W
_ZN6google8protobuf8internal20RepeatedPtrFieldBase7DestroyINS0_16RepeatedPtrFieldINS0_19UninterpretedOptionEE11TypeHandlerEEEvv W
_ZN6google8protobuf8internal20RepeatedPtrFieldBase7DestroyINS0_16RepeatedPtrFieldINS0_20FieldDescriptorProtoEE11TypeHandlerEEEvv W
_ZN6google8protobuf8internal20RepeatedPtrFieldBase7DestroyINS0_16RepeatedPtrFieldINS0_20OneofDescriptorProtoEE11TypeHandlerEEEvv W
_ZN6google8protobuf8internal20RepeatedPtrFieldBase7DestroyINS0_16RepeatedPtrFieldINS0_21MethodDescriptorProtoEE11TypeHandlerEEEvv W
_ZN6google8protobuf8internal20RepeatedPtrFieldBase7DestroyINS0_16RepeatedPtrFieldINS0_22ServiceDescriptorProtoEE11TypeHandlerEEEvv W
_ZN6google8protobuf8internal20RepeatedPtrFieldBase7DestroyINS0_16RepeatedPtrFieldINS0_23SourceCodeInfo_LocationEE11TypeHandlerEEEvv W
_ZN6google8protobuf8internal20RepeatedPtrFieldBase7DestroyINS0_16RepeatedPtrFieldINS0_24EnumValueDescriptorProtoEE11TypeHandlerEEEvv W
_ZN6google8protobuf8internal20RepeatedPtrFieldBase7DestroyINS0_16RepeatedPtrFieldINS0_28GeneratedCodeInfo_AnnotationEE11TypeHandlerEEEvv W
_ZN6google8protobuf8internal20RepeatedPtrFieldBase7DestroyINS0_16RepeatedPtrFieldINS0_28UninterpretedOption_NamePartEE11TypeHandlerEEEvv W
_ZN6google8protobuf8internal20RepeatedPtrFieldBase7DestroyINS0_16RepeatedPtrFieldINS0_29DescriptorProto_ReservedRangeEE11TypeHandlerEEEvv W
_ZN6google8protobuf8internal20RepeatedPtrFieldBase7DestroyINS0_16RepeatedPtrFieldINS0_30DescriptorProto_ExtensionRangeEE11TypeHandlerEEEvv W
_ZN6google8protobuf8internal20RepeatedPtrFieldBase7DestroyINS0_16RepeatedPtrFieldINS0_37EnumDescriptorProto_EnumReservedRangeEE11TypeHandlerEEEvv W
_ZN6google8protobuf8internal20RepeatedPtrFieldBase7DestroyINS0_16RepeatedPtrFieldINS0_5FieldEE11TypeHandlerEEEvv W
_ZN6google8protobuf8internal20RepeatedPtrFieldBase7DestroyINS0_16RepeatedPtrFieldINS0_5MixinEE11TypeHandlerEEEvv W
_ZN6google8protobuf8internal20RepeatedPtrFieldBase7DestroyINS0_16RepeatedPtrFieldINS0_5ValueEE11TypeHandlerEEEvv W
_ZN6google8protobuf8internal20RepeatedPtrFieldBase7DestroyINS0_16RepeatedPtrFieldINS0_6MethodEE11TypeHandlerEEEvv W
_ZN6google8protobuf8internal20RepeatedPtrFieldBase7DestroyINS0_16RepeatedPtrFieldINS0_6OptionEE11TypeHandlerEEEvv W
_ZN6google8protobuf8internal20RepeatedPtrFieldBase7DestroyINS0_16RepeatedPtrFieldINS0_9EnumValueEE11TypeHandlerEEEvv W
_ZN6google8protobuf8internal20RepeatedPtrFieldBase7DestroyINS0_16RepeatedPtrFieldINSt7__cxx1112basic_stringIcSt11char_traitsIcESaIcEEEE11TypeHandlerEEEvv W
_ZN6google8protobuf8internal21RepeatedFieldAccessorD0Ev T
_ZN6google8protobuf8internal21RepeatedFieldAccessorD1Ev T
_ZN6google8protobuf8internal21RepeatedFieldAccessorD2Ev T
_ZN6google8protobuf8internal21arena_destruct_objectINS0_11MapValueRefEEEvPv W
_ZN6google8protobuf8internal21arena_destruct_objectINS0_13SourceContextEEEvPv W
_ZN6google8protobuf8internal21arena_destruct_objectINS0_16RepeatedPtrFieldINS0_11MessageLiteEEEEEvPv W
_ZN6google8protobuf8internal21arena_destruct_objectINS0_16RepeatedPtrFieldINS0_7MessageEEEEEvPv W
_ZN6google8protobuf8internal21arena_destruct_objectINS0_3AnyEEEvPv W
_ZN6google8protobuf8internal21arena_destruct_objectINS0_3MapINS0_6MapKeyENS0_11MapValueRefEE8InnerMapEEEvPv W
_ZN6google8protobuf8internal21arena_destruct_objectINS0_3MapINSt7__cxx1112basic_stringIcSt11char_traitsIcESaIcEEENS0_5ValueEE8InnerMapEEEvPv W
_ZN6google8protobuf8internal21arena_destruct_objectINS0_5MixinEEEvPv W
_ZN6google8protobuf8internal21arena_destruct_objectINS0_6MapKeyEEEvPv W
_ZN6google8protobuf8internal21arena_destruct_objectINS0_6MethodEEEvPv W
_ZN6google8protobuf8internal21arena_destruct_objectINS1_29InternalMetadataWithArenaBaseINS0_15UnknownFieldSetENS1_25InternalMetadataWithArenaEE9ContainerEEEvPv W
_ZN6google8protobuf8internal21arena_destruct_objectINS1_5MutexEEEvPv W
_ZN6google8protobuf8internal21arena_destruct_objectINSt7__cxx1112basic_stringIcSt11char_traitsIcESaIcEEEEEvPv W
_ZN6google8protobuf8internal22GetAnyFieldDescriptorsERKNS0_7MessageEPPKNS0_15FieldDescriptorES8_ T
_ZN6google8protobuf8internal22MapArenaMessageCreatorINS0_5ValueELb1EE13CreateMessageEPNS0_5ArenaE W
_ZN6google8protobuf8internal22MessageSetFieldSkipper19SkipMessageSetFieldEPNS0_2io16CodedInputStreamEi T
_ZN6google8protobuf8internal22MessageSetFieldSkipperD0Ev W
_ZN6google8protobuf8internal22MessageSetFieldSkipperD1Ev W
_ZN6google8protobuf8internal22MessageSetFieldSkipperD2Ev W
_ZN6google8protobuf8internal24MethodResultCallback_5_2IbNS0_4util18MessageDifferencerEPKNS0_15FieldDescriptorEPKNS4_16MapKeyComparatorEPKNS0_7MessageESD_RKSt6vectorINS4_13SpecificFieldESaISF_EEiiE3RunEii W
_ZN6google8protobuf8internal24MethodResultCallback_5_2IbNS0_4util18MessageDifferencerEPKNS0_15FieldDescriptorEPKNS4_16MapKeyComparatorEPKNS0_7MessageESD_RKSt6vectorINS4_13SpecificFieldESaISF_EEiiED0Ev W
_ZN6google8protobuf8internal24MethodResultCallback_5_2IbNS0_4util18MessageDifferencerEPKNS0_15FieldDescriptorEPKNS4_16MapKeyComparatorEPKNS0_7MessageESD_RKSt6vectorINS4_13SpecificFieldESaISF_EEiiED1Ev W
_ZN6google8protobuf8internal24MethodResultCallback_5_2IbNS0_4util18MessageDifferencerEPKNS0_15FieldDescriptorEPKNS4_16MapKeyComparatorEPKNS0_7MessageESD_RKSt6vectorINS4_13SpecificFieldESaISF_EEiiED2Ev W
_ZN6google8protobuf8internal24kTypeGoogleApisComPrefixE R
_ZN6google8protobuf8internal24kTypeGoogleProdComPrefixE R
_ZN6google8protobuf8internal25UnknownFieldSetSerializerEPKhjjjPNS0_2io17CodedOutputStreamE T
_ZN6google8protobuf8internal26FunctionResultCallback_1_1INS0_4util6StatusEPNS3_9converter23ProtoStreamObjectWriterENS0_11StringPieceEE3RunES8_ W
_ZN6google8protobuf8internal26FunctionResultCallback_1_1INS0_4util6StatusEPNS3_9converter23ProtoStreamObjectWriterENS0_11StringPieceEED0Ev W
_ZN6google8protobuf8internal26FunctionResultCallback_1_1INS0_4util6StatusEPNS3_9converter23ProtoStreamObjectWriterENS0_11StringPieceEED1Ev W
_ZN6google8protobuf8internal26FunctionResultCallback_1_1INS0_4util6StatusEPNS3_9converter23ProtoStreamObjectWriterENS0_11StringPieceEED2Ev W
_ZN6google8protobuf8internal26GeneratedMessageReflectionC1EPKNS0_10DescriptorERKNS1_16ReflectionSchemaEPKNS0_14DescriptorPoolEPNS0_14MessageFactoryE T
_ZN6google8protobuf8internal26GeneratedMessageReflectionC2EPKNS0_10DescriptorERKNS1_16ReflectionSchemaEPKNS0_14DescriptorPoolEPNS0_14MessageFactoryE T
_ZN6google8protobuf8internal26GeneratedMessageReflectionD0Ev T
_ZN6google8protobuf8internal26GeneratedMessageReflectionD1Ev T
_ZN6google8protobuf8internal26GeneratedMessageReflectionD2Ev T
_ZN6google8protobuf8internal27MergePartialFromCodedStreamEPNS0_11MessageLiteERKNS1_10ParseTableEPNS0_2io16CodedInputStreamE T
_ZN6google8protobuf8internal27UnknownFieldSetFieldSkipper11SkipMessageEPNS0_2io16CodedInputStreamE T
_ZN6google8protobuf8internal27UnknownFieldSetFieldSkipper15SkipUnknownEnumEii T
_ZN6google8protobuf8internal27UnknownFieldSetFieldSkipper9SkipFieldEPNS0_2io16CodedInputStreamEj T
_ZN6google8protobuf8internal27UnknownFieldSetFieldSkipperD0Ev W
_ZN6google8protobuf8internal27UnknownFieldSetFieldSkipperD1Ev W
_ZN6google8protobuf8internal27UnknownFieldSetFieldSkipperD2Ev W
_ZN6google8protobuf8internal29DescriptorPoolExtensionFinder4FindEiPNS1_13ExtensionInfoE T
_ZN6google8protobuf8internal29DescriptorPoolExtensionFinderD0Ev W
_ZN6google8protobuf8internal29DescriptorPoolExtensionFinderD1Ev W
_ZN6google8protobuf8internal29DescriptorPoolExtensionFinderD2Ev W
_ZN6google8protobuf8internal29InternalMetadataWithArenaBaseINS0_15UnknownFieldSetENS1_25InternalMetadataWithArenaEE27mutable_unknown_fields_slowEv W
_ZN6google8protobuf8internal29InternalMetadataWithArenaBaseINS0_15UnknownFieldSetENS1_25InternalMetadataWithArenaEED1Ev W
_ZN6google8protobuf8internal29InternalMetadataWithArenaBaseINS0_15UnknownFieldSetENS1_25InternalMetadataWithArenaEED2Ev W
_ZN6google8protobuf8internal30RepeatedFieldPrimitiveAccessorIbED0Ev W
_ZN6google8protobuf8internal30RepeatedFieldPrimitiveAccessorIbED1Ev W
_ZN6google8protobuf8internal30RepeatedFieldPrimitiveAccessorIbED2Ev W
_ZN6google8protobuf8internal30RepeatedFieldPrimitiveAccessorIdED0Ev W
_ZN6google8protobuf8internal30RepeatedFieldPrimitiveAccessorIdED1Ev W
_ZN6google8protobuf8internal30RepeatedFieldPrimitiveAccessorIdED2Ev W
_ZN6google8protobuf8internal30RepeatedFieldPrimitiveAccessorIfED0Ev W
_ZN6google8protobuf8internal30RepeatedFieldPrimitiveAccessorIfED1Ev W
_ZN6google8protobuf8internal30RepeatedFieldPrimitiveAccessorIfED2Ev W
_ZN6google8protobuf8internal30RepeatedFieldPrimitiveAccessorIiED0Ev W
_ZN6google8protobuf8internal30RepeatedFieldPrimitiveAccessorIiED1Ev W
_ZN6google8protobuf8internal30RepeatedFieldPrimitiveAccessorIiED2Ev W
_ZN6google8protobuf8internal30RepeatedFieldPrimitiveAccessorIjED0Ev W
_ZN6google8protobuf8internal30RepeatedFieldPrimitiveAccessorIjED1Ev W
_ZN6google8protobuf8internal30RepeatedFieldPrimitiveAccessorIjED2Ev W
_ZN6google8protobuf8internal30RepeatedFieldPrimitiveAccessorIlED0Ev W
_ZN6google8protobuf8internal30RepeatedFieldPrimitiveAccessorIlED1Ev W
_ZN6google8protobuf8internal30RepeatedFieldPrimitiveAccessorIlED2Ev W
_ZN6google8protobuf8internal30RepeatedFieldPrimitiveAccessorImED0Ev W
_ZN6google8protobuf8internal30RepeatedFieldPrimitiveAccessorImED1Ev W
_ZN6google8protobuf8internal30RepeatedFieldPrimitiveAccessorImED2Ev W
_ZN6google8protobuf8internal30RepeatedPtrFieldStringAccessorD0Ev W
_ZN6google8protobuf8internal30RepeatedPtrFieldStringAccessorD1Ev W
_ZN6google8protobuf8internal30RepeatedPtrFieldStringAccessorD2Ev W
_ZN6google8protobuf8internal31RepeatedPtrFieldMessageAccessorD0Ev W
_ZN6google8protobuf8internal31RepeatedPtrFieldMessageAccessorD1Ev W
_ZN6google8protobuf8internal31RepeatedPtrFieldMessageAccessorD2Ev W
_ZN6google8protobuf8internal8GetArenaINS1_25InternalMetadataWithArenaEEEPNS0_5ArenaEPNS0_11MessageLiteEl W
_ZN6google8protobuf8internal8MapFieldINS0_27Struct_FieldsEntry_DoNotUseENSt7__cxx1112basic_stringIcSt11char_traitsIcESaIcEEENS0_5ValueELNS1_14WireFormatLite9FieldTypeE9ELSC_11ELi0EE10MutableMapEv W
_ZN6google8protobuf8internal8MapFieldINS0_27Struct_FieldsEntry_DoNotUseENSt7__cxx1112basic_stringIcSt11char_traitsIcESaIcEEENS0_5ValueELNS1_14WireFormatLite9FieldTypeE9ELSC_11ELi0EE14DeleteMapValueERKNS0_6MapKeyE W
_ZN6google8protobuf8internal8MapFieldINS0_27Struct_FieldsEntry_DoNotUseENSt7__cxx1112basic_stringIcSt11char_traitsIcESaIcEEENS0_5ValueELNS1_14WireFormatLite9FieldTypeE9ELSC_11ELi0EE22InsertOrLookupMapValueERKNS0_6MapKeyEPNS0_11MapValueRefE W
_ZN6google8protobuf8internal8MapFieldINS0_27Struct_FieldsEntry_DoNotUseENSt7__cxx1112basic_stringIcSt11char_traitsIcESaIcEEENS0_5ValueELNS1_14WireFormatLite9FieldTypeE9ELSC_11ELi0EE9MergeFromERKSD_ W
_ZN6google8protobuf8internal8MapFieldINS0_27Struct_FieldsEntry_DoNotUseENSt7__cxx1112basic_stringIcSt11char_traitsIcESaIcEEENS0_5ValueELNS1_14WireFormatLite9FieldTypeE9ELSC_11ELi0EED0Ev W
_ZN6google8protobuf8internal8MapFieldINS0_27Struct_FieldsEntry_DoNotUseENSt7__cxx1112basic_stringIcSt11char_traitsIcESaIcEEENS0_5ValueELNS1_14WireFormatLite9FieldTypeE9ELSC_11ELi0EED1Ev W
_ZN6google8protobuf8internal8MapFieldINS0_27Struct_FieldsEntry_DoNotUseENSt7__cxx1112basic_stringIcSt11char_traitsIcESaIcEEENS0_5ValueELNS1_14WireFormatLite9FieldTypeE9ELSC_11ELi0EED2Ev W
_ZN6google8protobuf8internal9SingletonINS1_16MapFieldAccessorEE4InitEv W
_ZN6google8protobuf8internal9SingletonINS1_16MapFieldAccessorEE5once_E u
_ZN6google8protobuf8internal9SingletonINS1_16MapFieldAccessorEE9instance_E u
_ZN6google8protobuf8internal9SingletonINS1_30RepeatedFieldPrimitiveAccessorIbEEE4InitEv W
_ZN6google8protobuf8internal9SingletonINS1_30RepeatedFieldPrimitiveAccessorIbEEE5once_E u
_ZN6google8protobuf8internal9SingletonINS1_30RepeatedFieldPrimitiveAccessorIbEEE9instance_E u
_ZN6google8protobuf8internal9SingletonINS1_30RepeatedFieldPrimitiveAccessorIdEEE4InitEv W
_ZN6google8protobuf8internal9SingletonINS1_30RepeatedFieldPrimitiveAccessorIdEEE5once_E u
_ZN6google8protobuf8internal9SingletonINS1_30RepeatedFieldPrimitiveAccessorIdEEE9instance_E u
_ZN6google8protobuf8internal9SingletonINS1_30RepeatedFieldPrimitiveAccessorIfEEE4InitEv W
_ZN6google8protobuf8internal9SingletonINS1_30RepeatedFieldPrimitiveAccessorIfEEE5once_E u
_ZN6google8protobuf8internal9SingletonINS1_30RepeatedFieldPrimitiveAccessorIfEEE9instance_E u
_ZN6google8protobuf8internal9SingletonINS1_30RepeatedFieldPrimitiveAccessorIiEEE4InitEv W
_ZN6google8protobuf8internal9SingletonINS1_30RepeatedFieldPrimitiveAccessorIiEEE5once_E u
_ZN6google8protobuf8internal9SingletonINS1_30RepeatedFieldPrimitiveAccessorIiEEE9instance_E u
_ZN6google8protobuf8internal9SingletonINS1_30RepeatedFieldPrimitiveAccessorIjEEE4InitEv W
_ZN6google8protobuf8internal9SingletonINS1_30RepeatedFieldPrimitiveAccessorIjEEE5once_E u
_ZN6google8protobuf8internal9SingletonINS1_30RepeatedFieldPrimitiveAccessorIjEEE9instance_E u
_ZN6google8protobuf8internal9SingletonINS1_30RepeatedFieldPrimitiveAccessorIlEEE4InitEv W
_ZN6google8protobuf8internal9SingletonINS1_30RepeatedFieldPrimitiveAccessorIlEEE5once_E u
_ZN6google8protobuf8internal9SingletonINS1_30RepeatedFieldPrimitiveAccessorIlEEE9instance_E u
_ZN6google8protobuf8internal9SingletonINS1_30RepeatedFieldPrimitiveAccessorImEEE4InitEv W
_ZN6google8protobuf8internal9SingletonINS1_30RepeatedFieldPrimitiveAccessorImEEE5once_E u
_ZN6google8protobuf8internal9SingletonINS1_30RepeatedFieldPrimitiveAccessorImEEE9instance_E u
_ZN6google8protobuf8internal9SingletonINS1_30RepeatedPtrFieldStringAccessorEE4InitEv W
_ZN6google8protobuf8internal9SingletonINS1_30RepeatedPtrFieldStringAccessorEE5once_E u
_ZN6google8protobuf8internal9SingletonINS1_30RepeatedPtrFieldStringAccessorEE9instance_E u
_ZN6google8protobuf8internal9SingletonINS1_31RepeatedPtrFieldMessageAccessorEE4InitEv W
_ZN6google8protobuf8internal9SingletonINS1_31RepeatedPtrFieldMessageAccessorEE5once_E u
_ZN6google8protobuf8internal9SingletonINS1_31RepeatedPtrFieldMessageAccessorEE9instance_E u
_ZN6google8protobuf9BoolValue10SharedCtorEv T
_ZN6google8protobuf9BoolValue10SharedDtorEv T
_ZN6google8protobuf9BoolValue10descriptorEv T
_ZN6google8protobuf9BoolValue12InternalSwapEPS1_ T
_ZN6google8protobuf9BoolValue15UnsafeArenaSwapEPS1_ T
_ZN6google8protobuf9BoolValue16default_instanceEv T
_ZN6google8protobuf9BoolValue17kValueFieldNumberE R
_ZN6google8protobuf9BoolValue21InitAsDefaultInstanceEv T
_ZN6google8protobuf9BoolValue27MergePartialFromCodedStreamEPNS0_2io16CodedInputStreamE T
_ZN6google8protobuf9BoolValue4SwapEPS1_ T
_ZN6google8protobuf9BoolValue5ClearEv T
_ZN6google8protobuf9BoolValue8CopyFromERKNS0_7MessageE T
_ZN6google8protobuf9BoolValue8CopyFromERKS1_ T
_ZN6google8protobuf9BoolValue9ArenaDtorEPv T
_ZN6google8protobuf9BoolValue9MergeFromERKNS0_7MessageE T
_ZN6google8protobuf9BoolValue9MergeFromERKS1_ T
_ZN6google8protobuf9BoolValueC1EPNS0_5ArenaE T
_ZN6google8protobuf9BoolValueC1ERKS1_ T
_ZN6google8protobuf9BoolValueC1Ev T
_ZN6google8protobuf9BoolValueC2EPNS0_5ArenaE T
_ZN6google8protobuf9BoolValueC2ERKS1_ T
_ZN6google8protobuf9BoolValueC2Ev T
_ZN6google8protobuf9BoolValueD0Ev T
_ZN6google8protobuf9BoolValueD1Ev T
_ZN6google8protobuf9BoolValueD2Ev T
_ZN6google8protobuf9EnumValue10SharedCtorEv T
_ZN6google8protobuf9EnumValue10SharedDtorEv T
_ZN6google8protobuf9EnumValue10descriptorEv T
_ZN6google8protobuf9EnumValue12InternalSwapEPS1_ T
_ZN6google8protobuf9EnumValue15UnsafeArenaSwapEPS1_ T
_ZN6google8protobuf9EnumValue16default_instanceEv T
_ZN6google8protobuf9EnumValue16kNameFieldNumberE R
_ZN6google8protobuf9EnumValue18kNumberFieldNumberE R
_ZN6google8protobuf9EnumValue19kOptionsFieldNumberE R
_ZN6google8protobuf9EnumValue21InitAsDefaultInstanceEv T
_ZN6google8protobuf9EnumValue27MergePartialFromCodedStreamEPNS0_2io16CodedInputStreamE T
_ZN6google8protobuf9EnumValue4SwapEPS1_ T
_ZN6google8protobuf9EnumValue5ClearEv T
_ZN6google8protobuf9EnumValue8CopyFromERKNS0_7MessageE T
_ZN6google8protobuf9EnumValue8CopyFromERKS1_ T
_ZN6google8protobuf9EnumValue9ArenaDtorEPv T
_ZN6google8protobuf9EnumValue9MergeFromERKNS0_7MessageE T
_ZN6google8protobuf9EnumValue9MergeFromERKS1_ T
_ZN6google8protobuf9EnumValueC1EPNS0_5ArenaE T
_ZN6google8protobuf9EnumValueC1ERKS1_ T
_ZN6google8protobuf9EnumValueC1Ev T
_ZN6google8protobuf9EnumValueC2EPNS0_5ArenaE T
_ZN6google8protobuf9EnumValueC2ERKS1_ T
_ZN6google8protobuf9EnumValueC2Ev T
_ZN6google8protobuf9EnumValueD0Ev T
_ZN6google8protobuf9EnumValueD1Ev T
_ZN6google8protobuf9EnumValueD2Ev T
_ZN6google8protobuf9FieldMask10SharedCtorEv T
_ZN6google8protobuf9FieldMask10SharedDtorEv T
_ZN6google8protobuf9FieldMask10descriptorEv T
_ZN6google8protobuf9FieldMask12InternalSwapEPS1_ T
_ZN6google8protobuf9FieldMask16default_instanceEv T
_ZN6google8protobuf9FieldMask17kPathsFieldNumberE R
_ZN6google8protobuf9FieldMask21InitAsDefaultInstanceEv T
_ZN6google8protobuf9FieldMask27MergePartialFromCodedStreamEPNS0_2io16CodedInputStreamE T
_ZN6google8protobuf9FieldMask4SwapEPS1_ T
_ZN6google8protobuf9FieldMask5ClearEv T
_ZN6google8protobuf9FieldMask8CopyFromERKNS0_7MessageE T
_ZN6google8protobuf9FieldMask8CopyFromERKS1_ T
_ZN6google8protobuf9FieldMask9MergeFromERKNS0_7MessageE T
_ZN6google8protobuf9FieldMask9MergeFromERKS1_ T
_ZN6google8protobuf9FieldMaskC1ERKS1_ T
_ZN6google8protobuf9FieldMaskC1Ev T
_ZN6google8protobuf9FieldMaskC2ERKS1_ T
_ZN6google8protobuf9FieldMaskC2Ev T
_ZN6google8protobuf9FieldMaskD0Ev T
_ZN6google8protobuf9FieldMaskD1Ev T
_ZN6google8protobuf9FieldMaskD2Ev T
_ZN6google8protobuf9ListValue10SharedCtorEv T
_ZN6google8protobuf9ListValue10SharedDtorEv T
_ZN6google8protobuf9ListValue10descriptorEv T
_ZN6google8protobuf9ListValue12InternalSwapEPS1_ T
_ZN6google8protobuf9ListValue15UnsafeArenaSwapEPS1_ T
_ZN6google8protobuf9ListValue16default_instanceEv T
_ZN6google8protobuf9ListValue18kValuesFieldNumberE R
_ZN6google8protobuf9ListValue21InitAsDefaultInstanceEv T
_ZN6google8protobuf9ListValue27MergePartialFromCodedStreamEPNS0_2io16CodedInputStreamE T
_ZN6google8protobuf9ListValue4SwapEPS1_ T
_ZN6google8protobuf9ListValue5ClearEv T
_ZN6google8protobuf9ListValue8CopyFromERKNS0_7MessageE T
_ZN6google8protobuf9ListValue8CopyFromERKS1_ T
_ZN6google8protobuf9ListValue9ArenaDtorEPv T
_ZN6google8protobuf9ListValue9MergeFromERKNS0_7MessageE T
_ZN6google8protobuf9ListValue9MergeFromERKS1_ T
_ZN6google8protobuf9ListValueC1EPNS0_5ArenaE T
_ZN6google8protobuf9ListValueC1ERKS1_ T
_ZN6google8protobuf9ListValueC1Ev T
_ZN6google8protobuf9ListValueC2EPNS0_5ArenaE T
_ZN6google8protobuf9ListValueC2ERKS1_ T
_ZN6google8protobuf9ListValueC2Ev T
_ZN6google8protobuf9ListValueD0Ev T
_ZN6google8protobuf9ListValueD1Ev T
_ZN6google8protobuf9ListValueD2Ev T
_ZN6google8protobuf9Timestamp10SharedCtorEv T
_ZN6google8protobuf9Timestamp10SharedDtorEv T
_ZN6google8protobuf9Timestamp10descriptorEv T
_ZN6google8protobuf9Timestamp12InternalSwapEPS1_ T
_ZN6google8protobuf9Timestamp15UnsafeArenaSwapEPS1_ T
_ZN6google8protobuf9Timestamp16default_instanceEv T
_ZN6google8protobuf9Timestamp17kNanosFieldNumberE R
_ZN6google8protobuf9Timestamp19kSecondsFieldNumberE R
_ZN6google8protobuf9Timestamp21InitAsDefaultInstanceEv T
_ZN6google8protobuf9Timestamp27MergePartialFromCodedStreamEPNS0_2io16CodedInputStreamE T
_ZN6google8protobuf9Timestamp4SwapEPS1_ T
_ZN6google8protobuf9Timestamp5ClearEv T
_ZN6google8protobuf9Timestamp8CopyFromERKNS0_7MessageE T
_ZN6google8protobuf9Timestamp8CopyFromERKS1_ T
_ZN6google8protobuf9Timestamp9ArenaDtorEPv T
_ZN6google8protobuf9Timestamp9MergeFromERKNS0_7MessageE T
_ZN6google8protobuf9Timestamp9MergeFromERKS1_ T
_ZN6google8protobuf9TimestampC1EPNS0_5ArenaE T
_ZN6google8protobuf9TimestampC1ERKS1_ T
_ZN6google8protobuf9TimestampC1Ev T
_ZN6google8protobuf9TimestampC2EPNS0_5ArenaE T
_ZN6google8protobuf9TimestampC2ERKS1_ T
_ZN6google8protobuf9TimestampC2Ev T
_ZN6google8protobuf9TimestampD0Ev T
_ZN6google8protobuf9TimestampD1Ev T
_ZN6google8protobuf9TimestampD2Ev T
_ZN6google8protobufdVERNS0_8DurationEd T
_ZN6google8protobufdVERNS0_8DurationEl T
_ZN6google8protobufdvERKNS0_8DurationES3_ T
_ZN6google8protobufmIERNS0_8DurationERKS1_ T
_ZN6google8protobufmIERNS0_9TimestampERKNS0_8DurationE T
_ZN6google8protobufmLERNS0_8DurationEd T
_ZN6google8protobufmLERNS0_8DurationEl T
_ZN6google8protobufmiERKNS0_9TimestampES3_ T
_ZN6google8protobufpLERNS0_8DurationERKS1_ T
_ZN6google8protobufpLERNS0_9TimestampERKNS0_8DurationE T
_ZN6google8protobufrMERNS0_8DurationERKS1_ T
_ZNK6google8protobuf10BytesValue11GetMetadataEv T
_ZNK6google8protobuf10BytesValue12ByteSizeLongEv T
_ZNK6google8protobuf10BytesValue13GetCachedSizeEv W
_ZNK6google8protobuf10BytesValue13IsInitializedEv T
_ZNK6google8protobuf10BytesValue13SetCachedSizeEi T
_ZNK6google8protobuf10BytesValue20GetMaybeArenaPointerEv W
_ZNK6google8protobuf10BytesValue24SerializeWithCachedSizesEPNS0_2io17CodedOutputStreamE T
_ZNK6google8protobuf10BytesValue39InternalSerializeWithCachedSizesToArrayEbPh T
_ZNK6google8protobuf10BytesValue3NewEPNS0_5ArenaE T
_ZNK6google8protobuf10BytesValue3NewEv W
_ZNK6google8protobuf10BytesValue8GetArenaEv W
_ZNK6google8protobuf10Descriptor11DebugStringB5cxx11Ev T
_ZNK6google8protobuf10Descriptor11DebugStringEiPNSt7__cxx1112basic_stringIcSt11char_traitsIcESaIcEEERKNS0_18DebugStringOptionsEb T
_ZNK6google8protobuf10Descriptor14CopyJsonNameToEPNS0_15DescriptorProtoE T
_ZNK6google8protobuf10Descriptor15FindFieldByNameERKNSt7__cxx1112basic_stringIcSt11char_traitsIcESaIcEEE T
_ZNK6google8protobuf10Descriptor15FindOneofByNameERKNSt7__cxx1112basic_stringIcSt11char_traitsIcESaIcEEE T
_ZNK6google8protobuf10Descriptor15GetLocationPathEPSt6vectorIiSaIiEE T
_ZNK6google8protobuf10Descriptor17FindFieldByNumberEi T
_ZNK6google8protobuf10Descriptor17GetSourceLocationEPNS0_14SourceLocationE T
_ZNK6google8protobuf10Descriptor18FindEnumTypeByNameERKNSt7__cxx1112basic_stringIcSt11char_traitsIcESaIcEEE T
_ZNK6google8protobuf10Descriptor19FindEnumValueByNameERKNSt7__cxx1112basic_stringIcSt11char_traitsIcESaIcEEE T
_ZNK6google8protobuf10Descriptor19FindExtensionByNameERKNSt7__cxx1112basic_stringIcSt11char_traitsIcESaIcEEE T
_ZNK6google8protobuf10Descriptor20FindNestedTypeByNameERKNSt7__cxx1112basic_stringIcSt11char_traitsIcESaIcEEE T
_ZNK6google8protobuf10Descriptor22DebugStringWithOptionsB5cxx11ERKNS0_18DebugStringOptionsE T
_ZNK6google8protobuf10Descriptor24FindFieldByCamelcaseNameERKNSt7__cxx1112basic_stringIcSt11char_traitsIcESaIcEEE T
_ZNK6google8protobuf10Descriptor24FindFieldByLowercaseNameERKNSt7__cxx1112basic_stringIcSt11char_traitsIcESaIcEEE T
_ZNK6google8protobuf10Descriptor28FindExtensionByCamelcaseNameERKNSt7__cxx1112basic_stringIcSt11char_traitsIcESaIcEEE T
_ZNK6google8protobuf10Descriptor28FindExtensionByLowercaseNameERKNSt7__cxx1112basic_stringIcSt11char_traitsIcESaIcEEE T
_ZNK6google8protobuf10Descriptor33FindReservedRangeContainingNumberEi T
_ZNK6google8protobuf10Descriptor34FindExtensionRangeContainingNumberEi T
_ZNK6google8protobuf10Descriptor6CopyToEPNS0_15DescriptorProtoE T
_ZNK6google8protobuf10FloatValue11GetMetadataEv T
_ZNK6google8protobuf10FloatValue12ByteSizeLongEv T
_ZNK6google8protobuf10FloatValue13GetCachedSizeEv W
_ZNK6google8protobuf10FloatValue13IsInitializedEv T
_ZNK6google8protobuf10FloatValue13SetCachedSizeEi T
_ZNK6google8protobuf10FloatValue20GetMaybeArenaPointerEv W
_ZNK6google8protobuf10FloatValue24SerializeWithCachedSizesEPNS0_2io17CodedOutputStreamE T
_ZNK6google8protobuf10FloatValue39InternalSerializeWithCachedSizesToArrayEbPh T
_ZNK6google8protobuf10FloatValue3NewEPNS0_5ArenaE T
_ZNK6google8protobuf10FloatValue3NewEv W
_ZNK6google8protobuf10FloatValue8GetArenaEv W
_ZNK6google8protobuf10Int32Value11GetMetadataEv T
_ZNK6google8protobuf10Int32Value12ByteSizeLongEv T
_ZNK6google8protobuf10Int32Value13GetCachedSizeEv W
_ZNK6google8protobuf10Int32Value13IsInitializedEv T
_ZNK6google8protobuf10Int32Value13SetCachedSizeEi T
_ZNK6google8protobuf10Int32Value20GetMaybeArenaPointerEv W
_ZNK6google8protobuf10Int32Value24SerializeWithCachedSizesEPNS0_2io17CodedOutputStreamE T
_ZNK6google8protobuf10Int32Value39InternalSerializeWithCachedSizesToArrayEbPh T
_ZNK6google8protobuf10Int32Value3NewEPNS0_5ArenaE T
_ZNK6google8protobuf10Int32Value3NewEv W
_ZNK6google8protobuf10Int32Value8GetArenaEv W
_ZNK6google8protobuf10Int64Value11GetMetadataEv T
_ZNK6google8protobuf10Int64Value12ByteSizeLongEv T
_ZNK6google8protobuf10Int64Value13GetCachedSizeEv W
_ZNK6google8protobuf10Int64Value13IsInitializedEv T
_ZNK6google8protobuf10Int64Value13SetCachedSizeEi T
_ZNK6google8protobuf10Int64Value20GetMaybeArenaPointerEv W
_ZNK6google8protobuf10Int64Value24SerializeWithCachedSizesEPNS0_2io17CodedOutputStreamE T
_ZNK6google8protobuf10Int64Value39InternalSerializeWithCachedSizesToArrayEbPh T
_ZNK6google8protobuf10Int64Value3NewEPNS0_5ArenaE T
_ZNK6google8protobuf10Int64Value3NewEv W
_ZNK6google8protobuf10Int64Value8GetArenaEv W
_ZNK6google8protobuf10Reflection10ClearOneofEPNS0_7MessageEPKNS0_15OneofDescriptorE W
_ZNK6google8protobuf10Reflection14ContainsMapKeyERKNS0_7MessageEPKNS0_15FieldDescriptorERKNS0_6MapKeyE W
_ZNK6google8protobuf10Reflection14DeleteMapValueEPNS0_7MessageEPKNS0_15FieldDescriptorERKNS0_6MapKeyE W
_ZNK6google8protobuf10Reflection16GetRepeatedFieldIbEERKNS0_13RepeatedFieldIT_EERKNS0_7MessageEPKNS0_15FieldDescriptorE T
_ZNK6google8protobuf10Reflection16GetRepeatedFieldIdEERKNS0_13RepeatedFieldIT_EERKNS0_7MessageEPKNS0_15FieldDescriptorE T
_ZNK6google8protobuf10Reflection16GetRepeatedFieldIfEERKNS0_13RepeatedFieldIT_EERKNS0_7MessageEPKNS0_15FieldDescriptorE T
_ZNK6google8protobuf10Reflection16GetRepeatedFieldIiEERKNS0_13RepeatedFieldIT_EERKNS0_7MessageEPKNS0_15FieldDescriptorE T
_ZNK6google8protobuf10Reflection16GetRepeatedFieldIjEERKNS0_13RepeatedFieldIT_EERKNS0_7MessageEPKNS0_15FieldDescriptorE T
_ZNK6google8protobuf10Reflection16GetRepeatedFieldIlEERKNS0_13RepeatedFieldIT_EERKNS0_7MessageEPKNS0_15FieldDescriptorE T
_ZNK6google8protobuf10Reflection16GetRepeatedFieldImEERKNS0_13RepeatedFieldIT_EERKNS0_7MessageEPKNS0_15FieldDescriptorE T
_ZNK6google8protobuf10Reflection17GetMessageFactoryEv T
_ZNK6google8protobuf10Reflection17RepeatedFieldDataEPNS0_7MessageEPKNS0_15FieldDescriptorENS4_7CppTypeEPKNS0_10DescriptorE T
_ZNK6google8protobuf10Reflection19AddAllocatedMessageEPNS0_7MessageEPKNS0_15FieldDescriptorES3_ T
_ZNK6google8protobuf10Reflection19GetRawRepeatedFieldERKNS0_7MessageEPKNS0_15FieldDescriptorENS5_7CppTypeEiPKNS0_10DescriptorE W
_ZNK6google8protobuf10Reflection20MutableRepeatedFieldIbEEPNS0_13RepeatedFieldIT_EEPNS0_7MessageEPKNS0_15FieldDescriptorE T
_ZNK6google8protobuf10Reflection20MutableRepeatedFieldIdEEPNS0_13RepeatedFieldIT_EEPNS0_7MessageEPKNS0_15FieldDescriptorE T
_ZNK6google8protobuf10Reflection20MutableRepeatedFieldIfEEPNS0_13RepeatedFieldIT_EEPNS0_7MessageEPKNS0_15FieldDescriptorE T
_ZNK6google8protobuf10Reflection20MutableRepeatedFieldIiEEPNS0_13RepeatedFieldIT_EEPNS0_7MessageEPKNS0_15FieldDescriptorE T
_ZNK6google8protobuf10Reflection20MutableRepeatedFieldIjEEPNS0_13RepeatedFieldIT_EEPNS0_7MessageEPKNS0_15FieldDescriptorE T
_ZNK6google8protobuf10Reflection20MutableRepeatedFieldIlEEPNS0_13RepeatedFieldIT_EEPNS0_7MessageEPKNS0_15FieldDescriptorE T
_ZNK6google8protobuf10Reflection20MutableRepeatedFieldImEEPNS0_13RepeatedFieldIT_EEPNS0_7MessageEPKNS0_15FieldDescriptorE T
_ZNK6google8protobuf10Reflection21RepeatedFieldAccessorEPKNS0_15FieldDescriptorE T
_ZNK6google8protobuf10Reflection22InsertOrLookupMapValueEPNS0_7MessageEPKNS0_15FieldDescriptorERKNS0_6MapKeyEPNS0_11MapValueRefE W
_ZNK6google8protobuf10Reflection23GetOneofFieldDescriptorERKNS0_7MessageEPKNS0_15OneofDescriptorE W
_ZNK6google8protobuf10Reflection24MutableRawRepeatedStringEPNS0_7MessageEPKNS0_15FieldDescriptorEb T
_ZNK6google8protobuf10Reflection25SupportsUnknownEnumValuesEv W
_ZNK6google8protobuf10Reflection6MapEndEPNS0_7MessageEPKNS0_15FieldDescriptorE T
_ZNK6google8protobuf10Reflection7MapDataEPNS0_7MessageEPKNS0_15FieldDescriptorE W
_ZNK6google8protobuf10Reflection7MapSizeERKNS0_7MessageEPKNS0_15FieldDescriptorE W
_ZNK6google8protobuf10Reflection8HasOneofERKNS0_7MessageEPKNS0_15OneofDescriptorE W
_ZNK6google8protobuf10Reflection8MapBeginEPNS0_7MessageEPKNS0_15FieldDescriptorE T
_ZNK6google8protobuf10TextFormat13ParseInfoTree11GetLocationEPKNS0_15FieldDescriptorEi T
_ZNK6google8protobuf10TextFormat13ParseInfoTree16GetTreeForNestedEPKNS0_15FieldDescriptorEi T
_ZNK6google8protobuf10TextFormat17FieldValuePrinter10PrintBytesERKNSt7__cxx1112basic_stringIcSt11char_traitsIcESaIcEEE T
_ZNK6google8protobuf10TextFormat17FieldValuePrinter10PrintFloatB5cxx11Ef T
_ZNK6google8protobuf10TextFormat17FieldValuePrinter10PrintInt32B5cxx11Ei T
_ZNK6google8protobuf10TextFormat17FieldValuePrinter10PrintInt64B5cxx11El T
_ZNK6google8protobuf10TextFormat17FieldValuePrinter11PrintDoubleB5cxx11Ed T
_ZNK6google8protobuf10TextFormat17FieldValuePrinter11PrintStringERKNSt7__cxx1112basic_stringIcSt11char_traitsIcESaIcEEE T
_ZNK6google8protobuf10TextFormat17FieldValuePrinter11PrintUInt32B5cxx11Ej T
_ZNK6google8protobuf10TextFormat17FieldValuePrinter11PrintUInt64B5cxx11Em T
_ZNK6google8protobuf10TextFormat17FieldValuePrinter14PrintFieldNameB5cxx11ERKNS0_7MessageEPKNS0_10ReflectionEPKNS0_15FieldDescriptorE T
_ZNK6google8protobuf10TextFormat17FieldValuePrinter15PrintMessageEndB5cxx11ERKNS0_7MessageEiib T
_ZNK6google8protobuf10TextFormat17FieldValuePrinter17PrintMessageStartB5cxx11ERKNS0_7MessageEiib T
_ZNK6google8protobuf10TextFormat17FieldValuePrinter9PrintBoolB5cxx11Eb T
_ZNK6google8protobuf10TextFormat17FieldValuePrinter9PrintEnumEiRKNSt7__cxx1112basic_stringIcSt11char_traitsIcESaIcEEE T
_ZNK6google8protobuf10TextFormat21FastFieldValuePrinter10PrintBytesERKNSt7__cxx1112basic_stringIcSt11char_traitsIcESaIcEEEPNS1_17BaseTextGeneratorE T
_ZNK6google8protobuf10TextFormat21FastFieldValuePrinter10PrintFloatEfPNS1_17BaseTextGeneratorE T
_ZNK6google8protobuf10TextFormat21FastFieldValuePrinter10PrintInt32EiPNS1_17BaseTextGeneratorE T
_ZNK6google8protobuf10TextFormat21FastFieldValuePrinter10PrintInt64ElPNS1_17BaseTextGeneratorE T
_ZNK6google8protobuf10TextFormat21FastFieldValuePrinter11PrintDoubleEdPNS1_17BaseTextGeneratorE T
_ZNK6google8protobuf10TextFormat21FastFieldValuePrinter11PrintStringERKNSt7__cxx1112basic_stringIcSt11char_traitsIcESaIcEEEPNS1_17BaseTextGeneratorE T
_ZNK6google8protobuf10TextFormat21FastFieldValuePrinter11PrintUInt32EjPNS1_17BaseTextGeneratorE T
_ZNK6google8protobuf10TextFormat21FastFieldValuePrinter11PrintUInt64EmPNS1_17BaseTextGeneratorE T
_ZNK6google8protobuf10TextFormat21FastFieldValuePrinter14PrintFieldNameERKNS0_7MessageEPKNS0_10ReflectionEPKNS0_15FieldDescriptorEPNS1_17BaseTextGeneratorE T
_ZNK6google8protobuf10TextFormat21FastFieldValuePrinter15PrintMessageEndERKNS0_7MessageEiibPNS1_17BaseTextGeneratorE T
_ZNK6google8protobuf10TextFormat21FastFieldValuePrinter17PrintMessageStartERKNS0_7MessageEiibPNS1_17BaseTextGeneratorE T
_ZNK6google8protobuf10TextFormat21FastFieldValuePrinter9PrintBoolEbPNS1_17BaseTextGeneratorE T
_ZNK6google8protobuf10TextFormat21FastFieldValuePrinter9PrintEnumEiRKNSt7__cxx1112basic_stringIcSt11char_traitsIcESaIcEEEPNS1_17BaseTextGeneratorE T
_ZNK6google8protobuf10TextFormat7Printer10PrintFieldERKNS0_7MessageEPKNS0_10ReflectionEPKNS0_15FieldDescriptorEPNS2_13TextGeneratorE T
_ZNK6google8protobuf10TextFormat7Printer13PrintToStringERKNS0_7MessageEPNSt7__cxx1112basic_stringIcSt11char_traitsIcESaIcEEE T
_ZNK6google8protobuf10TextFormat7Printer14PrintFieldNameERKNS0_7MessageEPKNS0_10ReflectionEPKNS0_15FieldDescriptorEPNS2_13TextGeneratorE T
_ZNK6google8protobuf10TextFormat7Printer15PrintFieldValueERKNS0_7MessageEPKNS0_10ReflectionEPKNS0_15FieldDescriptorEiPNS2_13TextGeneratorE T
_ZNK6google8protobuf10TextFormat7Printer18PrintUnknownFieldsERKNS0_15UnknownFieldSetEPNS0_2io20ZeroCopyOutputStreamE T
_ZNK6google8protobuf10TextFormat7Printer18PrintUnknownFieldsERKNS0_15UnknownFieldSetEPNS2_13TextGeneratorE T
_ZNK6google8protobuf10TextFormat7Printer23PrintFieldValueToStringERKNS0_7MessageEPKNS0_15FieldDescriptorEiPNSt7__cxx1112basic_stringIcSt11char_traitsIcESaIcEEE T
_ZNK6google8protobuf10TextFormat7Printer23PrintShortRepeatedFieldERKNS0_7MessageEPKNS0_10ReflectionEPKNS0_15FieldDescriptorEPNS2_13TextGeneratorE T
_ZNK6google8protobuf10TextFormat7Printer26PrintUnknownFieldsToStringERKNS0_15UnknownFieldSetEPNSt7__cxx1112basic_stringIcSt11char_traitsIcESaIcEEE T
_ZNK6google8protobuf10TextFormat7Printer5PrintERKNS0_7MessageEPNS0_2io20ZeroCopyOutputStreamE T
_ZNK6google8protobuf10TextFormat7Printer5PrintERKNS0_7MessageEPNS2_13TextGeneratorE T
_ZNK6google8protobuf10TextFormat7Printer8PrintAnyERKNS0_7MessageEPNS2_13TextGeneratorE T
_ZNK6google8protobuf11DoubleValue11GetMetadataEv T
_ZNK6google8protobuf11DoubleValue12ByteSizeLongEv T
_ZNK6google8protobuf11DoubleValue13GetCachedSizeEv W
_ZNK6google8protobuf11DoubleValue13IsInitializedEv T
_ZNK6google8protobuf11DoubleValue13SetCachedSizeEi T
_ZNK6google8protobuf11DoubleValue20GetMaybeArenaPointerEv W
_ZNK6google8protobuf11DoubleValue24SerializeWithCachedSizesEPNS0_2io17CodedOutputStreamE T
_ZNK6google8protobuf11DoubleValue39InternalSerializeWithCachedSizesToArrayEbPh T
_ZNK6google8protobuf11DoubleValue3NewEPNS0_5ArenaE T
_ZNK6google8protobuf11DoubleValue3NewEv W
_ZNK6google8protobuf11DoubleValue8GetArenaEv W
_ZNK6google8protobuf11EnumOptions11GetMetadataEv T
_ZNK6google8protobuf11EnumOptions12ByteSizeLongEv T
_ZNK6google8protobuf11EnumOptions13GetCachedSizeEv W
_ZNK6google8protobuf11EnumOptions13IsInitializedEv T
_ZNK6google8protobuf11EnumOptions13SetCachedSizeEi T
_ZNK6google8protobuf11EnumOptions20GetMaybeArenaPointerEv W
_ZNK6google8protobuf11EnumOptions24SerializeWithCachedSizesEPNS0_2io17CodedOutputStreamE T
_ZNK6google8protobuf11EnumOptions39InternalSerializeWithCachedSizesToArrayEbPh T
_ZNK6google8protobuf11EnumOptions3NewEPNS0_5ArenaE T
_ZNK6google8protobuf11EnumOptions3NewEv W
_ZNK6google8protobuf11EnumOptions8GetArenaEv W
_ZNK6google8protobuf11FileOptions11GetMetadataEv T
_ZNK6google8protobuf11FileOptions12ByteSizeLongEv T
_ZNK6google8protobuf11FileOptions13GetCachedSizeEv W
_ZNK6google8protobuf11FileOptions13IsInitializedEv T
_ZNK6google8protobuf11FileOptions13SetCachedSizeEi T
_ZNK6google8protobuf11FileOptions20GetMaybeArenaPointerEv W
_ZNK6google8protobuf11FileOptions24SerializeWithCachedSizesEPNS0_2io17CodedOutputStreamE T
_ZNK6google8protobuf11FileOptions39InternalSerializeWithCachedSizesToArrayEbPh T
_ZNK6google8protobuf11FileOptions3NewEPNS0_5ArenaE T
_ZNK6google8protobuf11FileOptions3NewEv W
_ZNK6google8protobuf11FileOptions8GetArenaEv W
_ZNK6google8protobuf11MapValueRef12GetEnumValueEv W
_ZNK6google8protobuf11MapValueRef13GetInt32ValueEv W
_ZNK6google8protobuf11MapValueRef13GetInt64ValueEv W
_ZNK6google8protobuf11MapValueRef14GetStringValueB5cxx11Ev W
_ZNK6google8protobuf11MapValueRef14GetUInt32ValueEv W
_ZNK6google8protobuf11MapValueRef14GetUInt64ValueEv W
_ZNK6google8protobuf11MapValueRef15GetMessageValueEv W
_ZNK6google8protobuf11MapValueRef4typeEv W
_ZNK6google8protobuf11MessageLite16InternalGetTableEv W
_ZNK6google8protobuf11MessageLite20GetMaybeArenaPointerEv W
_ZNK6google8protobuf11MessageLite8GetArenaEv W
_ZNK6google8protobuf11StringValue11GetMetadataEv T
_ZNK6google8protobuf11StringValue12ByteSizeLongEv T
_ZNK6google8protobuf11StringValue13GetCachedSizeEv W
_ZNK6google8protobuf11StringValue13IsInitializedEv T
_ZNK6google8protobuf11StringValue13SetCachedSizeEi T
_ZNK6google8protobuf11StringValue20GetMaybeArenaPointerEv W
_ZNK6google8protobuf11StringValue24SerializeWithCachedSizesEPNS0_2io17CodedOutputStreamE T
_ZNK6google8protobuf11StringValue39InternalSerializeWithCachedSizesToArrayEbPh T
_ZNK6google8protobuf11StringValue3NewEPNS0_5ArenaE T
_ZNK6google8protobuf11StringValue3NewEv W
_ZNK6google8protobuf11StringValue8GetArenaEv W
_ZNK6google8protobuf11UInt32Value11GetMetadataEv T
_ZNK6google8protobuf11UInt32Value12ByteSizeLongEv T
_ZNK6google8protobuf11UInt32Value13GetCachedSizeEv W
_ZNK6google8protobuf11UInt32Value13IsInitializedEv T
_ZNK6google8protobuf11UInt32Value13SetCachedSizeEi T
_ZNK6google8protobuf11UInt32Value20GetMaybeArenaPointerEv W
_ZNK6google8protobuf11UInt32Value24SerializeWithCachedSizesEPNS0_2io17CodedOutputStreamE T
_ZNK6google8protobuf11UInt32Value39InternalSerializeWithCachedSizesToArrayEbPh T
_ZNK6google8protobuf11UInt32Value3NewEPNS0_5ArenaE T
_ZNK6google8protobuf11UInt32Value3NewEv W
_ZNK6google8protobuf11UInt32Value8GetArenaEv W
_ZNK6google8protobuf11UInt64Value11GetMetadataEv T
_ZNK6google8protobuf11UInt64Value12ByteSizeLongEv T
_ZNK6google8protobuf11UInt64Value13GetCachedSizeEv W
_ZNK6google8protobuf11UInt64Value13IsInitializedEv T
_ZNK6google8protobuf11UInt64Value13SetCachedSizeEi T
_ZNK6google8protobuf11UInt64Value20GetMaybeArenaPointerEv W
_ZNK6google8protobuf11UInt64Value24SerializeWithCachedSizesEPNS0_2io17CodedOutputStreamE T
_ZNK6google8protobuf11UInt64Value39InternalSerializeWithCachedSizesToArrayEbPh T
_ZNK6google8protobuf11UInt64Value3NewEPNS0_5ArenaE T
_ZNK6google8protobuf11UInt64Value3NewEv W
_ZNK6google8protobuf11UInt64Value8GetArenaEv W
_ZNK6google8protobuf12FieldOptions11GetMetadataEv T
_ZNK6google8protobuf12FieldOptions12ByteSizeLongEv T
_ZNK6google8protobuf12FieldOptions13GetCachedSizeEv W
_ZNK6google8protobuf12FieldOptions13IsInitializedEv T
_ZNK6google8protobuf12FieldOptions13SetCachedSizeEi T
_ZNK6google8protobuf12FieldOptions20GetMaybeArenaPointerEv W
_ZNK6google8protobuf12FieldOptions24SerializeWithCachedSizesEPNS0_2io17CodedOutputStreamE T
_ZNK6google8protobuf12FieldOptions39InternalSerializeWithCachedSizesToArrayEbPh T
_ZNK6google8protobuf12FieldOptions3NewEPNS0_5ArenaE T
_ZNK6google8protobuf12FieldOptions3NewEv W
_ZNK6google8protobuf12FieldOptions8GetArenaEv W
_ZNK6google8protobuf12OneofOptions11GetMetadataEv T
_ZNK6google8protobuf12OneofOptions12ByteSizeLongEv T
_ZNK6google8protobuf12OneofOptions13GetCachedSizeEv W
_ZNK6google8protobuf12OneofOptions13IsInitializedEv T
_ZNK6google8protobuf12OneofOptions13SetCachedSizeEi T
_ZNK6google8protobuf12OneofOptions20GetMaybeArenaPointerEv W
_ZNK6google8protobuf12OneofOptions24SerializeWithCachedSizesEPNS0_2io17CodedOutputStreamE T
_ZNK6google8protobuf12OneofOptions39InternalSerializeWithCachedSizesToArrayEbPh T
_ZNK6google8protobuf12OneofOptions3NewEPNS0_5ArenaE T
_ZNK6google8protobuf12OneofOptions3NewEv W
_ZNK6google8protobuf12OneofOptions8GetArenaEv W
_ZNK6google8protobuf12UnknownField29SerializeLengthDelimitedNoTagEPNS0_2io17CodedOutputStreamE T
_ZNK6google8protobuf12UnknownField36SerializeLengthDelimitedNoTagToArrayEPh T
_ZNK6google8protobuf13MethodOptions11GetMetadataEv T
_ZNK6google8protobuf13MethodOptions12ByteSizeLongEv T
_ZNK6google8protobuf13MethodOptions13GetCachedSizeEv W
_ZNK6google8protobuf13MethodOptions13IsInitializedEv T
_ZNK6google8protobuf13MethodOptions13SetCachedSizeEi T
_ZNK6google8protobuf13MethodOptions20GetMaybeArenaPointerEv W
_ZNK6google8protobuf13MethodOptions24SerializeWithCachedSizesEPNS0_2io17CodedOutputStreamE T
_ZNK6google8protobuf13MethodOptions39InternalSerializeWithCachedSizesToArrayEbPh T
_ZNK6google8protobuf13MethodOptions3NewEPNS0_5ArenaE T
_ZNK6google8protobuf13MethodOptions3NewEv W
_ZNK6google8protobuf13MethodOptions8GetArenaEv W
_ZNK6google8protobuf13SourceContext11GetMetadataEv T
_ZNK6google8protobuf13SourceContext12ByteSizeLongEv T
_ZNK6google8protobuf13SourceContext13GetCachedSizeEv W
_ZNK6google8protobuf13SourceContext13IsInitializedEv T
_ZNK6google8protobuf13SourceContext13SetCachedSizeEi T
_ZNK6google8protobuf13SourceContext24SerializeWithCachedSizesEPNS0_2io17CodedOutputStreamE T
_ZNK6google8protobuf13SourceContext39InternalSerializeWithCachedSizesToArrayEbPh T
_ZNK6google8protobuf13SourceContext3NewEPNS0_5ArenaE T
_ZNK6google8protobuf13SourceContext3NewEv W
_ZNK6google8protobuf14DescriptorPool14FindFileByNameERKNSt7__cxx1112basic_stringIcSt11char_traitsIcESaIcEEE T
_ZNK6google8protobuf14DescriptorPool14NewPlaceholderERKNSt7__cxx1112basic_stringIcSt11char_traitsIcESaIcEEENS1_15PlaceholderTypeE T
_ZNK6google8protobuf14DescriptorPool15FindFieldByNameERKNSt7__cxx1112basic_stringIcSt11char_traitsIcESaIcEEE T
_ZNK6google8protobuf14DescriptorPool15FindOneofByNameERKNSt7__cxx1112basic_stringIcSt11char_traitsIcESaIcEEE T
_ZNK6google8protobuf14DescriptorPool16FindMethodByNameERKNSt7__cxx1112basic_stringIcSt11char_traitsIcESaIcEEE T
_ZNK6google8protobuf14DescriptorPool17FindAllExtensionsEPKNS0_10DescriptorEPSt6vectorIPKNS0_15FieldDescriptorESaIS8_EE T
_ZNK6google8protobuf14DescriptorPool17FindServiceByNameERKNSt7__cxx1112basic_stringIcSt11char_traitsIcESaIcEEE T
_ZNK6google8protobuf14DescriptorPool18FindEnumTypeByNameERKNSt7__cxx1112basic_stringIcSt11char_traitsIcESaIcEEE T
_ZNK6google8protobuf14DescriptorPool18NewPlaceholderFileERKNSt7__cxx1112basic_stringIcSt11char_traitsIcESaIcEEE T
_ZNK6google8protobuf14DescriptorPool19FindEnumValueByNameERKNSt7__cxx1112basic_stringIcSt11char_traitsIcESaIcEEE T
_ZNK6google8protobuf14DescriptorPool19FindExtensionByNameERKNSt7__cxx1112basic_stringIcSt11char_traitsIcESaIcEEE T
_ZNK6google8protobuf14DescriptorPool20InternalIsFileLoadedERKNSt7__cxx1112basic_stringIcSt11char_traitsIcESaIcEEE T
_ZNK6google8protobuf14DescriptorPool21BuildFileFromDatabaseERKNS0_19FileDescriptorProtoE T
_ZNK6google8protobuf14DescriptorPool21FindExtensionByNumberEPKNS0_10DescriptorEi T
_ZNK6google8protobuf14DescriptorPool21FindMessageTypeByNameERKNSt7__cxx1112basic_stringIcSt11char_traitsIcESaIcEEE T
_ZNK6google8protobuf14DescriptorPool22IsSubSymbolOfBuiltTypeERKNSt7__cxx1112basic_stringIcSt11char_traitsIcESaIcEEE T
_ZNK6google8protobuf14DescriptorPool23CrossLinkOnDemandHelperERKNSt7__cxx1112basic_stringIcSt11char_traitsIcESaIcEEEb T
_ZNK6google8protobuf14DescriptorPool24FindFileContainingSymbolERKNSt7__cxx1112basic_stringIcSt11char_traitsIcESaIcEEE T
_ZNK6google8protobuf14DescriptorPool27NewPlaceholderWithMutexHeldERKNSt7__cxx1112basic_stringIcSt11char_traitsIcESaIcEEENS1_15PlaceholderTypeE T
_ZNK6google8protobuf14DescriptorPool29TryFindFileInFallbackDatabaseERKNSt7__cxx1112basic_stringIcSt11char_traitsIcESaIcEEE T
_ZNK6google8protobuf14DescriptorPool31NewPlaceholderFileWithMutexHeldERKNSt7__cxx1112basic_stringIcSt11char_traitsIcESaIcEEE T
_ZNK6google8protobuf14DescriptorPool31TryFindSymbolInFallbackDatabaseERKNSt7__cxx1112basic_stringIcSt11char_traitsIcESaIcEEE T
_ZNK6google8protobuf14DescriptorPool34TryFindExtensionInFallbackDatabaseEPKNS0_10DescriptorEi T
_ZNK6google8protobuf14DynamicMessage11GetMetadataEv T
_ZNK6google8protobuf14DynamicMessage13GetCachedSizeEv T
_ZNK6google8protobuf14DynamicMessage13SetCachedSizeEi T
_ZNK6google8protobuf14DynamicMessage3NewEPNS0_5ArenaE T
_ZNK6google8protobuf14DynamicMessage3NewEv T
_ZNK6google8protobuf14DynamicMessage8GetArenaEv W
_ZNK6google8protobuf14EnumDescriptor11DebugStringB5cxx11Ev T
_ZNK6google8protobuf14EnumDescriptor11DebugStringEiPNSt7__cxx1112basic_stringIcSt11char_traitsIcESaIcEEERKNS0_18DebugStringOptionsE T
_ZNK6google8protobuf14EnumDescriptor15FindValueByNameERKNSt7__cxx1112basic_stringIcSt11char_traitsIcESaIcEEE T
_ZNK6google8protobuf14EnumDescriptor15GetLocationPathEPSt6vectorIiSaIiEE T
_ZNK6google8protobuf14EnumDescriptor17FindValueByNumberEi T
_ZNK6google8protobuf14EnumDescriptor17GetSourceLocationEPNS0_14SourceLocationE T
_ZNK6google8protobuf14EnumDescriptor22DebugStringWithOptionsB5cxx11ERKNS0_18DebugStringOptionsE T
_ZNK6google8protobuf14EnumDescriptor33FindReservedRangeContainingNumberEi T
_ZNK6google8protobuf14EnumDescriptor34FindValueByNumberCreatingIfUnknownEi T
_ZNK6google8protobuf14EnumDescriptor6CopyToEPNS0_19EnumDescriptorProtoE T
_ZNK6google8protobuf14FileDescriptor10dependencyEi T
_ZNK6google8protobuf14FileDescriptor11DebugStringB5cxx11Ev T
_ZNK6google8protobuf14FileDescriptor14CopyJsonNameToEPNS0_19FileDescriptorProtoE T
_ZNK6google8protobuf14FileDescriptor17FindServiceByNameERKNSt7__cxx1112basic_stringIcSt11char_traitsIcESaIcEEE T
_ZNK6google8protobuf14FileDescriptor17GetSourceLocationEPNS0_14SourceLocationE T
_ZNK6google8protobuf14FileDescriptor17GetSourceLocationERKSt6vectorIiSaIiEEPNS0_14SourceLocationE T
_ZNK6google8protobuf14FileDescriptor18FindEnumTypeByNameERKNSt7__cxx1112basic_stringIcSt11char_traitsIcESaIcEEE T
_ZNK6google8protobuf14FileDescriptor19FindEnumValueByNameERKNSt7__cxx1112basic_stringIcSt11char_traitsIcESaIcEEE T
_ZNK6google8protobuf14FileDescriptor19FindExtensionByNameERKNSt7__cxx1112basic_stringIcSt11char_traitsIcESaIcEEE T
_ZNK6google8protobuf14FileDescriptor20CopySourceCodeInfoToEPNS0_19FileDescriptorProtoE T
_ZNK6google8protobuf14FileDescriptor21FindMessageTypeByNameERKNSt7__cxx1112basic_stringIcSt11char_traitsIcESaIcEEE T
_ZNK6google8protobuf14FileDescriptor22DebugStringWithOptionsB5cxx11ERKNS0_18DebugStringOptionsE T
_ZNK6google8protobuf14FileDescriptor28FindExtensionByCamelcaseNameERKNSt7__cxx1112basic_stringIcSt11char_traitsIcESaIcEEE T
_ZNK6google8protobuf14FileDescriptor28FindExtensionByLowercaseNameERKNSt7__cxx1112basic_stringIcSt11char_traitsIcESaIcEEE T
_ZNK6google8protobuf14FileDescriptor28InternalDependenciesOnceInitEv T
_ZNK6google8protobuf14FileDescriptor6CopyToEPNS0_19FileDescriptorProtoE T
_ZNK6google8protobuf14MessageOptions11GetMetadataEv T
_ZNK6google8protobuf14MessageOptions12ByteSizeLongEv T
_ZNK6google8protobuf14MessageOptions13GetCachedSizeEv W
_ZNK6google8protobuf14MessageOptions13IsInitializedEv T
_ZNK6google8protobuf14MessageOptions13SetCachedSizeEi T
_ZNK6google8protobuf14MessageOptions20GetMaybeArenaPointerEv W
_ZNK6google8protobuf14MessageOptions24SerializeWithCachedSizesEPNS0_2io17CodedOutputStreamE T
_ZNK6google8protobuf14MessageOptions39InternalSerializeWithCachedSizesToArrayEbPh T
_ZNK6google8protobuf14MessageOptions3NewEPNS0_5ArenaE T
_ZNK6google8protobuf14MessageOptions3NewEv W
_ZNK6google8protobuf14MessageOptions8GetArenaEv W
_ZNK6google8protobuf14ServiceOptions11GetMetadataEv T
_ZNK6google8protobuf14ServiceOptions12ByteSizeLongEv T
_ZNK6google8protobuf14ServiceOptions13GetCachedSizeEv W
_ZNK6google8protobuf14ServiceOptions13IsInitializedEv T
_ZNK6google8protobuf14ServiceOptions13SetCachedSizeEi T
_ZNK6google8protobuf14ServiceOptions20GetMaybeArenaPointerEv W
_ZNK6google8protobuf14ServiceOptions24SerializeWithCachedSizesEPNS0_2io17CodedOutputStreamE T
_ZNK6google8protobuf14ServiceOptions39InternalSerializeWithCachedSizesToArrayEbPh T
_ZNK6google8protobuf14ServiceOptions3NewEPNS0_5ArenaE T
_ZNK6google8protobuf14ServiceOptions3NewEv W
_ZNK6google8protobuf14ServiceOptions8GetArenaEv W
_ZNK6google8protobuf14SourceCodeInfo11GetMetadataEv T
_ZNK6google8protobuf14SourceCodeInfo12ByteSizeLongEv T
_ZNK6google8protobuf14SourceCodeInfo13GetCachedSizeEv W
_ZNK6google8protobuf14SourceCodeInfo13IsInitializedEv T
_ZNK6google8protobuf14SourceCodeInfo13SetCachedSizeEi T
_ZNK6google8protobuf14SourceCodeInfo20GetMaybeArenaPointerEv W
_ZNK6google8protobuf14SourceCodeInfo24SerializeWithCachedSizesEPNS0_2io17CodedOutputStreamE T
_ZNK6google8protobuf14SourceCodeInfo39InternalSerializeWithCachedSizesToArrayEbPh T
_ZNK6google8protobuf14SourceCodeInfo3NewEPNS0_5ArenaE T
_ZNK6google8protobuf14SourceCodeInfo3NewEv W
_ZNK6google8protobuf14SourceCodeInfo8GetArenaEv W
_ZNK6google8protobuf15DescriptorProto11GetMetadataEv T
_ZNK6google8protobuf15DescriptorProto12ByteSizeLongEv T
_ZNK6google8protobuf15DescriptorProto13GetCachedSizeEv W
_ZNK6google8protobuf15DescriptorProto13IsInitializedEv T
_ZNK6google8protobuf15DescriptorProto13SetCachedSizeEi T
_ZNK6google8protobuf15DescriptorProto20GetMaybeArenaPointerEv W
_ZNK6google8protobuf15DescriptorProto24SerializeWithCachedSizesEPNS0_2io17CodedOutputStreamE T
_ZNK6google8protobuf15DescriptorProto39InternalSerializeWithCachedSizesToArrayEbPh T
_ZNK6google8protobuf15DescriptorProto3NewEPNS0_5ArenaE T
_ZNK6google8protobuf15DescriptorProto3NewEv W
_ZNK6google8protobuf15DescriptorProto8GetArenaEv W
_ZNK6google8protobuf15FieldDescriptor11DebugStringB5cxx11Ev T
_ZNK6google8protobuf15FieldDescriptor11DebugStringEiNS1_14PrintLabelFlagEPNSt7__cxx1112basic_stringIcSt11char_traitsIcESaIcEEERKNS0_18DebugStringOptionsE T
_ZNK6google8protobuf15FieldDescriptor12message_typeEv T
_ZNK6google8protobuf15FieldDescriptor14CopyJsonNameToEPNS0_20FieldDescriptorProtoE T
_ZNK6google8protobuf15FieldDescriptor15GetLocationPathEPSt6vectorIiSaIiEE T
_ZNK6google8protobuf15FieldDescriptor17GetSourceLocationEPNS0_14SourceLocationE T
_ZNK6google8protobuf15FieldDescriptor18default_value_enumEv T
_ZNK6google8protobuf15FieldDescriptor19is_map_message_typeEv T
_ZNK6google8protobuf15FieldDescriptor20DefaultValueAsStringB5cxx11Eb T
_ZNK6google8protobuf15FieldDescriptor20InternalTypeOnceInitEv T
_ZNK6google8protobuf15FieldDescriptor22DebugStringWithOptionsB5cxx11ERKNS0_18DebugStringOptionsE T
_ZNK6google8protobuf15FieldDescriptor24FieldTypeNameDebugStringB5cxx11Ev T
_ZNK6google8protobuf15FieldDescriptor6CopyToEPNS0_20FieldDescriptorProtoE T
_ZNK6google8protobuf15FieldDescriptor6is_mapEv W
_ZNK6google8protobuf15FieldDescriptor9enum_typeEv T
_ZNK6google8protobuf15FieldDescriptor9is_packedEv T
_ZNK6google8protobuf15OneofDescriptor11DebugStringB5cxx11Ev T
_ZNK6google8protobuf15OneofDescriptor11DebugStringEiPNSt7__cxx1112basic_stringIcSt11char_traitsIcESaIcEEERKNS0_18DebugStringOptionsE T
_ZNK6google8protobuf15OneofDescriptor15GetLocationPathEPSt6vectorIiSaIiEE T
_ZNK6google8protobuf15OneofDescriptor17GetSourceLocationEPNS0_14SourceLocationE T
_ZNK6google8protobuf15OneofDescriptor22DebugStringWithOptionsB5cxx11ERKNS0_18DebugStringOptionsE T
_ZNK6google8protobuf15OneofDescriptor6CopyToEPNS0_20OneofDescriptorProtoE T
_ZNK6google8protobuf15UnknownFieldSet13SpaceUsedLongEv T
_ZNK6google8protobuf15UnknownFieldSet26SpaceUsedExcludingSelfLongEv T
_ZNK6google8protobuf16EnumValueOptions11GetMetadataEv T
_ZNK6google8protobuf16EnumValueOptions12ByteSizeLongEv T
_ZNK6google8protobuf16EnumValueOptions13GetCachedSizeEv W
_ZNK6google8protobuf16EnumValueOptions13IsInitializedEv T
_ZNK6google8protobuf16EnumValueOptions13SetCachedSizeEi T
_ZNK6google8protobuf16EnumValueOptions20GetMaybeArenaPointerEv W
_ZNK6google8protobuf16EnumValueOptions24SerializeWithCachedSizesEPNS0_2io17CodedOutputStreamE T
_ZNK6google8protobuf16EnumValueOptions39InternalSerializeWithCachedSizesToArrayEbPh T
_ZNK6google8protobuf16EnumValueOptions3NewEPNS0_5ArenaE T
_ZNK6google8protobuf16EnumValueOptions3NewEv W
_ZNK6google8protobuf16EnumValueOptions8GetArenaEv W
_ZNK6google8protobuf16MethodDescriptor10input_typeEv T
_ZNK6google8protobuf16MethodDescriptor11DebugStringB5cxx11Ev T
_ZNK6google8protobuf16MethodDescriptor11DebugStringEiPNSt7__cxx1112basic_stringIcSt11char_traitsIcESaIcEEERKNS0_18DebugStringOptionsE T
_ZNK6google8protobuf16MethodDescriptor11output_typeEv T
_ZNK6google8protobuf16MethodDescriptor15GetLocationPathEPSt6vectorIiSaIiEE T
_ZNK6google8protobuf16MethodDescriptor17GetSourceLocationEPNS0_14SourceLocationE T
_ZNK6google8protobuf16MethodDescriptor22DebugStringWithOptionsB5cxx11ERKNS0_18DebugStringOptionsE T
_ZNK6google8protobuf16MethodDescriptor6CopyToEPNS0_21MethodDescriptorProtoE T
_ZNK6google8protobuf17DescriptorBuilder17OptionInterpreter21AggregateOptionFinder13FindExtensionEPNS0_7MessageERKNSt7__cxx1112basic_stringIcSt11char_traitsIcESaIcEEE W
_ZNK6google8protobuf17FileDescriptorSet11GetMetadataEv T
_ZNK6google8protobuf17FileDescriptorSet12ByteSizeLongEv T
_ZNK6google8protobuf17FileDescriptorSet13GetCachedSizeEv W
_ZNK6google8protobuf17FileDescriptorSet13IsInitializedEv T
_ZNK6google8protobuf17FileDescriptorSet13SetCachedSizeEi T
_ZNK6google8protobuf17FileDescriptorSet20GetMaybeArenaPointerEv W
_ZNK6google8protobuf17FileDescriptorSet24SerializeWithCachedSizesEPNS0_2io17CodedOutputStreamE T
_ZNK6google8protobuf17FileDescriptorSet39InternalSerializeWithCachedSizesToArrayEbPh T
_ZNK6google8protobuf17FileDescriptorSet3NewEPNS0_5ArenaE T
_ZNK6google8protobuf17FileDescriptorSet3NewEv W
_ZNK6google8protobuf17FileDescriptorSet8GetArenaEv W
_ZNK6google8protobuf17GeneratedCodeInfo11GetMetadataEv T
_ZNK6google8protobuf17GeneratedCodeInfo12ByteSizeLongEv T
_ZNK6google8protobuf17GeneratedCodeInfo13GetCachedSizeEv W
_ZNK6google8protobuf17GeneratedCodeInfo13IsInitializedEv T
_ZNK6google8protobuf17GeneratedCodeInfo13SetCachedSizeEi T
_ZNK6google8protobuf17GeneratedCodeInfo20GetMaybeArenaPointerEv W
_ZNK6google8protobuf17GeneratedCodeInfo24SerializeWithCachedSizesEPNS0_2io17CodedOutputStreamE T
_ZNK6google8protobuf17GeneratedCodeInfo39InternalSerializeWithCachedSizesToArrayEbPh T
_ZNK6google8protobuf17GeneratedCodeInfo3NewEPNS0_5ArenaE T
_ZNK6google8protobuf17GeneratedCodeInfo3NewEv W
_ZNK6google8protobuf17GeneratedCodeInfo8GetArenaEv W
_ZNK6google8protobuf17ServiceDescriptor11DebugStringB5cxx11Ev T
_ZNK6google8protobuf17ServiceDescriptor11DebugStringEPNSt7__cxx1112basic_stringIcSt11char_traitsIcESaIcEEERKNS0_18DebugStringOptionsE T
_ZNK6google8protobuf17ServiceDescriptor15GetLocationPathEPSt6vectorIiSaIiEE T
_ZNK6google8protobuf17ServiceDescriptor16FindMethodByNameERKNSt7__cxx1112basic_stringIcSt11char_traitsIcESaIcEEE T
_ZNK6google8protobuf17ServiceDescriptor17GetSourceLocationEPNS0_14SourceLocationE T
_ZNK6google8protobuf17ServiceDescriptor22DebugStringWithOptionsB5cxx11ERKNS0_18DebugStringOptionsE T
_ZNK6google8protobuf17ServiceDescriptor6CopyToEPNS0_22ServiceDescriptorProtoE T
_ZNK6google8protobuf19EnumDescriptorProto11GetMetadataEv T
_ZNK6google8protobuf19EnumDescriptorProto12ByteSizeLongEv T
_ZNK6google8protobuf19EnumDescriptorProto13GetCachedSizeEv W
_ZNK6google8protobuf19EnumDescriptorProto13IsInitializedEv T
_ZNK6google8protobuf19EnumDescriptorProto13SetCachedSizeEi T
_ZNK6google8protobuf19EnumDescriptorProto20GetMaybeArenaPointerEv W
_ZNK6google8protobuf19EnumDescriptorProto24SerializeWithCachedSizesEPNS0_2io17CodedOutputStreamE T
_ZNK6google8protobuf19EnumDescriptorProto39InternalSerializeWithCachedSizesToArrayEbPh T
_ZNK6google8protobuf19EnumDescriptorProto3NewEPNS0_5ArenaE T
_ZNK6google8protobuf19EnumDescriptorProto3NewEv W
_ZNK6google8protobuf19EnumDescriptorProto8GetArenaEv W
_ZNK6google8protobuf19EnumValueDescriptor11DebugStringB5cxx11Ev T
_ZNK6google8protobuf19EnumValueDescriptor11DebugStringEiPNSt7__cxx1112basic_stringIcSt11char_traitsIcESaIcEEERKNS0_18DebugStringOptionsE T
_ZNK6google8protobuf19EnumValueDescriptor15GetLocationPathEPSt6vectorIiSaIiEE T
_ZNK6google8protobuf19EnumValueDescriptor17GetSourceLocationEPNS0_14SourceLocationE T
_ZNK6google8protobuf19EnumValueDescriptor22DebugStringWithOptionsB5cxx11ERKNS0_18DebugStringOptionsE T
_ZNK6google8protobuf19EnumValueDescriptor6CopyToEPNS0_24EnumValueDescriptorProtoE T
_ZNK6google8protobuf19FileDescriptorProto11GetMetadataEv T
_ZNK6google8protobuf19FileDescriptorProto12ByteSizeLongEv T
_ZNK6google8protobuf19FileDescriptorProto13GetCachedSizeEv W
_ZNK6google8protobuf19FileDescriptorProto13IsInitializedEv T
_ZNK6google8protobuf19FileDescriptorProto13SetCachedSizeEi T
_ZNK6google8protobuf19FileDescriptorProto20GetMaybeArenaPointerEv W
_ZNK6google8protobuf19FileDescriptorProto24SerializeWithCachedSizesEPNS0_2io17CodedOutputStreamE T
_ZNK6google8protobuf19FileDescriptorProto39InternalSerializeWithCachedSizesToArrayEbPh T
_ZNK6google8protobuf19FileDescriptorProto3NewEPNS0_5ArenaE T
_ZNK6google8protobuf19FileDescriptorProto3NewEv W
_ZNK6google8protobuf19FileDescriptorProto8GetArenaEv W
_ZNK6google8protobuf19UninterpretedOption11GetMetadataEv T
_ZNK6google8protobuf19UninterpretedOption12ByteSizeLongEv T
_ZNK6google8protobuf19UninterpretedOption13GetCachedSizeEv W
_ZNK6google8protobuf19UninterpretedOption13IsInitializedEv T
_ZNK6google8protobuf19UninterpretedOption13SetCachedSizeEi T
_ZNK6google8protobuf19UninterpretedOption20GetMaybeArenaPointerEv W
_ZNK6google8protobuf19UninterpretedOption24SerializeWithCachedSizesEPNS0_2io17CodedOutputStreamE T
_ZNK6google8protobuf19UninterpretedOption39InternalSerializeWithCachedSizesToArrayEbPh T
_ZNK6google8protobuf19UninterpretedOption3NewEPNS0_5ArenaE T
_ZNK6google8protobuf19UninterpretedOption3NewEv W
_ZNK6google8protobuf19UninterpretedOption8GetArenaEv W
_ZNK6google8protobuf20FieldDescriptorProto11GetMetadataEv T
_ZNK6google8protobuf20FieldDescriptorProto12ByteSizeLongEv T
_ZNK6google8protobuf20FieldDescriptorProto13GetCachedSizeEv W
_ZNK6google8protobuf20FieldDescriptorProto13IsInitializedEv T
_ZNK6google8protobuf20FieldDescriptorProto13SetCachedSizeEi T
_ZNK6google8protobuf20FieldDescriptorProto20GetMaybeArenaPointerEv W
_ZNK6google8protobuf20FieldDescriptorProto24SerializeWithCachedSizesEPNS0_2io17CodedOutputStreamE T
_ZNK6google8protobuf20FieldDescriptorProto39InternalSerializeWithCachedSizesToArrayEbPh T
_ZNK6google8protobuf20FieldDescriptorProto3NewEPNS0_5ArenaE T
_ZNK6google8protobuf20FieldDescriptorProto3NewEv W
_ZNK6google8protobuf20FieldDescriptorProto8GetArenaEv W
_ZNK6google8protobuf20FileDescriptorTables17GetSourceLocationERKSt6vectorIiSaIiEEPKNS0_14SourceCodeInfoE T
_ZNK6google8protobuf20FileDescriptorTables24FindParentForFieldsByMapEPKNS0_15FieldDescriptorE T
_ZNK6google8protobuf20FileDescriptorTables38FieldsByCamelcaseNamesLazyInitInternalEv T
_ZNK6google8protobuf20FileDescriptorTables38FieldsByLowercaseNamesLazyInitInternalEv T
_ZNK6google8protobuf20OneofDescriptorProto11GetMetadataEv T
_ZNK6google8protobuf20OneofDescriptorProto12ByteSizeLongEv T
_ZNK6google8protobuf20OneofDescriptorProto13GetCachedSizeEv W
_ZNK6google8protobuf20OneofDescriptorProto13IsInitializedEv T
_ZNK6google8protobuf20OneofDescriptorProto13SetCachedSizeEi T
_ZNK6google8protobuf20OneofDescriptorProto20GetMaybeArenaPointerEv W
_ZNK6google8protobuf20OneofDescriptorProto24SerializeWithCachedSizesEPNS0_2io17CodedOutputStreamE T
_ZNK6google8protobuf20OneofDescriptorProto39InternalSerializeWithCachedSizesToArrayEbPh T
_ZNK6google8protobuf20OneofDescriptorProto3NewEPNS0_5ArenaE T
_ZNK6google8protobuf20OneofDescriptorProto3NewEv W
_ZNK6google8protobuf20OneofDescriptorProto8GetArenaEv W
_ZNK6google8protobuf21ExtensionRangeOptions11GetMetadataEv T
_ZNK6google8protobuf21ExtensionRangeOptions12ByteSizeLongEv T
_ZNK6google8protobuf21ExtensionRangeOptions13GetCachedSizeEv W
_ZNK6google8protobuf21ExtensionRangeOptions13IsInitializedEv T
_ZNK6google8protobuf21ExtensionRangeOptions13SetCachedSizeEi T
_ZNK6google8protobuf21ExtensionRangeOptions20GetMaybeArenaPointerEv W
_ZNK6google8protobuf21ExtensionRangeOptions24SerializeWithCachedSizesEPNS0_2io17CodedOutputStreamE T
_ZNK6google8protobuf21ExtensionRangeOptions39InternalSerializeWithCachedSizesToArrayEbPh T
_ZNK6google8protobuf21ExtensionRangeOptions3NewEPNS0_5ArenaE T
_ZNK6google8protobuf21ExtensionRangeOptions3NewEv W
_ZNK6google8protobuf21ExtensionRangeOptions8GetArenaEv W
_ZNK6google8protobuf21MethodDescriptorProto11GetMetadataEv T
_ZNK6google8protobuf21MethodDescriptorProto12ByteSizeLongEv T
_ZNK6google8protobuf21MethodDescriptorProto13GetCachedSizeEv W
_ZNK6google8protobuf21MethodDescriptorProto13IsInitializedEv T
_ZNK6google8protobuf21MethodDescriptorProto13SetCachedSizeEi T
_ZNK6google8protobuf21MethodDescriptorProto20GetMaybeArenaPointerEv W
_ZNK6google8protobuf21MethodDescriptorProto24SerializeWithCachedSizesEPNS0_2io17CodedOutputStreamE T
_ZNK6google8protobuf21MethodDescriptorProto39InternalSerializeWithCachedSizesToArrayEbPh T
_ZNK6google8protobuf21MethodDescriptorProto3NewEPNS0_5ArenaE T
_ZNK6google8protobuf21MethodDescriptorProto3NewEv W
_ZNK6google8protobuf21MethodDescriptorProto8GetArenaEv W
_ZNK6google8protobuf22ServiceDescriptorProto11GetMetadataEv T
_ZNK6google8protobuf22ServiceDescriptorProto12ByteSizeLongEv T
_ZNK6google8protobuf22ServiceDescriptorProto13GetCachedSizeEv W
_ZNK6google8protobuf22ServiceDescriptorProto13IsInitializedEv T
_ZNK6google8protobuf22ServiceDescriptorProto13SetCachedSizeEi T
_ZNK6google8protobuf22ServiceDescriptorProto20GetMaybeArenaPointerEv W
_ZNK6google8protobuf22ServiceDescriptorProto24SerializeWithCachedSizesEPNS0_2io17CodedOutputStreamE T
_ZNK6google8protobuf22ServiceDescriptorProto39InternalSerializeWithCachedSizesToArrayEbPh T
_ZNK6google8protobuf22ServiceDescriptorProto3NewEPNS0_5ArenaE T
_ZNK6google8protobuf22ServiceDescriptorProto3NewEv W
_ZNK6google8protobuf22ServiceDescriptorProto8GetArenaEv W
_ZNK6google8protobuf23SourceCodeInfo_Location11GetMetadataEv T
_ZNK6google8protobuf23SourceCodeInfo_Location12ByteSizeLongEv T
_ZNK6google8protobuf23SourceCodeInfo_Location13GetCachedSizeEv W
_ZNK6google8protobuf23SourceCodeInfo_Location13IsInitializedEv T
_ZNK6google8protobuf23SourceCodeInfo_Location13SetCachedSizeEi T
_ZNK6google8protobuf23SourceCodeInfo_Location20GetMaybeArenaPointerEv W
_ZNK6google8protobuf23SourceCodeInfo_Location24SerializeWithCachedSizesEPNS0_2io17CodedOutputStreamE T
_ZNK6google8protobuf23SourceCodeInfo_Location39InternalSerializeWithCachedSizesToArrayEbPh T
_ZNK6google8protobuf23SourceCodeInfo_Location3NewEPNS0_5ArenaE T
_ZNK6google8protobuf23SourceCodeInfo_Location3NewEv W
_ZNK6google8protobuf23SourceCodeInfo_Location8GetArenaEv W
_ZNK6google8protobuf24EnumValueDescriptorProto11GetMetadataEv T
_ZNK6google8protobuf24EnumValueDescriptorProto12ByteSizeLongEv T
_ZNK6google8protobuf24EnumValueDescriptorProto13GetCachedSizeEv W
_ZNK6google8protobuf24EnumValueDescriptorProto13IsInitializedEv T
_ZNK6google8protobuf24EnumValueDescriptorProto13SetCachedSizeEi T
_ZNK6google8protobuf24EnumValueDescriptorProto20GetMaybeArenaPointerEv W
_ZNK6google8protobuf24EnumValueDescriptorProto24SerializeWithCachedSizesEPNS0_2io17CodedOutputStreamE T
_ZNK6google8protobuf24EnumValueDescriptorProto39InternalSerializeWithCachedSizesToArrayEbPh T
_ZNK6google8protobuf24EnumValueDescriptorProto3NewEPNS0_5ArenaE T
_ZNK6google8protobuf24EnumValueDescriptorProto3NewEv W
_ZNK6google8protobuf24EnumValueDescriptorProto8GetArenaEv W
_ZNK6google8protobuf27Struct_FieldsEntry_DoNotUse11GetMetadataEv T
_ZNK6google8protobuf28GeneratedCodeInfo_Annotation11GetMetadataEv T
_ZNK6google8protobuf28GeneratedCodeInfo_Annotation12ByteSizeLongEv T
_ZNK6google8protobuf28GeneratedCodeInfo_Annotation13GetCachedSizeEv W
_ZNK6google8protobuf28GeneratedCodeInfo_Annotation13IsInitializedEv T
_ZNK6google8protobuf28GeneratedCodeInfo_Annotation13SetCachedSizeEi T
_ZNK6google8protobuf28GeneratedCodeInfo_Annotation20GetMaybeArenaPointerEv W
_ZNK6google8protobuf28GeneratedCodeInfo_Annotation24SerializeWithCachedSizesEPNS0_2io17CodedOutputStreamE T
_ZNK6google8protobuf28GeneratedCodeInfo_Annotation39InternalSerializeWithCachedSizesToArrayEbPh T
_ZNK6google8protobuf28GeneratedCodeInfo_Annotation3NewEPNS0_5ArenaE T
_ZNK6google8protobuf28GeneratedCodeInfo_Annotation3NewEv W
_ZNK6google8protobuf28GeneratedCodeInfo_Annotation8GetArenaEv W
_ZNK6google8protobuf28UninterpretedOption_NamePart11GetMetadataEv T
_ZNK6google8protobuf28UninterpretedOption_NamePart12ByteSizeLongEv T
_ZNK6google8protobuf28UninterpretedOption_NamePart13GetCachedSizeEv W
_ZNK6google8protobuf28UninterpretedOption_NamePart13IsInitializedEv T
_ZNK6google8protobuf28UninterpretedOption_NamePart13SetCachedSizeEi T
_ZNK6google8protobuf28UninterpretedOption_NamePart20GetMaybeArenaPointerEv W
_ZNK6google8protobuf28UninterpretedOption_NamePart24SerializeWithCachedSizesEPNS0_2io17CodedOutputStreamE T
_ZNK6google8protobuf28UninterpretedOption_NamePart30RequiredFieldsByteSizeFallbackEv T
_ZNK6google8protobuf28UninterpretedOption_NamePart39InternalSerializeWithCachedSizesToArrayEbPh T
_ZNK6google8protobuf28UninterpretedOption_NamePart3NewEPNS0_5ArenaE T
_ZNK6google8protobuf28UninterpretedOption_NamePart3NewEv W
_ZNK6google8protobuf28UninterpretedOption_NamePart8GetArenaEv W
_ZNK6google8protobuf29DescriptorProto_ReservedRange11GetMetadataEv T
_ZNK6google8protobuf29DescriptorProto_ReservedRange12ByteSizeLongEv T
_ZNK6google8protobuf29DescriptorProto_ReservedRange13GetCachedSizeEv W
_ZNK6google8protobuf29DescriptorProto_ReservedRange13IsInitializedEv T
_ZNK6google8protobuf29DescriptorProto_ReservedRange13SetCachedSizeEi T
_ZNK6google8protobuf29DescriptorProto_ReservedRange20GetMaybeArenaPointerEv W
_ZNK6google8protobuf29DescriptorProto_ReservedRange24SerializeWithCachedSizesEPNS0_2io17CodedOutputStreamE T
_ZNK6google8protobuf29DescriptorProto_ReservedRange39InternalSerializeWithCachedSizesToArrayEbPh T
_ZNK6google8protobuf29DescriptorProto_ReservedRange3NewEPNS0_5ArenaE T
_ZNK6google8protobuf29DescriptorProto_ReservedRange3NewEv W
_ZNK6google8protobuf29DescriptorProto_ReservedRange8GetArenaEv W
_ZNK6google8protobuf2io15FileInputStream9ByteCountEv T
_ZNK6google8protobuf2io16FileOutputStream9ByteCountEv T
_ZNK6google8protobuf2io18IstreamInputStream9ByteCountEv T
_ZNK6google8protobuf2io19LimitingInputStream9ByteCountEv T
_ZNK6google8protobuf2io19OstreamOutputStream9ByteCountEv T
_ZNK6google8protobuf2io20ZeroCopyOutputStream14AllowsAliasingEv W
_ZNK6google8protobuf2io24ConcatenatingInputStream9ByteCountEv T
_ZNK6google8protobuf30DescriptorProto_ExtensionRange11GetMetadataEv T
_ZNK6google8protobuf30DescriptorProto_ExtensionRange12ByteSizeLongEv T
_ZNK6google8protobuf30DescriptorProto_ExtensionRange13GetCachedSizeEv W
_ZNK6google8protobuf30DescriptorProto_ExtensionRange13IsInitializedEv T
_ZNK6google8protobuf30DescriptorProto_ExtensionRange13SetCachedSizeEi T
_ZNK6google8protobuf30DescriptorProto_ExtensionRange20GetMaybeArenaPointerEv W
_ZNK6google8protobuf30DescriptorProto_ExtensionRange24SerializeWithCachedSizesEPNS0_2io17CodedOutputStreamE T
_ZNK6google8protobuf30DescriptorProto_ExtensionRange39InternalSerializeWithCachedSizesToArrayEbPh T
_ZNK6google8protobuf30DescriptorProto_ExtensionRange3NewEPNS0_5ArenaE T
_ZNK6google8protobuf30DescriptorProto_ExtensionRange3NewEv W
_ZNK6google8protobuf30DescriptorProto_ExtensionRange8GetArenaEv W
_ZNK6google8protobuf37EnumDescriptorProto_EnumReservedRange11GetMetadataEv T
_ZNK6google8protobuf37EnumDescriptorProto_EnumReservedRange12ByteSizeLongEv T
_ZNK6google8protobuf37EnumDescriptorProto_EnumReservedRange13GetCachedSizeEv W
_ZNK6google8protobuf37EnumDescriptorProto_EnumReservedRange13IsInitializedEv T
_ZNK6google8protobuf37EnumDescriptorProto_EnumReservedRange13SetCachedSizeEi T
_ZNK6google8protobuf37EnumDescriptorProto_EnumReservedRange20GetMaybeArenaPointerEv W
_ZNK6google8protobuf37EnumDescriptorProto_EnumReservedRange24SerializeWithCachedSizesEPNS0_2io17CodedOutputStreamE T
_ZNK6google8protobuf37EnumDescriptorProto_EnumReservedRange39InternalSerializeWithCachedSizesToArrayEbPh T
_ZNK6google8protobuf37EnumDescriptorProto_EnumReservedRange3NewEPNS0_5ArenaE T
_ZNK6google8protobuf37EnumDescriptorProto_EnumReservedRange3NewEv W
_ZNK6google8protobuf37EnumDescriptorProto_EnumReservedRange8GetArenaEv W
_ZNK6google8protobuf3Any11GetMetadataEv T
_ZNK6google8protobuf3Any12ByteSizeLongEv T
_ZNK6google8protobuf3Any13GetCachedSizeEv W
_ZNK6google8protobuf3Any13IsInitializedEv T
_ZNK6google8protobuf3Any13SetCachedSizeEi T
_ZNK6google8protobuf3Any24SerializeWithCachedSizesEPNS0_2io17CodedOutputStreamE T
_ZNK6google8protobuf3Any39InternalSerializeWithCachedSizesToArrayEbPh T
_ZNK6google8protobuf3Any3NewEPNS0_5ArenaE T
_ZNK6google8protobuf3Any3NewEv W
_ZNK6google8protobuf3Any8UnpackToEPNS0_7MessageE T
_ZNK6google8protobuf3Api11GetMetadataEv T
_ZNK6google8protobuf3Api12ByteSizeLongEv T
_ZNK6google8protobuf3Api13GetCachedSizeEv W
_ZNK6google8protobuf3Api13IsInitializedEv T
_ZNK6google8protobuf3Api13SetCachedSizeEi T
_ZNK6google8protobuf3Api24SerializeWithCachedSizesEPNS0_2io17CodedOutputStreamE T
_ZNK6google8protobuf3Api39InternalSerializeWithCachedSizesToArrayEbPh T
_ZNK6google8protobuf3Api3NewEPNS0_5ArenaE T
_ZNK6google8protobuf3Api3NewEv W
_ZNK6google8protobuf3MapINS0_6MapKeyENS0_11MapValueRefEE8InnerMap10FindHelperERKS2_PSt23_Rb_tree_const_iteratorIPS2_E W
_ZNK6google8protobuf3MapINSt7__cxx1112basic_stringIcSt11char_traitsIcESaIcEEENS0_5ValueEE8InnerMap10FindHelperERKS7_PSt23_Rb_tree_const_iteratorIPS7_E W
_ZNK6google8protobuf4Enum11GetMetadataEv T
_ZNK6google8protobuf4Enum12ByteSizeLongEv T
_ZNK6google8protobuf4Enum13GetCachedSizeEv W
_ZNK6google8protobuf4Enum13IsInitializedEv T
_ZNK6google8protobuf4Enum13SetCachedSizeEi T
_ZNK6google8protobuf4Enum20GetMaybeArenaPointerEv W
_ZNK6google8protobuf4Enum24SerializeWithCachedSizesEPNS0_2io17CodedOutputStreamE T
_ZNK6google8protobuf4Enum39InternalSerializeWithCachedSizesToArrayEbPh T
_ZNK6google8protobuf4Enum3NewEPNS0_5ArenaE T
_ZNK6google8protobuf4Enum3NewEv W
_ZNK6google8protobuf4Enum8GetArenaEv W
_ZNK6google8protobuf4Type11GetMetadataEv T
_ZNK6google8protobuf4Type12ByteSizeLongEv T
_ZNK6google8protobuf4Type13GetCachedSizeEv W
_ZNK6google8protobuf4Type13IsInitializedEv T
_ZNK6google8protobuf4Type13SetCachedSizeEi T
_ZNK6google8protobuf4Type20GetMaybeArenaPointerEv W
_ZNK6google8protobuf4Type24SerializeWithCachedSizesEPNS0_2io17CodedOutputStreamE T
_ZNK6google8protobuf4Type39InternalSerializeWithCachedSizesToArrayEbPh T
_ZNK6google8protobuf4Type3NewEPNS0_5ArenaE T
_ZNK6google8protobuf4Type3NewEv W
_ZNK6google8protobuf4Type8GetArenaEv W
_ZNK6google8protobuf4util18MessageDifferencer16MapKeyComparator7IsMatchERKNS0_7MessageES6_RKSt6vectorINS2_13SpecificFieldESaIS8_EE W
_ZNK6google8protobuf4util18MessageDifferencer19GetMapKeyComparatorEPKNS0_15FieldDescriptorE T
_ZNK6google8protobuf4util18MessageDifferencer21MapEntryKeyComparator7IsMatchERKNS0_7MessageES6_RKSt6vectorINS2_13SpecificFieldESaIS8_EE T
_ZNK6google8protobuf4util18MessageDifferencer30MultipleFieldsMapKeyComparator15IsMatchInternalERKNS0_7MessageES6_RKSt6vectorINS2_13SpecificFieldESaIS8_EERKS7_IPKNS0_15FieldDescriptorESaISF_EEi W
_ZNK6google8protobuf4util18MessageDifferencer30MultipleFieldsMapKeyComparator7IsMatchERKNS0_7MessageES6_RKSt6vectorINS2_13SpecificFieldESaIS8_EE W
_ZNK6google8protobuf4util22DefaultFieldComparator17ResultFromBooleanEb T
_ZNK6google8protobuf4util9converter11ProtoWriter12ProtoElement6parentEv W
_ZNK6google8protobuf4util9converter11ProtoWriter12ProtoElement8ToStringB5cxx11Ev T
_ZNK6google8protobuf4util9converter12ObjectSource7WriteToEPNS2_12ObjectWriterE W
_ZNK6google8protobuf4util9converter21ObjectLocationTracker8ToStringB5cxx11Ev W
_ZNK6google8protobuf4util9converter22StructuredObjectWriter11BaseElement6parentEv W
_ZNK6google8protobuf4util9converter23ProtoStreamObjectSource10RenderListEPKNS0_5FieldENS0_11StringPieceEjPNS2_12ObjectWriterE T
_ZNK6google8protobuf4util9converter23ProtoStreamObjectSource11RenderFieldEPKNS0_5FieldENS0_11StringPieceEPNS2_12ObjectWriterE T
_ZNK6google8protobuf4util9converter23ProtoStreamObjectSource12NamedWriteToENS0_11StringPieceEPNS2_12ObjectWriterE T
_ZNK6google8protobuf4util9converter23ProtoStreamObjectSource12RenderPackedEPKNS0_5FieldEPNS2_12ObjectWriterE T
_ZNK6google8protobuf4util9converter23ProtoStreamObjectSource12WriteMessageERKNS0_4TypeENS0_11StringPieceEjbPNS2_12ObjectWriterE T
_ZNK6google8protobuf4util9converter23ProtoStreamObjectSource18FindAndVerifyFieldERKNS0_4TypeEj T
_ZNK6google8protobuf4util9converter23ProtoStreamObjectSource19ReadSecondsAndNanosERKNS0_4TypeE T
_ZNK6google8protobuf4util9converter23ProtoStreamObjectSource21RenderNonMessageFieldEPKNS0_5FieldENS0_11StringPieceEPNS2_12ObjectWriterE T
_ZNK6google8protobuf4util9converter23ProtoStreamObjectSource22ReadFieldValueAsStringB5cxx11ERKNS0_5FieldE T
_ZNK6google8protobuf4util9converter23ProtoStreamObjectSource23IncrementRecursionDepthENS0_11StringPieceES4_ T
_ZNK6google8protobuf4util9converter23ProtoStreamObjectSource5IsMapERKNS0_5FieldE T
_ZNK6google8protobuf4util9converter23ProtoStreamObjectSource9RenderMapEPKNS0_5FieldENS0_11StringPieceEjPNS2_12ObjectWriterE T
_ZNK6google8protobuf4util9converter23ProtoStreamObjectWriter4Item6parentEv W
_ZNK6google8protobuf4util9converter23ProtoStreamObjectWriter9AnyWriter5Event6ReplayEPS4_ T
_ZNK6google8protobuf4util9converter9DataPiece12DecodeBase64ENS0_11StringPieceEPNSt7__cxx1112basic_stringIcSt11char_traitsIcESaIcEEE T
_ZNK6google8protobuf4util9converter9DataPiece14GenericConvertIdEENS1_8StatusOrIT_EEv W
_ZNK6google8protobuf4util9converter9DataPiece14GenericConvertIfEENS1_8StatusOrIT_EEv W
_ZNK6google8protobuf4util9converter9DataPiece14StringToNumberIbEENS1_8StatusOrIT_EEPFbNS0_11StringPieceEPS6_E W
_ZNK6google8protobuf4util9converter9DataPiece14StringToNumberIdEENS1_8StatusOrIT_EEPFbNS0_11StringPieceEPS6_E W
_ZNK6google8protobuf4util9converter9DataPiece14StringToNumberIfEENS1_8StatusOrIT_EEPFbNS0_11StringPieceEPS6_E W
_ZNK6google8protobuf4util9converter9DataPiece14StringToNumberIiEENS1_8StatusOrIT_EEPFbNS0_11StringPieceEPS6_E W
_ZNK6google8protobuf4util9converter9DataPiece14StringToNumberIjEENS1_8StatusOrIT_EEPFbNS0_11StringPieceEPS6_E W
_ZNK6google8protobuf4util9converter9DataPiece14StringToNumberIlEENS1_8StatusOrIT_EEPFbNS0_11StringPieceEPS6_E W
_ZNK6google8protobuf4util9converter9DataPiece14StringToNumberImEENS1_8StatusOrIT_EEPFbNS0_11StringPieceEPS6_E W
_ZNK6google8protobuf4util9converter9DataPiece22ValueAsStringOrDefaultB5cxx11ENS0_11StringPieceE T
_ZNK6google8protobuf4util9converter9DataPiece6ToBoolEv T
_ZNK6google8protobuf4util9converter9DataPiece6ToEnumEPKNS0_4EnumEb T
_ZNK6google8protobuf4util9converter9DataPiece7ToBytesB5cxx11Ev T
_ZNK6google8protobuf4util9converter9DataPiece7ToFloatEv T
_ZNK6google8protobuf4util9converter9DataPiece7ToInt32Ev T
_ZNK6google8protobuf4util9converter9DataPiece7ToInt64Ev T
_ZNK6google8protobuf4util9converter9DataPiece8ToDoubleEv T
_ZNK6google8protobuf4util9converter9DataPiece8ToStringB5cxx11Ev T
_ZNK6google8protobuf4util9converter9DataPiece8ToUint32Ev T
_ZNK6google8protobuf4util9converter9DataPiece8ToUint64Ev T
_ZNK6google8protobuf5Empty11GetMetadataEv T
_ZNK6google8protobuf5Empty12ByteSizeLongEv T
_ZNK6google8protobuf5Empty13GetCachedSizeEv W
_ZNK6google8protobuf5Empty13IsInitializedEv T
_ZNK6google8protobuf5Empty13SetCachedSizeEi T
_ZNK6google8protobuf5Empty20GetMaybeArenaPointerEv W
_ZNK6google8protobuf5Empty24SerializeWithCachedSizesEPNS0_2io17CodedOutputStreamE T
_ZNK6google8protobuf5Empty39InternalSerializeWithCachedSizesToArrayEbPh T
_ZNK6google8protobuf5Empty3NewEPNS0_5ArenaE T
_ZNK6google8protobuf5Empty3NewEv W
_ZNK6google8protobuf5Empty8GetArenaEv W
_ZNK6google8protobuf5Field11GetMetadataEv T
_ZNK6google8protobuf5Field12ByteSizeLongEv T
_ZNK6google8protobuf5Field13GetCachedSizeEv W
_ZNK6google8protobuf5Field13IsInitializedEv T
_ZNK6google8protobuf5Field13SetCachedSizeEi T
_ZNK6google8protobuf5Field20GetMaybeArenaPointerEv W
_ZNK6google8protobuf5Field24SerializeWithCachedSizesEPNS0_2io17CodedOutputStreamE T
_ZNK6google8protobuf5Field39InternalSerializeWithCachedSizesToArrayEbPh T
_ZNK6google8protobuf5Field3NewEPNS0_5ArenaE T
_ZNK6google8protobuf5Field3NewEv W
_ZNK6google8protobuf5Field8GetArenaEv W
_ZNK6google8protobuf5Mixin11GetMetadataEv T
_ZNK6google8protobuf5Mixin12ByteSizeLongEv T
_ZNK6google8protobuf5Mixin13GetCachedSizeEv W
_ZNK6google8protobuf5Mixin13IsInitializedEv T
_ZNK6google8protobuf5Mixin13SetCachedSizeEi T
_ZNK6google8protobuf5Mixin24SerializeWithCachedSizesEPNS0_2io17CodedOutputStreamE T
_ZNK6google8protobuf5Mixin39InternalSerializeWithCachedSizesToArrayEbPh T
_ZNK6google8protobuf5Mixin3NewEPNS0_5ArenaE T
_ZNK6google8protobuf5Mixin3NewEv W
_ZNK6google8protobuf5Value11GetMetadataEv T
_ZNK6google8protobuf5Value12ByteSizeLongEv T
_ZNK6google8protobuf5Value13GetCachedSizeEv W
_ZNK6google8protobuf5Value13IsInitializedEv T
_ZNK6google8protobuf5Value13SetCachedSizeEi T
_ZNK6google8protobuf5Value20GetMaybeArenaPointerEv W
_ZNK6google8protobuf5Value24SerializeWithCachedSizesEPNS0_2io17CodedOutputStreamE T
_ZNK6google8protobuf5Value39InternalSerializeWithCachedSizesToArrayEbPh T
_ZNK6google8protobuf5Value3NewEPNS0_5ArenaE T
_ZNK6google8protobuf5Value3NewEv W
_ZNK6google8protobuf5Value8GetArenaEv W
_ZNK6google8protobuf6MapKey12GetBoolValueEv W
_ZNK6google8protobuf6MapKey13GetInt32ValueEv W
_ZNK6google8protobuf6MapKey13GetInt64ValueEv W
_ZNK6google8protobuf6MapKey14GetStringValueB5cxx11Ev W
_ZNK6google8protobuf6MapKey14GetUInt32ValueEv W
_ZNK6google8protobuf6MapKey14GetUInt64ValueEv W
_ZNK6google8protobuf6MapKey4typeEv W
_ZNK6google8protobuf6Method11GetMetadataEv T
_ZNK6google8protobuf6Method12ByteSizeLongEv T
_ZNK6google8protobuf6Method13GetCachedSizeEv W
_ZNK6google8protobuf6Method13IsInitializedEv T
_ZNK6google8protobuf6Method13SetCachedSizeEi T
_ZNK6google8protobuf6Method24SerializeWithCachedSizesEPNS0_2io17CodedOutputStreamE T
_ZNK6google8protobuf6Method39InternalSerializeWithCachedSizesToArrayEbPh T
_ZNK6google8protobuf6Method3NewEPNS0_5ArenaE T
_ZNK6google8protobuf6Method3NewEv W
_ZNK6google8protobuf6Option11GetMetadataEv T
_ZNK6google8protobuf6Option12ByteSizeLongEv T
_ZNK6google8protobuf6Option13GetCachedSizeEv W
_ZNK6google8protobuf6Option13IsInitializedEv T
_ZNK6google8protobuf6Option13SetCachedSizeEi T
_ZNK6google8protobuf6Option20GetMaybeArenaPointerEv W
_ZNK6google8protobuf6Option24SerializeWithCachedSizesEPNS0_2io17CodedOutputStreamE T
_ZNK6google8protobuf6Option39InternalSerializeWithCachedSizesToArrayEbPh T
_ZNK6google8protobuf6Option3NewEPNS0_5ArenaE T
_ZNK6google8protobuf6Option3NewEv W
_ZNK6google8protobuf6Option8GetArenaEv W
_ZNK6google8protobuf6Struct11GetMetadataEv T
_ZNK6google8protobuf6Struct12ByteSizeLongEv T
_ZNK6google8protobuf6Struct13GetCachedSizeEv W
_ZNK6google8protobuf6Struct13IsInitializedEv T
_ZNK6google8protobuf6Struct13SetCachedSizeEi T
_ZNK6google8protobuf6Struct20GetMaybeArenaPointerEv W
_ZNK6google8protobuf6Struct24SerializeWithCachedSizesEPNS0_2io17CodedOutputStreamE T
_ZNK6google8protobuf6Struct39InternalSerializeWithCachedSizesToArrayEbPh T
_ZNK6google8protobuf6Struct3NewEPNS0_5ArenaE T
_ZNK6google8protobuf6Struct3NewEv W
_ZNK6google8protobuf6Struct8GetArenaEv W
_ZNK6google8protobuf7Message11DebugStringB5cxx11Ev T
_ZNK6google8protobuf7Message11GetTypeNameB5cxx11Ev T
_ZNK6google8protobuf7Message12ByteSizeLongEv T
_ZNK6google8protobuf7Message13GetReflectionEv W
_ZNK6google8protobuf7Message13IsInitializedEv T
_ZNK6google8protobuf7Message13SetCachedSizeEi T
_ZNK6google8protobuf7Message13SpaceUsedLongEv T
_ZNK6google8protobuf7Message15Utf8DebugStringB5cxx11Ev T
_ZNK6google8protobuf7Message16CheckInitializedEv T
_ZNK6google8protobuf7Message16PrintDebugStringEv T
_ZNK6google8protobuf7Message16ShortDebugStringB5cxx11Ev T
_ZNK6google8protobuf7Message18SerializeToOstreamEPSo T
_ZNK6google8protobuf7Message24FindInitializationErrorsEPSt6vectorINSt7__cxx1112basic_stringIcSt11char_traitsIcESaIcEEESaIS8_EE T
_ZNK6google8protobuf7Message24SerializeWithCachedSizesEPNS0_2io17CodedOutputStreamE T
_ZNK6google8protobuf7Message25InitializationErrorStringB5cxx11Ev T
_ZNK6google8protobuf7Message25SerializePartialToOstreamEPSo T
_ZNK6google8protobuf7Message25SerializeToFileDescriptorEi T
_ZNK6google8protobuf7Message32SerializePartialToFileDescriptorEi T
_ZNK6google8protobuf7Message3NewEPNS0_5ArenaE W
_ZNK6google8protobuf8Duration11GetMetadataEv T
_ZNK6google8protobuf8Duration12ByteSizeLongEv T
_ZNK6google8protobuf8Duration13GetCachedSizeEv W
_ZNK6google8protobuf8Duration13IsInitializedEv T
_ZNK6google8protobuf8Duration13SetCachedSizeEi T
_ZNK6google8protobuf8Duration20GetMaybeArenaPointerEv W
_ZNK6google8protobuf8Duration24SerializeWithCachedSizesEPNS0_2io17CodedOutputStreamE T
_ZNK6google8protobuf8Duration39InternalSerializeWithCachedSizesToArrayEbPh T
_ZNK6google8protobuf8Duration3NewEPNS0_5ArenaE T
_ZNK6google8protobuf8Duration3NewEv W
_ZNK6google8protobuf8Duration8GetArenaEv W
_ZNK6google8protobuf8compiler19SourceLocationTable4FindEPKNS0_7MessageENS0_14DescriptorPool14ErrorCollector13ErrorLocationEPiS9_ T
_ZNK6google8protobuf8compiler6Parser16LocationRecorder14AttachCommentsEPNSt7__cxx1112basic_stringIcSt11char_traitsIcESaIcEEESA_PSt6vectorIS9_SaIS9_EE T
_ZNK6google8protobuf8internal11AnyMetadata10InternalIsEPKNS0_10DescriptorE T
_ZNK6google8protobuf8internal11AnyMetadata8UnpackToEPNS0_7MessageE T
_ZNK6google8protobuf8internal12ExtensionSet10GetMessageEiPKNS0_10DescriptorEPNS0_14MessageFactoryE T
_ZNK6google8protobuf8internal12ExtensionSet12AppendToListEPKNS0_10DescriptorEPKNS0_14DescriptorPoolEPSt6vectorIPKNS0_15FieldDescriptorESaISC_EE T
_ZNK6google8protobuf8internal12ExtensionSet18MessageSetByteSizeEv T
_ZNK6google8protobuf8internal12ExtensionSet20LazyMessageExtension27InternalWriteMessageToArrayEibPh W
_ZNK6google8protobuf8internal12ExtensionSet22SpaceUsedExcludingSelfEv T
_ZNK6google8protobuf8internal12ExtensionSet26SpaceUsedExcludingSelfLongEv T
_ZNK6google8protobuf8internal12ExtensionSet31SerializeWithCachedSizesToArrayEiiPh T
_ZNK6google8protobuf8internal12ExtensionSet34SerializeMessageSetWithCachedSizesEPNS0_2io17CodedOutputStreamE T
_ZNK6google8protobuf8internal12ExtensionSet39InternalSerializeWithCachedSizesToArrayEiibPh T
_ZNK6google8protobuf8internal12ExtensionSet41SerializeMessageSetWithCachedSizesToArrayEPh T
_ZNK6google8protobuf8internal12ExtensionSet49InternalSerializeMessageSetWithCachedSizesToArrayEbPh T
_ZNK6google8protobuf8internal12ExtensionSet9Extension22MessageSetItemByteSizeEi T
_ZNK6google8protobuf8internal12ExtensionSet9Extension26SpaceUsedExcludingSelfLongEv T
_ZNK6google8protobuf8internal12ExtensionSet9Extension38SerializeMessageSetItemWithCachedSizesEiPNS0_2io17CodedOutputStreamE T
_ZNK6google8protobuf8internal12ExtensionSet9Extension44InternalSerializeFieldWithCachedSizesToArrayEibPh T
_ZNK6google8protobuf8internal12ExtensionSet9Extension53InternalSerializeMessageSetItemWithCachedSizesToArrayEibPh T
_ZNK6google8protobuf8internal12MapEntryImplINS0_27Struct_FieldsEntry_DoNotUseENS0_7MessageENSt7__cxx1112basic_stringIcSt11char_traitsIcESaIcEEENS0_5ValueELNS1_14WireFormatLite9FieldTypeE9ELSD_11ELi0EE11GetTypeNameEv W
_ZNK6google8protobuf8internal12MapEntryImplINS0_27Struct_FieldsEntry_DoNotUseENS0_7MessageENSt7__cxx1112basic_stringIcSt11char_traitsIcESaIcEEENS0_5ValueELNS1_14WireFormatLite9FieldTypeE9ELSD_11ELi0EE12ByteSizeLongEv W
_ZNK6google8protobuf8internal12MapEntryImplINS0_27Struct_FieldsEntry_DoNotUseENS0_7MessageENSt7__cxx1112basic_stringIcSt11char_traitsIcESaIcEEENS0_5ValueELNS1_14WireFormatLite9FieldTypeE9ELSD_11ELi0EE13GetCachedSizeEv W
_ZNK6google8protobuf8internal12MapEntryImplINS0_27Struct_FieldsEntry_DoNotUseENS0_7MessageENSt7__cxx1112basic_stringIcSt11char_traitsIcESaIcEEENS0_5ValueELNS1_14WireFormatLite9FieldTypeE9ELSD_11ELi0EE13IsInitializedEv W
_ZNK6google8protobuf8internal12MapEntryImplINS0_27Struct_FieldsEntry_DoNotUseENS0_7MessageENSt7__cxx1112basic_stringIcSt11char_traitsIcESaIcEEENS0_5ValueELNS1_14WireFormatLite9FieldTypeE9ELSD_11ELi0EE13SpaceUsedLongEv W
_ZNK6google8protobuf8internal12MapEntryImplINS0_27Struct_FieldsEntry_DoNotUseENS0_7MessageENSt7__cxx1112basic_stringIcSt11char_traitsIcESaIcEEENS0_5ValueELNS1_14WireFormatLite9FieldTypeE9ELSD_11ELi0EE15MapEntryWrapper3keyEv W
_ZNK6google8protobuf8internal12MapEntryImplINS0_27Struct_FieldsEntry_DoNotUseENS0_7MessageENSt7__cxx1112basic_stringIcSt11char_traitsIcESaIcEEENS0_5ValueELNS1_14WireFormatLite9FieldTypeE9ELSD_11ELi0EE15MapEntryWrapper5valueEv W
_ZNK6google8protobuf8internal12MapEntryImplINS0_27Struct_FieldsEntry_DoNotUseENS0_7MessageENSt7__cxx1112basic_stringIcSt11char_traitsIcESaIcEEENS0_5ValueELNS1_14WireFormatLite9FieldTypeE9ELSD_11ELi0EE24SerializeWithCachedSizesEPNS0_2io17CodedOutputStreamE W
_ZNK6google8protobuf8internal12MapEntryImplINS0_27Struct_FieldsEntry_DoNotUseENS0_7MessageENSt7__cxx1112basic_stringIcSt11char_traitsIcESaIcEEENS0_5ValueELNS1_14WireFormatLite9FieldTypeE9ELSD_11ELi0EE39InternalSerializeWithCachedSizesToArrayEbPh W
_ZNK6google8protobuf8internal12MapEntryImplINS0_27Struct_FieldsEntry_DoNotUseENS0_7MessageENSt7__cxx1112basic_stringIcSt11char_traitsIcESaIcEEENS0_5ValueELNS1_14WireFormatLite9FieldTypeE9ELSD_11ELi0EE3NewEPNS0_5ArenaE W
_ZNK6google8protobuf8internal12MapEntryImplINS0_27Struct_FieldsEntry_DoNotUseENS0_7MessageENSt7__cxx1112basic_stringIcSt11char_traitsIcESaIcEEENS0_5ValueELNS1_14WireFormatLite9FieldTypeE9ELSD_11ELi0EE3NewEv W
_ZNK6google8protobuf8internal12MapEntryImplINS0_27Struct_FieldsEntry_DoNotUseENS0_7MessageENSt7__cxx1112basic_stringIcSt11char_traitsIcESaIcEEENS0_5ValueELNS1_14WireFormatLite9FieldTypeE9ELSD_11ELi0EE3keyEv W
_ZNK6google8protobuf8internal12MapEntryImplINS0_27Struct_FieldsEntry_DoNotUseENS0_7MessageENSt7__cxx1112basic_stringIcSt11char_traitsIcESaIcEEENS0_5ValueELNS1_14WireFormatLite9FieldTypeE9ELSD_11ELi0EE5valueEv W
_ZNK6google8protobuf8internal12MapEntryImplINS0_27Struct_FieldsEntry_DoNotUseENS0_7MessageENSt7__cxx1112basic_stringIcSt11char_traitsIcESaIcEEENS0_5ValueELNS1_14WireFormatLite9FieldTypeE9ELSD_11ELi0EE8GetArenaEv W
_ZNK6google8protobuf8internal12MapFieldBase10IsMapValidEv T
_ZNK6google8protobuf8internal12MapFieldBase16GetRepeatedFieldEv T
_ZNK6google8protobuf8internal12MapFieldBase23MutableRepeatedPtrFieldEv T
_ZNK6google8protobuf8internal12MapFieldBase24SyncMapWithRepeatedFieldEv T
_ZNK6google8protobuf8internal12MapFieldBase24SyncRepeatedFieldWithMapEv T
_ZNK6google8protobuf8internal12MapFieldBase26SpaceUsedExcludingSelfLongEv T
_ZNK6google8protobuf8internal12MapFieldBase28SpaceUsedExcludingSelfNoLockEv T
_ZNK6google8protobuf8internal12MapFieldBase30SyncMapWithRepeatedFieldNoLockEv W
_ZNK6google8protobuf8internal12MapFieldBase30SyncRepeatedFieldWithMapNoLockEv T
_ZNK6google8protobuf8internal15DynamicMapField14ContainsMapKeyERKNS0_6MapKeyE T
_ZNK6google8protobuf8internal15DynamicMapField19SetMapIteratorValueEPNS0_11MapIteratorE T
_ZNK6google8protobuf8internal15DynamicMapField28SpaceUsedExcludingSelfNoLockEv T
_ZNK6google8protobuf8internal15DynamicMapField30SyncMapWithRepeatedFieldNoLockEv T
_ZNK6google8protobuf8internal15DynamicMapField30SyncRepeatedFieldWithMapNoLockEv T
_ZNK6google8protobuf8internal15DynamicMapField4sizeEv T
_ZNK6google8protobuf8internal15DynamicMapField6GetMapEv T
_ZNK6google8protobuf8internal16MapFieldAccessor10RemoveLastEPv W
_ZNK6google8protobuf8internal16MapFieldAccessor12SwapElementsEPvii W
_ZNK6google8protobuf8internal16MapFieldAccessor14ConvertToEntryEPKvPNS0_7MessageE W
_ZNK6google8protobuf8internal16MapFieldAccessor16ConvertFromEntryERKNS0_7MessageEPv W
_ZNK6google8protobuf8internal16MapFieldAccessor3AddEPvPKv W
_ZNK6google8protobuf8internal16MapFieldAccessor3GetEPKviPv W
_ZNK6google8protobuf8internal16MapFieldAccessor3NewEPKv W
_ZNK6google8protobuf8internal16MapFieldAccessor3SetEPviPKv W
_ZNK6google8protobuf8internal16MapFieldAccessor4SizeEPKv W
_ZNK6google8protobuf8internal16MapFieldAccessor4SwapEPvPKNS1_21RepeatedFieldAccessorES3_ W
_ZNK6google8protobuf8internal16MapFieldAccessor5ClearEPv W
_ZNK6google8protobuf8internal16MapFieldAccessor7IsEmptyEPKv W
_ZNK6google8protobuf8internal16ReflectionSchema14GetFieldOffsetEPKNS0_15FieldDescriptorE W
_ZNK6google8protobuf8internal20RepeatedFieldWrapperIbE10RemoveLastEPv W
_ZNK6google8protobuf8internal20RepeatedFieldWrapperIbE12SwapElementsEPvii W
_ZNK6google8protobuf8internal20RepeatedFieldWrapperIbE3AddEPvPKv W
_ZNK6google8protobuf8internal20RepeatedFieldWrapperIbE3GetEPKviPv W
_ZNK6google8protobuf8internal20RepeatedFieldWrapperIbE3SetEPviPKv W
_ZNK6google8protobuf8internal20RepeatedFieldWrapperIbE4SizeEPKv W
_ZNK6google8protobuf8internal20RepeatedFieldWrapperIbE5ClearEPv W
_ZNK6google8protobuf8internal20RepeatedFieldWrapperIbE7IsEmptyEPKv W
_ZNK6google8protobuf8internal20RepeatedFieldWrapperIdE10RemoveLastEPv W
_ZNK6google8protobuf8internal20RepeatedFieldWrapperIdE12SwapElementsEPvii W
_ZNK6google8protobuf8internal20RepeatedFieldWrapperIdE3AddEPvPKv W
_ZNK6google8protobuf8internal20RepeatedFieldWrapperIdE3GetEPKviPv W
_ZNK6google8protobuf8internal20RepeatedFieldWrapperIdE3SetEPviPKv W
_ZNK6google8protobuf8internal20RepeatedFieldWrapperIdE4SizeEPKv W
_ZNK6google8protobuf8internal20RepeatedFieldWrapperIdE5ClearEPv W
_ZNK6google8protobuf8internal20RepeatedFieldWrapperIdE7IsEmptyEPKv W
_ZNK6google8protobuf8internal20RepeatedFieldWrapperIfE10RemoveLastEPv W
_ZNK6google8protobuf8internal20RepeatedFieldWrapperIfE12SwapElementsEPvii W
_ZNK6google8protobuf8internal20RepeatedFieldWrapperIfE3AddEPvPKv W
_ZNK6google8protobuf8internal20RepeatedFieldWrapperIfE3GetEPKviPv W
_ZNK6google8protobuf8internal20RepeatedFieldWrapperIfE3SetEPviPKv W
_ZNK6google8protobuf8internal20RepeatedFieldWrapperIfE4SizeEPKv W
_ZNK6google8protobuf8internal20RepeatedFieldWrapperIfE5ClearEPv W
_ZNK6google8protobuf8internal20RepeatedFieldWrapperIfE7IsEmptyEPKv W
_ZNK6google8protobuf8internal20RepeatedFieldWrapperIiE10RemoveLastEPv W
_ZNK6google8protobuf8internal20RepeatedFieldWrapperIiE12SwapElementsEPvii W
_ZNK6google8protobuf8internal20RepeatedFieldWrapperIiE3AddEPvPKv W
_ZNK6google8protobuf8internal20RepeatedFieldWrapperIiE3GetEPKviPv W
_ZNK6google8protobuf8internal20RepeatedFieldWrapperIiE3SetEPviPKv W
_ZNK6google8protobuf8internal20RepeatedFieldWrapperIiE4SizeEPKv W
_ZNK6google8protobuf8internal20RepeatedFieldWrapperIiE5ClearEPv W
_ZNK6google8protobuf8internal20RepeatedFieldWrapperIiE7IsEmptyEPKv W
_ZNK6google8protobuf8internal20RepeatedFieldWrapperIjE10RemoveLastEPv W
_ZNK6google8protobuf8internal20RepeatedFieldWrapperIjE12SwapElementsEPvii W
_ZNK6google8protobuf8internal20RepeatedFieldWrapperIjE3AddEPvPKv W
_ZNK6google8protobuf8internal20RepeatedFieldWrapperIjE3GetEPKviPv W
_ZNK6google8protobuf8internal20RepeatedFieldWrapperIjE3SetEPviPKv W
_ZNK6google8protobuf8internal20RepeatedFieldWrapperIjE4SizeEPKv W
_ZNK6google8protobuf8internal20RepeatedFieldWrapperIjE5ClearEPv W
_ZNK6google8protobuf8internal20RepeatedFieldWrapperIjE7IsEmptyEPKv W
_ZNK6google8protobuf8internal20RepeatedFieldWrapperIlE10RemoveLastEPv W
_ZNK6google8protobuf8internal20RepeatedFieldWrapperIlE12SwapElementsEPvii W
_ZNK6google8protobuf8internal20RepeatedFieldWrapperIlE3AddEPvPKv W
_ZNK6google8protobuf8internal20RepeatedFieldWrapperIlE3GetEPKviPv W
_ZNK6google8protobuf8internal20RepeatedFieldWrapperIlE3SetEPviPKv W
_ZNK6google8protobuf8internal20RepeatedFieldWrapperIlE4SizeEPKv W
_ZNK6google8protobuf8internal20RepeatedFieldWrapperIlE5ClearEPv W
_ZNK6google8protobuf8internal20RepeatedFieldWrapperIlE7IsEmptyEPKv W
_ZNK6google8protobuf8internal20RepeatedFieldWrapperImE10RemoveLastEPv W
_ZNK6google8protobuf8internal20RepeatedFieldWrapperImE12SwapElementsEPvii W
_ZNK6google8protobuf8internal20RepeatedFieldWrapperImE3AddEPvPKv W
_ZNK6google8protobuf8internal20RepeatedFieldWrapperImE3GetEPKviPv W
_ZNK6google8protobuf8internal20RepeatedFieldWrapperImE3SetEPviPKv W
_ZNK6google8protobuf8internal20RepeatedFieldWrapperImE4SizeEPKv W
_ZNK6google8protobuf8internal20RepeatedFieldWrapperImE5ClearEPv W
_ZNK6google8protobuf8internal20RepeatedFieldWrapperImE7IsEmptyEPKv W
_ZNK6google8protobuf8internal23RepeatedPtrFieldWrapperINS0_7MessageEE10RemoveLastEPv W
_ZNK6google8protobuf8internal23RepeatedPtrFieldWrapperINS0_7MessageEE12SwapElementsEPvii W
_ZNK6google8protobuf8internal23RepeatedPtrFieldWrapperINS0_7MessageEE3AddEPvPKv W
_ZNK6google8protobuf8internal23RepeatedPtrFieldWrapperINS0_7MessageEE3GetEPKviPv W
_ZNK6google8protobuf8internal23RepeatedPtrFieldWrapperINS0_7MessageEE3SetEPviPKv W
_ZNK6google8protobuf8internal23RepeatedPtrFieldWrapperINS0_7MessageEE4SizeEPKv W
_ZNK6google8protobuf8internal23RepeatedPtrFieldWrapperINS0_7MessageEE5ClearEPv W
_ZNK6google8protobuf8internal23RepeatedPtrFieldWrapperINS0_7MessageEE7IsEmptyEPKv W
_ZNK6google8protobuf8internal23RepeatedPtrFieldWrapperINSt7__cxx1112basic_stringIcSt11char_traitsIcESaIcEEEE10RemoveLastEPv W
_ZNK6google8protobuf8internal23RepeatedPtrFieldWrapperINSt7__cxx1112basic_stringIcSt11char_traitsIcESaIcEEEE12SwapElementsEPvii W
_ZNK6google8protobuf8internal23RepeatedPtrFieldWrapperINSt7__cxx1112basic_stringIcSt11char_traitsIcESaIcEEEE3AddEPvPKv W
_ZNK6google8protobuf8internal23RepeatedPtrFieldWrapperINSt7__cxx1112basic_stringIcSt11char_traitsIcESaIcEEEE3GetEPKviPv W
_ZNK6google8protobuf8internal23RepeatedPtrFieldWrapperINSt7__cxx1112basic_stringIcSt11char_traitsIcESaIcEEEE3SetEPviPKv W
_ZNK6google8protobuf8internal23RepeatedPtrFieldWrapperINSt7__cxx1112basic_stringIcSt11char_traitsIcESaIcEEEE4SizeEPKv W
_ZNK6google8protobuf8internal23RepeatedPtrFieldWrapperINSt7__cxx1112basic_stringIcSt11char_traitsIcESaIcEEEE5ClearEPv W
_ZNK6google8protobuf8internal23RepeatedPtrFieldWrapperINSt7__cxx1112basic_stringIcSt11char_traitsIcESaIcEEEE7IsEmptyEPKv W
_ZNK6google8protobuf8internal23TypeDefinedMapFieldBaseINS0_6MapKeyENS0_11MapValueRefEE12CopyIteratorEPNS0_11MapIteratorERKS6_ W
_ZNK6google8protobuf8internal23TypeDefinedMapFieldBaseINS0_6MapKeyENS0_11MapValueRefEE13EqualIteratorERKNS0_11MapIteratorES8_ W
_ZNK6google8protobuf8internal23TypeDefinedMapFieldBaseINS0_6MapKeyENS0_11MapValueRefEE14DeleteIteratorEPNS0_11MapIteratorE W
_ZNK6google8protobuf8internal23TypeDefinedMapFieldBaseINS0_6MapKeyENS0_11MapValueRefEE16IncreaseIteratorEPNS0_11MapIteratorE W
_ZNK6google8protobuf8internal23TypeDefinedMapFieldBaseINS0_6MapKeyENS0_11MapValueRefEE18InitializeIteratorEPNS0_11MapIteratorE W
_ZNK6google8protobuf8internal23TypeDefinedMapFieldBaseINS0_6MapKeyENS0_11MapValueRefEE6MapEndEPNS0_11MapIteratorE W
_ZNK6google8protobuf8internal23TypeDefinedMapFieldBaseINS0_6MapKeyENS0_11MapValueRefEE8MapBeginEPNS0_11MapIteratorE W
_ZNK6google8protobuf8internal23TypeDefinedMapFieldBaseINSt7__cxx1112basic_stringIcSt11char_traitsIcESaIcEEENS0_5ValueEE12CopyIteratorEPNS0_11MapIteratorERKSB_ W
_ZNK6google8protobuf8internal23TypeDefinedMapFieldBaseINSt7__cxx1112basic_stringIcSt11char_traitsIcESaIcEEENS0_5ValueEE13EqualIteratorERKNS0_11MapIteratorESD_ W
_ZNK6google8protobuf8internal23TypeDefinedMapFieldBaseINSt7__cxx1112basic_stringIcSt11char_traitsIcESaIcEEENS0_5ValueEE14DeleteIteratorEPNS0_11MapIteratorE W
_ZNK6google8protobuf8internal23TypeDefinedMapFieldBaseINSt7__cxx1112basic_stringIcSt11char_traitsIcESaIcEEENS0_5ValueEE16IncreaseIteratorEPNS0_11MapIteratorE W
_ZNK6google8protobuf8internal23TypeDefinedMapFieldBaseINSt7__cxx1112basic_stringIcSt11char_traitsIcESaIcEEENS0_5ValueEE18InitializeIteratorEPNS0_11MapIteratorE W
_ZNK6google8protobuf8internal23TypeDefinedMapFieldBaseINSt7__cxx1112basic_stringIcSt11char_traitsIcESaIcEEENS0_5ValueEE6MapEndEPNS0_11MapIteratorE W
_ZNK6google8protobuf8internal23TypeDefinedMapFieldBaseINSt7__cxx1112basic_stringIcSt11char_traitsIcESaIcEEENS0_5ValueEE8MapBeginEPNS0_11MapIteratorE W
_ZNK6google8protobuf8internal26GeneratedMessageReflection10AddMessageEPNS0_7MessageEPKNS0_15FieldDescriptorEPNS0_14MessageFactoryE T
_ZNK6google8protobuf8internal26GeneratedMessageReflection10ClearFieldEPNS0_7MessageEPKNS0_15FieldDescriptorE T
_ZNK6google8protobuf8internal26GeneratedMessageReflection10ClearOneofEPNS0_7MessageEPKNS0_15OneofDescriptorE W
_ZNK6google8protobuf8internal26GeneratedMessageReflection10GetMessageERKNS0_7MessageEPKNS0_15FieldDescriptorEPNS0_14MessageFactoryE T
_ZNK6google8protobuf8internal26GeneratedMessageReflection10ListFieldsERKNS0_7MessageEPSt6vectorIPKNS0_15FieldDescriptorESaIS9_EE T
_ZNK6google8protobuf8internal26GeneratedMessageReflection10RemoveLastEPNS0_7MessageEPKNS0_15FieldDescriptorE T
_ZNK6google8protobuf8internal26GeneratedMessageReflection10SwapFieldsEPNS0_7MessageES4_RKSt6vectorIPKNS0_15FieldDescriptorESaIS8_EE T
_ZNK6google8protobuf8internal26GeneratedMessageReflection11ReleaseLastEPNS0_7MessageEPKNS0_15FieldDescriptorE T
_ZNK6google8protobuf8internal26GeneratedMessageReflection12AddEnumValueEPNS0_7MessageEPKNS0_15FieldDescriptorEi T
_ZNK6google8protobuf8internal26GeneratedMessageReflection12GetEnumValueERKNS0_7MessageEPKNS0_15FieldDescriptorE T
_ZNK6google8protobuf8internal26GeneratedMessageReflection12SetEnumValueEPNS0_7MessageEPKNS0_15FieldDescriptorEi T
_ZNK6google8protobuf8internal26GeneratedMessageReflection12SwapElementsEPNS0_7MessageEPKNS0_15FieldDescriptorEii T
_ZNK6google8protobuf8internal26GeneratedMessageReflection13SpaceUsedLongERKNS0_7MessageE T
_ZNK6google8protobuf8internal26GeneratedMessageReflection14ContainsMapKeyERKNS0_7MessageEPKNS0_15FieldDescriptorERKNS0_6MapKeyE T
_ZNK6google8protobuf8internal26GeneratedMessageReflection14DeleteMapValueEPNS0_7MessageEPKNS0_15FieldDescriptorERKNS0_6MapKeyE T
_ZNK6google8protobuf8internal26GeneratedMessageReflection14MutableMessageEPNS0_7MessageEPKNS0_15FieldDescriptorEPNS0_14MessageFactoryE T
_ZNK6google8protobuf8internal26GeneratedMessageReflection14ReleaseMessageEPNS0_7MessageEPKNS0_15FieldDescriptorEPNS0_14MessageFactoryE T
_ZNK6google8protobuf8internal26GeneratedMessageReflection14SwapOneofFieldEPNS0_7MessageES4_PKNS0_15OneofDescriptorE T
_ZNK6google8protobuf8internal26GeneratedMessageReflection15GetRepeatedBoolERKNS0_7MessageEPKNS0_15FieldDescriptorEi T
_ZNK6google8protobuf8internal26GeneratedMessageReflection15GetRepeatedEnumERKNS0_7MessageEPKNS0_15FieldDescriptorEi T
_ZNK6google8protobuf8internal26GeneratedMessageReflection15SetRepeatedBoolEPNS0_7MessageEPKNS0_15FieldDescriptorEib T
_ZNK6google8protobuf8internal26GeneratedMessageReflection15SetRepeatedEnumEPNS0_7MessageEPKNS0_15FieldDescriptorEiPKNS0_19EnumValueDescriptorE T
_ZNK6google8protobuf8internal26GeneratedMessageReflection16GetRepeatedFloatERKNS0_7MessageEPKNS0_15FieldDescriptorEi T
_ZNK6google8protobuf8internal26GeneratedMessageReflection16GetRepeatedInt32ERKNS0_7MessageEPKNS0_15FieldDescriptorEi T
_ZNK6google8protobuf8internal26GeneratedMessageReflection16GetRepeatedInt64ERKNS0_7MessageEPKNS0_15FieldDescriptorEi T
_ZNK6google8protobuf8internal26GeneratedMessageReflection16GetUnknownFieldsERKNS0_7MessageE T
_ZNK6google8protobuf8internal26GeneratedMessageReflection16SetRepeatedFloatEPNS0_7MessageEPKNS0_15FieldDescriptorEif T
_ZNK6google8protobuf8internal26GeneratedMessageReflection16SetRepeatedInt32EPNS0_7MessageEPKNS0_15FieldDescriptorEii T
_ZNK6google8protobuf8internal26GeneratedMessageReflection16SetRepeatedInt64EPNS0_7MessageEPKNS0_15FieldDescriptorEil T
_ZNK6google8protobuf8internal26GeneratedMessageReflection17GetMessageFactoryEv T
_ZNK6google8protobuf8internal26GeneratedMessageReflection17GetRepeatedDoubleERKNS0_7MessageEPKNS0_15FieldDescriptorEi T
_ZNK6google8protobuf8internal26GeneratedMessageReflection17GetRepeatedStringB5cxx11ERKNS0_7MessageEPKNS0_15FieldDescriptorEi T
_ZNK6google8protobuf8internal26GeneratedMessageReflection17GetRepeatedUInt32ERKNS0_7MessageEPKNS0_15FieldDescriptorEi T
_ZNK6google8protobuf8internal26GeneratedMessageReflection17GetRepeatedUInt64ERKNS0_7MessageEPKNS0_15FieldDescriptorEi T
_ZNK6google8protobuf8internal26GeneratedMessageReflection17RepeatedFieldDataEPNS0_7MessageEPKNS0_15FieldDescriptorENS5_7CppTypeEPKNS0_10DescriptorE T
_ZNK6google8protobuf8internal26GeneratedMessageReflection17SetRepeatedDoubleEPNS0_7MessageEPKNS0_15FieldDescriptorEid T
_ZNK6google8protobuf8internal26GeneratedMessageReflection17SetRepeatedStringEPNS0_7MessageEPKNS0_15FieldDescriptorEiRKNSt7__cxx1112basic_stringIcSt11char_traitsIcESaIcEEE T
_ZNK6google8protobuf8internal26GeneratedMessageReflection17SetRepeatedUInt32EPNS0_7MessageEPKNS0_15FieldDescriptorEij T
_ZNK6google8protobuf8internal26GeneratedMessageReflection17SetRepeatedUInt64EPNS0_7MessageEPKNS0_15FieldDescriptorEim T
_ZNK6google8protobuf8internal26GeneratedMessageReflection18GetRepeatedMessageERKNS0_7MessageEPKNS0_15FieldDescriptorEi T
_ZNK6google8protobuf8internal26GeneratedMessageReflection18GetStringReferenceERKNS0_7MessageEPKNS0_15FieldDescriptorEPNSt7__cxx1112basic_stringIcSt11char_traitsIcESaIcEEE T
_ZNK6google8protobuf8internal26GeneratedMessageReflection19AddAllocatedMessageEPNS0_7MessageEPKNS0_15FieldDescriptorES4_ T
_ZNK6google8protobuf8internal26GeneratedMessageReflection19GetRawRepeatedFieldERKNS0_7MessageEPKNS0_15FieldDescriptorENS6_7CppTypeEiPKNS0_10DescriptorE T
_ZNK6google8protobuf8internal26GeneratedMessageReflection19SetAllocatedMessageEPNS0_7MessageES4_PKNS0_15FieldDescriptorE T
_ZNK6google8protobuf8internal26GeneratedMessageReflection20AddEnumValueInternalEPNS0_7MessageEPKNS0_15FieldDescriptorEi T
_ZNK6google8protobuf8internal26GeneratedMessageReflection20GetRepeatedEnumValueERKNS0_7MessageEPKNS0_15FieldDescriptorEi T
_ZNK6google8protobuf8internal26GeneratedMessageReflection20MutableUnknownFieldsEPNS0_7MessageE T
_ZNK6google8protobuf8internal26GeneratedMessageReflection20SetEnumValueInternalEPNS0_7MessageEPKNS0_15FieldDescriptorEi T
_ZNK6google8protobuf8internal26GeneratedMessageReflection20SetRepeatedEnumValueEPNS0_7MessageEPKNS0_15FieldDescriptorEii T
_ZNK6google8protobuf8internal26GeneratedMessageReflection22InsertOrLookupMapValueEPNS0_7MessageEPKNS0_15FieldDescriptorERKNS0_6MapKeyEPNS0_11MapValueRefE T
_ZNK6google8protobuf8internal26GeneratedMessageReflection22MutableRepeatedMessageEPNS0_7MessageEPKNS0_15FieldDescriptorEi T
_ZNK6google8protobuf8internal26GeneratedMessageReflection23GetOneofFieldDescriptorERKNS0_7MessageEPKNS0_15OneofDescriptorE T
_ZNK6google8protobuf8internal26GeneratedMessageReflection23MutableRawRepeatedFieldEPNS0_7MessageEPKNS0_15FieldDescriptorENS5_7CppTypeEiPKNS0_10DescriptorE T
_ZNK6google8protobuf8internal26GeneratedMessageReflection24FindKnownExtensionByNameERKNSt7__cxx1112basic_stringIcSt11char_traitsIcESaIcEEE T
_ZNK6google8protobuf8internal26GeneratedMessageReflection25SupportsUnknownEnumValuesEv T
_ZNK6google8protobuf8internal26GeneratedMessageReflection25UnsafeArenaReleaseMessageEPNS0_7MessageEPKNS0_15FieldDescriptorEPNS0_14MessageFactoryE T
_ZNK6google8protobuf8internal26GeneratedMessageReflection26FindKnownExtensionByNumberEi T
_ZNK6google8protobuf8internal26GeneratedMessageReflection26GetRepeatedStringReferenceERKNS0_7MessageEPKNS0_15FieldDescriptorEiPNSt7__cxx1112basic_stringIcSt11char_traitsIcESaIcEEE T
_ZNK6google8protobuf8internal26GeneratedMessageReflection28SetRepeatedEnumValueInternalEPNS0_7MessageEPKNS0_15FieldDescriptorEii T
_ZNK6google8protobuf8internal26GeneratedMessageReflection30UnsafeArenaSetAllocatedMessageEPNS0_7MessageES4_PKNS0_15FieldDescriptorE T
_ZNK6google8protobuf8internal26GeneratedMessageReflection4SwapEPNS0_7MessageES4_ T
_ZNK6google8protobuf8internal26GeneratedMessageReflection6GetRawINS0_13RepeatedFieldIbEEEERKT_RKNS0_7MessageEPKNS0_15FieldDescriptorE W
_ZNK6google8protobuf8internal26GeneratedMessageReflection6GetRawINS0_13RepeatedFieldIdEEEERKT_RKNS0_7MessageEPKNS0_15FieldDescriptorE W
_ZNK6google8protobuf8internal26GeneratedMessageReflection6GetRawINS0_13RepeatedFieldIfEEEERKT_RKNS0_7MessageEPKNS0_15FieldDescriptorE W
_ZNK6google8protobuf8internal26GeneratedMessageReflection6GetRawINS0_13RepeatedFieldIiEEEERKT_RKNS0_7MessageEPKNS0_15FieldDescriptorE W
_ZNK6google8protobuf8internal26GeneratedMessageReflection6GetRawINS0_13RepeatedFieldIjEEEERKT_RKNS0_7MessageEPKNS0_15FieldDescriptorE W
_ZNK6google8protobuf8internal26GeneratedMessageReflection6GetRawINS0_13RepeatedFieldIlEEEERKT_RKNS0_7MessageEPKNS0_15FieldDescriptorE W
_ZNK6google8protobuf8internal26GeneratedMessageReflection6GetRawINS0_13RepeatedFieldImEEEERKT_RKNS0_7MessageEPKNS0_15FieldDescriptorE W
_ZNK6google8protobuf8internal26GeneratedMessageReflection6GetRawINS0_16RepeatedPtrFieldINSt7__cxx1112basic_stringIcSt11char_traitsIcESaIcEEEEEEERKT_RKNS0_7MessageEPKNS0_15FieldDescriptorE W
_ZNK6google8protobuf8internal26GeneratedMessageReflection6GetRawINS1_12MapFieldBaseEEERKT_RKNS0_7MessageEPKNS0_15FieldDescriptorE W
_ZNK6google8protobuf8internal26GeneratedMessageReflection6GetRawINS1_14ArenaStringPtrEEERKT_RKNS0_7MessageEPKNS0_15FieldDescriptorE W
_ZNK6google8protobuf8internal26GeneratedMessageReflection6GetRawINS1_20RepeatedPtrFieldBaseEEERKT_RKNS0_7MessageEPKNS0_15FieldDescriptorE W
_ZNK6google8protobuf8internal26GeneratedMessageReflection6GetRawIPKNS0_7MessageEEERKT_RS5_PKNS0_15FieldDescriptorE W
_ZNK6google8protobuf8internal26GeneratedMessageReflection6GetRawIbEERKT_RKNS0_7MessageEPKNS0_15FieldDescriptorE W
_ZNK6google8protobuf8internal26GeneratedMessageReflection6GetRawIdEERKT_RKNS0_7MessageEPKNS0_15FieldDescriptorE W
_ZNK6google8protobuf8internal26GeneratedMessageReflection6GetRawIfEERKT_RKNS0_7MessageEPKNS0_15FieldDescriptorE W
_ZNK6google8protobuf8internal26GeneratedMessageReflection6GetRawIiEERKT_RKNS0_7MessageEPKNS0_15FieldDescriptorE W
_ZNK6google8protobuf8internal26GeneratedMessageReflection6GetRawIjEERKT_RKNS0_7MessageEPKNS0_15FieldDescriptorE W
_ZNK6google8protobuf8internal26GeneratedMessageReflection6GetRawIlEERKT_RKNS0_7MessageEPKNS0_15FieldDescriptorE W
_ZNK6google8protobuf8internal26GeneratedMessageReflection6GetRawImEERKT_RKNS0_7MessageEPKNS0_15FieldDescriptorE W
_ZNK6google8protobuf8internal26GeneratedMessageReflection6HasBitERKNS0_7MessageEPKNS0_15FieldDescriptorE W
_ZNK6google8protobuf8internal26GeneratedMessageReflection6MapEndEPNS0_7MessageEPKNS0_15FieldDescriptorE T
_ZNK6google8protobuf8internal26GeneratedMessageReflection6SetBitEPNS0_7MessageEPKNS0_15FieldDescriptorE W
_ZNK6google8protobuf8internal26GeneratedMessageReflection7AddBoolEPNS0_7MessageEPKNS0_15FieldDescriptorEb T
_ZNK6google8protobuf8internal26GeneratedMessageReflection7AddEnumEPNS0_7MessageEPKNS0_15FieldDescriptorEPKNS0_19EnumValueDescriptorE T
_ZNK6google8protobuf8internal26GeneratedMessageReflection7GetBoolERKNS0_7MessageEPKNS0_15FieldDescriptorE T
_ZNK6google8protobuf8internal26GeneratedMessageReflection7GetEnumERKNS0_7MessageEPKNS0_15FieldDescriptorE T
_ZNK6google8protobuf8internal26GeneratedMessageReflection7MapDataEPNS0_7MessageEPKNS0_15FieldDescriptorE T
_ZNK6google8protobuf8internal26GeneratedMessageReflection7MapSizeERKNS0_7MessageEPKNS0_15FieldDescriptorE T
_ZNK6google8protobuf8internal26GeneratedMessageReflection7SetBoolEPNS0_7MessageEPKNS0_15FieldDescriptorEb T
_ZNK6google8protobuf8internal26GeneratedMessageReflection7SetEnumEPNS0_7MessageEPKNS0_15FieldDescriptorEPKNS0_19EnumValueDescriptorE T
_ZNK6google8protobuf8internal26GeneratedMessageReflection8AddFloatEPNS0_7MessageEPKNS0_15FieldDescriptorEf T
_ZNK6google8protobuf8internal26GeneratedMessageReflection8AddInt32EPNS0_7MessageEPKNS0_15FieldDescriptorEi T
_ZNK6google8protobuf8internal26GeneratedMessageReflection8AddInt64EPNS0_7MessageEPKNS0_15FieldDescriptorEl T
_ZNK6google8protobuf8internal26GeneratedMessageReflection8GetFloatERKNS0_7MessageEPKNS0_15FieldDescriptorE T
_ZNK6google8protobuf8internal26GeneratedMessageReflection8GetInt32ERKNS0_7MessageEPKNS0_15FieldDescriptorE T
_ZNK6google8protobuf8internal26GeneratedMessageReflection8GetInt64ERKNS0_7MessageEPKNS0_15FieldDescriptorE T
_ZNK6google8protobuf8internal26GeneratedMessageReflection8HasFieldERKNS0_7MessageEPKNS0_15FieldDescriptorE T
_ZNK6google8protobuf8internal26GeneratedMessageReflection8HasOneofERKNS0_7MessageEPKNS0_15OneofDescriptorE W
_ZNK6google8protobuf8internal26GeneratedMessageReflection8MapBeginEPNS0_7MessageEPKNS0_15FieldDescriptorE T
_ZNK6google8protobuf8internal26GeneratedMessageReflection8SetFieldIbEEvPNS0_7MessageEPKNS0_15FieldDescriptorERKT_ W
_ZNK6google8protobuf8internal26GeneratedMessageReflection8SetFieldIdEEvPNS0_7MessageEPKNS0_15FieldDescriptorERKT_ W
_ZNK6google8protobuf8internal26GeneratedMessageReflection8SetFieldIfEEvPNS0_7MessageEPKNS0_15FieldDescriptorERKT_ W
_ZNK6google8protobuf8internal26GeneratedMessageReflection8SetFieldIiEEvPNS0_7MessageEPKNS0_15FieldDescriptorERKT_ W
_ZNK6google8protobuf8internal26GeneratedMessageReflection8SetFieldIjEEvPNS0_7MessageEPKNS0_15FieldDescriptorERKT_ W
_ZNK6google8protobuf8internal26GeneratedMessageReflection8SetFieldIlEEvPNS0_7MessageEPKNS0_15FieldDescriptorERKT_ W
_ZNK6google8protobuf8internal26GeneratedMessageReflection8SetFieldImEEvPNS0_7MessageEPKNS0_15FieldDescriptorERKT_ W
_ZNK6google8protobuf8internal26GeneratedMessageReflection8SetFloatEPNS0_7MessageEPKNS0_15FieldDescriptorEf T
_ZNK6google8protobuf8internal26GeneratedMessageReflection8SetInt32EPNS0_7MessageEPKNS0_15FieldDescriptorEi T
_ZNK6google8protobuf8internal26GeneratedMessageReflection8SetInt64EPNS0_7MessageEPKNS0_15FieldDescriptorEl T
_ZNK6google8protobuf8internal26GeneratedMessageReflection9AddDoubleEPNS0_7MessageEPKNS0_15FieldDescriptorEd T
_ZNK6google8protobuf8internal26GeneratedMessageReflection9AddStringEPNS0_7MessageEPKNS0_15FieldDescriptorERKNSt7__cxx1112basic_stringIcSt11char_traitsIcESaIcEEE T
_ZNK6google8protobuf8internal26GeneratedMessageReflection9AddUInt32EPNS0_7MessageEPKNS0_15FieldDescriptorEj T
_ZNK6google8protobuf8internal26GeneratedMessageReflection9AddUInt64EPNS0_7MessageEPKNS0_15FieldDescriptorEm T
_ZNK6google8protobuf8internal26GeneratedMessageReflection9FieldSizeERKNS0_7MessageEPKNS0_15FieldDescriptorE T
_ZNK6google8protobuf8internal26GeneratedMessageReflection9GetDoubleERKNS0_7MessageEPKNS0_15FieldDescriptorE T
_ZNK6google8protobuf8internal26GeneratedMessageReflection9GetStringB5cxx11ERKNS0_7MessageEPKNS0_15FieldDescriptorE T
_ZNK6google8protobuf8internal26GeneratedMessageReflection9GetUInt32ERKNS0_7MessageEPKNS0_15FieldDescriptorE T
_ZNK6google8protobuf8internal26GeneratedMessageReflection9GetUInt64ERKNS0_7MessageEPKNS0_15FieldDescriptorE T
_ZNK6google8protobuf8internal26GeneratedMessageReflection9SetDoubleEPNS0_7MessageEPKNS0_15FieldDescriptorEd T
_ZNK6google8protobuf8internal26GeneratedMessageReflection9SetStringEPNS0_7MessageEPKNS0_15FieldDescriptorERKNSt7__cxx1112basic_stringIcSt11char_traitsIcESaIcEEE T
_ZNK6google8protobuf8internal26GeneratedMessageReflection9SetUInt32EPNS0_7MessageEPKNS0_15FieldDescriptorEj T
_ZNK6google8protobuf8internal26GeneratedMessageReflection9SetUInt64EPNS0_7MessageEPKNS0_15FieldDescriptorEm T
_ZNK6google8protobuf8internal26GeneratedMessageReflection9SwapFieldEPNS0_7MessageES4_PKNS0_15FieldDescriptorE T
_ZNK6google8protobuf8internal30RepeatedFieldPrimitiveAccessorIbE10ConvertToTEPKv W
_ZNK6google8protobuf8internal30RepeatedFieldPrimitiveAccessorIbE12ConvertFromTERKbPv W
_ZNK6google8protobuf8internal30RepeatedFieldPrimitiveAccessorIbE4SwapEPvPKNS1_21RepeatedFieldAccessorES4_ W
_ZNK6google8protobuf8internal30RepeatedFieldPrimitiveAccessorIdE10ConvertToTEPKv W
_ZNK6google8protobuf8internal30RepeatedFieldPrimitiveAccessorIdE12ConvertFromTERKdPv W
_ZNK6google8protobuf8internal30RepeatedFieldPrimitiveAccessorIdE4SwapEPvPKNS1_21RepeatedFieldAccessorES4_ W
_ZNK6google8protobuf8internal30RepeatedFieldPrimitiveAccessorIfE10ConvertToTEPKv W
_ZNK6google8protobuf8internal30RepeatedFieldPrimitiveAccessorIfE12ConvertFromTERKfPv W
_ZNK6google8protobuf8internal30RepeatedFieldPrimitiveAccessorIfE4SwapEPvPKNS1_21RepeatedFieldAccessorES4_ W
_ZNK6google8protobuf8internal30RepeatedFieldPrimitiveAccessorIiE10ConvertToTEPKv W
_ZNK6google8protobuf8internal30RepeatedFieldPrimitiveAccessorIiE12ConvertFromTERKiPv W
_ZNK6google8protobuf8internal30RepeatedFieldPrimitiveAccessorIiE4SwapEPvPKNS1_21RepeatedFieldAccessorES4_ W
_ZNK6google8protobuf8internal30RepeatedFieldPrimitiveAccessorIjE10ConvertToTEPKv W
_ZNK6google8protobuf8internal30RepeatedFieldPrimitiveAccessorIjE12ConvertFromTERKjPv W
_ZNK6google8protobuf8internal30RepeatedFieldPrimitiveAccessorIjE4SwapEPvPKNS1_21RepeatedFieldAccessorES4_ W
_ZNK6google8protobuf8internal30RepeatedFieldPrimitiveAccessorIlE10ConvertToTEPKv W
_ZNK6google8protobuf8internal30RepeatedFieldPrimitiveAccessorIlE12ConvertFromTERKlPv W
_ZNK6google8protobuf8internal30RepeatedFieldPrimitiveAccessorIlE4SwapEPvPKNS1_21RepeatedFieldAccessorES4_ W
_ZNK6google8protobuf8internal30RepeatedFieldPrimitiveAccessorImE10ConvertToTEPKv W
_ZNK6google8protobuf8internal30RepeatedFieldPrimitiveAccessorImE12ConvertFromTERKmPv W
_ZNK6google8protobuf8internal30RepeatedFieldPrimitiveAccessorImE4SwapEPvPKNS1_21RepeatedFieldAccessorES4_ W
_ZNK6google8protobuf8internal30RepeatedPtrFieldStringAccessor10ConvertToTEPKvPNSt7__cxx1112basic_stringIcSt11char_traitsIcESaIcEEE W
_ZNK6google8protobuf8internal30RepeatedPtrFieldStringAccessor12ConvertFromTERKNSt7__cxx1112basic_stringIcSt11char_traitsIcESaIcEEEPv W
_ZNK6google8protobuf8internal30RepeatedPtrFieldStringAccessor3NewB5cxx11EPKv W
_ZNK6google8protobuf8internal30RepeatedPtrFieldStringAccessor4SwapEPvPKNS1_21RepeatedFieldAccessorES3_ W
_ZNK6google8protobuf8internal31RepeatedPtrFieldMessageAccessor10ConvertToTEPKvPNS0_7MessageE W
_ZNK6google8protobuf8internal31RepeatedPtrFieldMessageAccessor12ConvertFromTERKNS0_7MessageEPv W
_ZNK6google8protobuf8internal31RepeatedPtrFieldMessageAccessor3NewEPKv W
_ZNK6google8protobuf8internal31RepeatedPtrFieldMessageAccessor4SwapEPvPKNS1_21RepeatedFieldAccessorES3_ W
_ZNK6google8protobuf8internal33RandomAccessRepeatedFieldAccessor11EndIteratorEPKv W
_ZNK6google8protobuf8internal33RandomAccessRepeatedFieldAccessor12CopyIteratorEPKvS4_ W
_ZNK6google8protobuf8internal33RandomAccessRepeatedFieldAccessor13BeginIteratorEPKv W
_ZNK6google8protobuf8internal33RandomAccessRepeatedFieldAccessor14DeleteIteratorEPKvPv W
_ZNK6google8protobuf8internal33RandomAccessRepeatedFieldAccessor14EqualsIteratorEPKvS4_S4_ W
_ZNK6google8protobuf8internal33RandomAccessRepeatedFieldAccessor15AdvanceIteratorEPKvPv W
_ZNK6google8protobuf8internal33RandomAccessRepeatedFieldAccessor16GetIteratorValueEPKvS4_Pv W
_ZNK6google8protobuf8internal8MapFieldINS0_27Struct_FieldsEntry_DoNotUseENSt7__cxx1112basic_stringIcSt11char_traitsIcESaIcEEENS0_5ValueELNS1_14WireFormatLite9FieldTypeE9ELSC_11ELi0EE14ContainsMapKeyERKNS0_6MapKeyE W
_ZNK6google8protobuf8internal8MapFieldINS0_27Struct_FieldsEntry_DoNotUseENSt7__cxx1112basic_stringIcSt11char_traitsIcESaIcEEENS0_5ValueELNS1_14WireFormatLite9FieldTypeE9ELSC_11ELi0EE19SetMapIteratorValueEPNS0_11MapIteratorE W
_ZNK6google8protobuf8internal8MapFieldINS0_27Struct_FieldsEntry_DoNotUseENSt7__cxx1112basic_stringIcSt11char_traitsIcESaIcEEENS0_5ValueELNS1_14WireFormatLite9FieldTypeE9ELSC_11ELi0EE28SpaceUsedExcludingSelfNoLockEv W
_ZNK6google8protobuf8internal8MapFieldINS0_27Struct_FieldsEntry_DoNotUseENSt7__cxx1112basic_stringIcSt11char_traitsIcESaIcEEENS0_5ValueELNS1_14WireFormatLite9FieldTypeE9ELSC_11ELi0EE30SyncMapWithRepeatedFieldNoLockEv W
_ZNK6google8protobuf8internal8MapFieldINS0_27Struct_FieldsEntry_DoNotUseENSt7__cxx1112basic_stringIcSt11char_traitsIcESaIcEEENS0_5ValueELNS1_14WireFormatLite9FieldTypeE9ELSC_11ELi0EE30SyncRepeatedFieldWithMapNoLockEv W
_ZNK6google8protobuf8internal8MapFieldINS0_27Struct_FieldsEntry_DoNotUseENSt7__cxx1112basic_stringIcSt11char_traitsIcESaIcEEENS0_5ValueELNS1_14WireFormatLite9FieldTypeE9ELSC_11ELi0EE4sizeEv W
_ZNK6google8protobuf8internal8MapFieldINS0_27Struct_FieldsEntry_DoNotUseENSt7__cxx1112basic_stringIcSt11char_traitsIcESaIcEEENS0_5ValueELNS1_14WireFormatLite9FieldTypeE9ELSC_11ELi0EE6GetMapEv W
_ZNK6google8protobuf9BoolValue11GetMetadataEv T
_ZNK6google8protobuf9BoolValue12ByteSizeLongEv T
_ZNK6google8protobuf9BoolValue13GetCachedSizeEv W
_ZNK6google8protobuf9BoolValue13IsInitializedEv T
_ZNK6google8protobuf9BoolValue13SetCachedSizeEi T
_ZNK6google8protobuf9BoolValue20GetMaybeArenaPointerEv W
_ZNK6google8protobuf9BoolValue24SerializeWithCachedSizesEPNS0_2io17CodedOutputStreamE T
_ZNK6google8protobuf9BoolValue39InternalSerializeWithCachedSizesToArrayEbPh T
_ZNK6google8protobuf9BoolValue3NewEPNS0_5ArenaE T
_ZNK6google8protobuf9BoolValue3NewEv W
_ZNK6google8protobuf9BoolValue8GetArenaEv W
_ZNK6google8protobuf9EnumValue11GetMetadataEv T
_ZNK6google8protobuf9EnumValue12ByteSizeLongEv T
_ZNK6google8protobuf9EnumValue13GetCachedSizeEv W
_ZNK6google8protobuf9EnumValue13IsInitializedEv T
_ZNK6google8protobuf9EnumValue13SetCachedSizeEi T
_ZNK6google8protobuf9EnumValue20GetMaybeArenaPointerEv W
_ZNK6google8protobuf9EnumValue24SerializeWithCachedSizesEPNS0_2io17CodedOutputStreamE T
_ZNK6google8protobuf9EnumValue39InternalSerializeWithCachedSizesToArrayEbPh T
_ZNK6google8protobuf9EnumValue3NewEPNS0_5ArenaE T
_ZNK6google8protobuf9EnumValue3NewEv W
_ZNK6google8protobuf9EnumValue8GetArenaEv W
_ZNK6google8protobuf9FieldMask11GetMetadataEv T
_ZNK6google8protobuf9FieldMask12ByteSizeLongEv T
_ZNK6google8protobuf9FieldMask13GetCachedSizeEv W
_ZNK6google8protobuf9FieldMask13IsInitializedEv T
_ZNK6google8protobuf9FieldMask13SetCachedSizeEi T
_ZNK6google8protobuf9FieldMask24SerializeWithCachedSizesEPNS0_2io17CodedOutputStreamE T
_ZNK6google8protobuf9FieldMask39InternalSerializeWithCachedSizesToArrayEbPh T
_ZNK6google8protobuf9FieldMask3NewEPNS0_5ArenaE T
_ZNK6google8protobuf9FieldMask3NewEv W
_ZNK6google8protobuf9ListValue11GetMetadataEv T
_ZNK6google8protobuf9ListValue12ByteSizeLongEv T
_ZNK6google8protobuf9ListValue13GetCachedSizeEv W
_ZNK6google8protobuf9ListValue13IsInitializedEv T
_ZNK6google8protobuf9ListValue13SetCachedSizeEi T
_ZNK6google8protobuf9ListValue20GetMaybeArenaPointerEv W
_ZNK6google8protobuf9ListValue24SerializeWithCachedSizesEPNS0_2io17CodedOutputStreamE T
_ZNK6google8protobuf9ListValue39InternalSerializeWithCachedSizesToArrayEbPh T
_ZNK6google8protobuf9ListValue3NewEPNS0_5ArenaE T
_ZNK6google8protobuf9ListValue3NewEv W
_ZNK6google8protobuf9ListValue8GetArenaEv W
_ZNK6google8protobuf9Timestamp11GetMetadataEv T
_ZNK6google8protobuf9Timestamp12ByteSizeLongEv T
_ZNK6google8protobuf9Timestamp13GetCachedSizeEv W
_ZNK6google8protobuf9Timestamp13IsInitializedEv T
_ZNK6google8protobuf9Timestamp13SetCachedSizeEi T
_ZNK6google8protobuf9Timestamp20GetMaybeArenaPointerEv W
_ZNK6google8protobuf9Timestamp24SerializeWithCachedSizesEPNS0_2io17CodedOutputStreamE T
_ZNK6google8protobuf9Timestamp39InternalSerializeWithCachedSizesToArrayEbPh T
_ZNK6google8protobuf9Timestamp3NewEPNS0_5ArenaE T
_ZNK6google8protobuf9Timestamp3NewEv W
_ZNK6google8protobuf9Timestamp8GetArenaEv W
_ZNKSt10_HashtableINSt7__cxx1112basic_stringIcSt11char_traitsIcESaIcEEES5_SaIS5_ENSt8__detail9_IdentityESt8equal_toIS5_EN6google8protobuf4hashIS5_EENS7_18_Mod_range_hashingENS7_20_Default_ranged_hashENS7_20_Prime_rehash_policyENS7_17_Hashtable_traitsILb1ELb1ELb1EEEE5countERKS5_ W
_ZNKSt10_HashtableINSt7__cxx1112basic_stringIcSt11char_traitsIcESaIcEEESt4pairIKS5_N6google8protobuf25FieldDescriptorProto_TypeEESaISB_ENSt8__detail10_Select1stESt8equal_toIS5_ENS9_4hashIS5_EENSD_18_Mod_range_hashingENSD_20_Default_ranged_hashENSD_20_Prime_rehash_policyENSD_17_Hashtable_traitsILb1ELb0ELb1EEEE4findERS7_ W
_ZNKSt10_HashtableIPKcSt4pairIKS1_PKN6google8protobuf14FileDescriptorEESaIS9_ENSt8__detail10_Select1stENS5_5streqENS5_4hashIS1_EENSB_18_Mod_range_hashingENSB_20_Default_ranged_hashENSB_20_Prime_rehash_policyENSB_17_Hashtable_traitsILb1ELb0ELb1EEEE4findERS3_ W
_ZNSt10_HashtableINSt7__cxx1112basic_stringIcSt11char_traitsIcESaIcEEES5_SaIS5_ENSt8__detail9_IdentityESt8equal_toIS5_EN6google8protobuf4hashIS5_EENS7_18_Mod_range_hashingENS7_20_Default_ranged_hashENS7_20_Prime_rehash_policyENS7_17_Hashtable_traitsILb1ELb1ELb1EEEE4findERKS5_ W
_ZNSt10_HashtableINSt7__cxx1112basic_stringIcSt11char_traitsIcESaIcEEES5_SaIS5_ENSt8__detail9_IdentityESt8equal_toIS5_EN6google8protobuf4hashIS5_EENS7_18_Mod_range_hashingENS7_20_Default_ranged_hashENS7_20_Prime_rehash_policyENS7_17_Hashtable_traitsILb1ELb1ELb1EEEE9_M_insertIRKS5_NS7_10_AllocNodeISaINS7_10_Hash_nodeIS5_Lb1EEEEEEEESt4pairINS7_14_Node_iteratorIS5_Lb1ELb1EEEbEOT_RKT0_St17integral_constantIbLb1EEm W
_ZNSt10_HashtableINSt7__cxx1112basic_stringIcSt11char_traitsIcESaIcEEES5_SaIS5_ENSt8__detail9_IdentityESt8equal_toIS5_EN6google8protobuf4hashIS5_EENS7_18_Mod_range_hashingENS7_20_Default_ranged_hashENS7_20_Prime_rehash_policyENS7_17_Hashtable_traitsILb1ELb1ELb1EEEE9_M_rehashEmRKm W
_ZNSt10_HashtableINSt7__cxx1112basic_stringIcSt11char_traitsIcESaIcEEES5_SaIS5_ENSt8__detail9_IdentityESt8equal_toIS5_EN6google8protobuf4hashIS5_EENS7_18_Mod_range_hashingENS7_20_Default_ranged_hashENS7_20_Prime_rehash_policyENS7_17_Hashtable_traitsILb1ELb1ELb1EEEED1Ev W
_ZNSt10_HashtableINSt7__cxx1112basic_stringIcSt11char_traitsIcESaIcEEES5_SaIS5_ENSt8__detail9_IdentityESt8equal_toIS5_EN6google8protobuf4hashIS5_EENS7_18_Mod_range_hashingENS7_20_Default_ranged_hashENS7_20_Prime_rehash_policyENS7_17_Hashtable_traitsILb1ELb1ELb1EEEED2Ev W
_ZNSt10_HashtableINSt7__cxx1112basic_stringIcSt11char_traitsIcESaIcEEESt4pairIKS5_N6google8protobuf25FieldDescriptorProto_TypeEESaISB_ENSt8__detail10_Select1stESt8equal_toIS5_ENS9_4hashIS5_EENSD_18_Mod_range_hashingENSD_20_Default_ranged_hashENSD_20_Prime_rehash_policyENSD_17_Hashtable_traitsILb1ELb0ELb1EEEE9_M_rehashEmRKm W
_ZNSt10_HashtableINSt7__cxx1112basic_stringIcSt11char_traitsIcESaIcEEESt4pairIKS5_N6google8protobuf25FieldDescriptorProto_TypeEESaISB_ENSt8__detail10_Select1stESt8equal_toIS5_ENS9_4hashIS5_EENSD_18_Mod_range_hashingENSD_20_Default_ranged_hashENSD_20_Prime_rehash_policyENSD_17_Hashtable_traitsILb1ELb0ELb1EEEED1Ev W
_ZNSt10_HashtableINSt7__cxx1112basic_stringIcSt11char_traitsIcESaIcEEESt4pairIKS5_N6google8protobuf25FieldDescriptorProto_TypeEESaISB_ENSt8__detail10_Select1stESt8equal_toIS5_ENS9_4hashIS5_EENSD_18_Mod_range_hashingENSD_20_Default_ranged_hashENSD_20_Prime_rehash_policyENSD_17_Hashtable_traitsILb1ELb0ELb1EEEED2Ev W
_ZNSt10_HashtableINSt7__cxx1112basic_stringIcSt11char_traitsIcESaIcEEESt4pairIKS5_PFN6google8protobuf4util6StatusEPKNSA_9converter23ProtoStreamObjectSourceERKNS9_4TypeENS9_11StringPieceEPNSC_12ObjectWriterEEESaISO_ENSt8__detail10_Select1stESt8equal_toIS5_ENS9_4hashIS5_EENSQ_18_Mod_range_hashingENSQ_20_Default_ranged_hashENSQ_20_Prime_rehash_policyENSQ_17_Hashtable_traitsILb1ELb0ELb1EEEE9_M_rehashEmRKm W
_ZNSt10_HashtableINSt7__cxx1112basic_stringIcSt11char_traitsIcESaIcEEESt4pairIKS5_PFN6google8protobuf4util6StatusEPNSA_9converter23ProtoStreamObjectWriterERKNSC_9DataPieceEEESaISK_ENSt8__detail10_Select1stESt8equal_toIS5_ENS9_4hashIS5_EENSM_18_Mod_range_hashingENSM_20_Default_ranged_hashENSM_20_Prime_rehash_policyENSM_17_Hashtable_traitsILb1ELb0ELb1EEEE9_M_rehashEmRKm W
_ZNSt10_HashtableINSt7__cxx1112basic_stringIcSt11char_traitsIcESaIcEEESt4pairIKS5_PKN6google8protobuf23SourceCodeInfo_LocationEESaISD_ENSt8__detail10_Select1stESt8equal_toIS5_ENS9_4hashIS5_EENSF_18_Mod_range_hashingENSF_20_Default_ranged_hashENSF_20_Prime_rehash_policyENSF_17_Hashtable_traitsILb1ELb0ELb1EEEED1Ev W
_ZNSt10_HashtableINSt7__cxx1112basic_stringIcSt11char_traitsIcESaIcEEESt4pairIKS5_PKN6google8protobuf23SourceCodeInfo_LocationEESaISD_ENSt8__detail10_Select1stESt8equal_toIS5_ENS9_4hashIS5_EENSF_18_Mod_range_hashingENSF_20_Default_ranged_hashENSF_20_Prime_rehash_policyENSF_17_Hashtable_traitsILb1ELb0ELb1EEEED2Ev W
_ZNSt10_HashtableINSt7__cxx1112basic_stringIcSt11char_traitsIcESaIcEEESt4pairIKS5_iESaIS8_ENSt8__detail10_Select1stESt8equal_toIS5_EN6google8protobuf4hashIS5_EENSA_18_Mod_range_hashingENSA_20_Default_ranged_hashENSA_20_Prime_rehash_policyENSA_17_Hashtable_traitsILb1ELb0ELb1EEEE9_M_rehashEmRKm W
_ZNSt10_HashtableINSt7__cxx1112basic_stringIcSt11char_traitsIcESaIcEEESt4pairIKS5_iESaIS8_ENSt8__detail10_Select1stESt8equal_toIS5_EN6google8protobuf4hashIS5_EENSA_18_Mod_range_hashingENSA_20_Default_ranged_hashENSA_20_Prime_rehash_policyENSA_17_Hashtable_traitsILb1ELb0ELb1EEEED1Ev W
_ZNSt10_HashtableINSt7__cxx1112basic_stringIcSt11char_traitsIcESaIcEEESt4pairIKS5_iESaIS8_ENSt8__detail10_Select1stESt8equal_toIS5_EN6google8protobuf4hashIS5_EENSA_18_Mod_range_hashingENSA_20_Default_ranged_hashENSA_20_Prime_rehash_policyENSA_17_Hashtable_traitsILb1ELb0ELb1EEEED2Ev W
_ZNSt10_HashtableIPKN6google8protobuf10DescriptorES4_SaIS4_ENSt8__detail9_IdentityESt8equal_toIS4_ENS1_4hashIS4_EENS6_18_Mod_range_hashingENS6_20_Default_ranged_hashENS6_20_Prime_rehash_policyENS6_17_Hashtable_traitsILb1ELb1ELb1EEEE9_M_insertIRKS4_NS6_10_AllocNodeISaINS6_10_Hash_nodeIS4_Lb1EEEEEEEESt4pairINS6_14_Node_iteratorIS4_Lb1ELb1EEEbEOT_RKT0_St17integral_constantIbLb1EEm W
_ZNSt10_HashtableIPKN6google8protobuf10DescriptorES4_SaIS4_ENSt8__detail9_IdentityESt8equal_toIS4_ENS1_4hashIS4_EENS6_18_Mod_range_hashingENS6_20_Default_ranged_hashENS6_20_Prime_rehash_policyENS6_17_Hashtable_traitsILb1ELb1ELb1EEEE9_M_rehashEmRKm W
_ZNSt10_HashtableIPKN6google8protobuf10DescriptorESt4pairIKS4_PKNS1_14DynamicMessage8TypeInfoEESaISB_ENSt8__detail10_Select1stESt8equal_toIS4_ENS1_4hashIS4_EENSD_18_Mod_range_hashingENSD_20_Default_ranged_hashENSD_20_Prime_rehash_policyENSD_17_Hashtable_traitsILb1ELb0ELb1EEEE9_M_rehashEmRKm W
_ZNSt10_HashtableIPKN6google8protobuf10DescriptorESt4pairIKS4_PKNS1_14DynamicMessage8TypeInfoEESaISB_ENSt8__detail10_Select1stESt8equal_toIS4_ENS1_4hashIS4_EENSD_18_Mod_range_hashingENSD_20_Default_ranged_hashENSD_20_Prime_rehash_policyENSD_17_Hashtable_traitsILb1ELb0ELb1EEEED1Ev W
_ZNSt10_HashtableIPKN6google8protobuf10DescriptorESt4pairIKS4_PKNS1_14DynamicMessage8TypeInfoEESaISB_ENSt8__detail10_Select1stESt8equal_toIS4_ENS1_4hashIS4_EENSD_18_Mod_range_hashingENSD_20_Default_ranged_hashENSD_20_Prime_rehash_policyENSD_17_Hashtable_traitsILb1ELb0ELb1EEEED2Ev W
_ZNSt10_HashtableIPKN6google8protobuf10DescriptorESt4pairIKS4_PKNS1_7MessageEESaISA_ENSt8__detail10_Select1stESt8equal_toIS4_ENS1_4hashIS4_EENSC_18_Mod_range_hashingENSC_20_Default_ranged_hashENSC_20_Prime_rehash_policyENSC_17_Hashtable_traitsILb1ELb0ELb1EEEE9_M_rehashEmRKm W
_ZNSt10_HashtableIPKcSt4pairIKS1_N6google8protobuf6SymbolEESaIS7_ENSt8__detail10_Select1stENS5_5streqENS5_4hashIS1_EENS9_18_Mod_range_hashingENS9_20_Default_ranged_hashENS9_20_Prime_rehash_policyENS9_17_Hashtable_traitsILb1ELb0ELb1EEEE9_M_rehashEmRKm W
_ZNSt10_HashtableIPKcSt4pairIKS1_N6google8protobuf6SymbolEESaIS7_ENSt8__detail10_Select1stENS5_5streqENS5_4hashIS1_EENS9_18_Mod_range_hashingENS9_20_Default_ranged_hashENS9_20_Prime_rehash_policyENS9_17_Hashtable_traitsILb1ELb0ELb1EEEED1Ev W
_ZNSt10_HashtableIPKcSt4pairIKS1_N6google8protobuf6SymbolEESaIS7_ENSt8__detail10_Select1stENS5_5streqENS5_4hashIS1_EENS9_18_Mod_range_hashingENS9_20_Default_ranged_hashENS9_20_Prime_rehash_policyENS9_17_Hashtable_traitsILb1ELb0ELb1EEEED2Ev W
_ZNSt10_HashtableIPKcSt4pairIKS1_PFvRKNSt7__cxx1112basic_stringIcSt11char_traitsIcESaIcEEEEESaISE_ENSt8__detail10_Select1stEN6google8protobuf5streqENSJ_4hashIS1_EENSG_18_Mod_range_hashingENSG_20_Default_ranged_hashENSG_20_Prime_rehash_policyENSG_17_Hashtable_traitsILb1ELb0ELb1EEEE9_M_rehashEmRKm W
_ZNSt10_HashtableIPKcSt4pairIKS1_PFvRKNSt7__cxx1112basic_stringIcSt11char_traitsIcESaIcEEEEESaISE_ENSt8__detail10_Select1stEN6google8protobuf5streqENSJ_4hashIS1_EENSG_18_Mod_range_hashingENSG_20_Default_ranged_hashENSG_20_Prime_rehash_policyENSG_17_Hashtable_traitsILb1ELb0ELb1EEEED1Ev W
_ZNSt10_HashtableIPKcSt4pairIKS1_PFvRKNSt7__cxx1112basic_stringIcSt11char_traitsIcESaIcEEEEESaISE_ENSt8__detail10_Select1stEN6google8protobuf5streqENSJ_4hashIS1_EENSG_18_Mod_range_hashingENSG_20_Default_ranged_hashENSG_20_Prime_rehash_policyENSG_17_Hashtable_traitsILb1ELb0ELb1EEEED2Ev W
_ZNSt10_HashtableIPKcSt4pairIKS1_PKN6google8protobuf14FileDescriptorEESaIS9_ENSt8__detail10_Select1stENS5_5streqENS5_4hashIS1_EENSB_18_Mod_range_hashingENSB_20_Default_ranged_hashENSB_20_Prime_rehash_policyENSB_17_Hashtable_traitsILb1ELb0ELb1EEEE9_M_rehashEmRKm W
_ZNSt11_Deque_baseIN6google8protobuf4util9converter11ProtoWriter8SizeInfoESaIS5_EE17_M_initialize_mapEm W
_ZNSt11_Deque_baseIN6google8protobuf4util9converter11ProtoWriter8SizeInfoESaIS5_EED1Ev W
_ZNSt11_Deque_baseIN6google8protobuf4util9converter11ProtoWriter8SizeInfoESaIS5_EED2Ev W
_ZNSt13_Bvector_baseISaIbEE13_M_deallocateEv W
_ZNSt3_V28__rotateIN9__gnu_cxx17__normal_iteratorIPPKN6google8protobuf7MessageESt6vectorIS7_SaIS7_EEEEEET_SD_SD_SD_St26random_access_iterator_tag W
_ZNSt3_V28__rotateIN9__gnu_cxx17__normal_iteratorIPSt4pairIiPKN6google8protobuf12UnknownFieldEESt6vectorIS9_SaIS9_EEEEEET_SF_SF_SF_St26random_access_iterator_tag W
_ZNSt3mapINSt7__cxx1112basic_stringIcSt11char_traitsIcESaIcEEES5_St4lessIS5_ESaISt4pairIKS5_S5_EEED1Ev W
_ZNSt3mapINSt7__cxx1112basic_stringIcSt11char_traitsIcESaIcEEES5_St4lessIS5_ESaISt4pairIKS5_S5_EEED2Ev W
_ZNSt5dequeIN6google8protobuf4util9converter11ProtoWriter8SizeInfoESaIS5_EE16_M_push_back_auxIJRKS5_EEEvDpOT_ W
_ZNSt5dequeIN6google8protobuf4util9converter16JsonStreamParser9ParseTypeESaIS5_EE16_M_push_back_auxIJS5_EEEvDpOT_ W
_ZNSt5dequeIN6google8protobuf4util9converter16JsonStreamParser9ParseTypeESaIS5_EE17_M_reallocate_mapEmb W
_ZNSt5dequeINSt7__cxx1112basic_stringIcSt11char_traitsIcESaIcEEESaIS5_EE12emplace_backIJS5_EEEvDpOT_ W
_ZNSt5dequeINSt7__cxx1112basic_stringIcSt11char_traitsIcESaIcEEESaIS5_EED1Ev W
_ZNSt5dequeINSt7__cxx1112basic_stringIcSt11char_traitsIcESaIcEEESaIS5_EED2Ev W
_ZNSt5dequeIPN6google8protobuf4util9converter24DefaultValueObjectWriter4NodeESaIS6_EE16_M_push_back_auxIJRKS6_EEEvDpOT_ W
_ZNSt6vectorIN6google8protobuf10TextFormat13ParseLocationESaIS3_EE17_M_realloc_insertIJRKS3_EEEvN9__gnu_cxx17__normal_iteratorIPS3_S5_EEDpOT_ W
_ZNSt6vectorIN6google8protobuf12UnknownFieldESaIS2_EE17_M_default_appendEm W
_ZNSt6vectorIN6google8protobuf12UnknownFieldESaIS2_EE17_M_realloc_insertIJRKS2_EEEvN9__gnu_cxx17__normal_iteratorIPS2_S4_EEDpOT_ W
_ZNSt6vectorIN6google8protobuf14DescriptorPool6Tables10CheckPointESaIS4_EE17_M_realloc_insertIJS4_EEEvN9__gnu_cxx17__normal_iteratorIPS4_S6_EEDpOT_ W
_ZNSt6vectorIN6google8protobuf4util18MessageDifferencer13SpecificFieldESaIS4_EE17_M_realloc_insertIJRKS4_EEEvN9__gnu_cxx17__normal_iteratorIPS4_S6_EEDpOT_ W
_ZNSt6vectorIN6google8protobuf4util9converter23ProtoStreamObjectWriter9AnyWriter5EventESaIS6_EE12emplace_backIJS6_EEEvDpOT_ W
_ZNSt6vectorIN6google8protobuf4util9converter23ProtoStreamObjectWriter9AnyWriter5EventESaIS6_EE17_M_realloc_insertIJS6_EEEvN9__gnu_cxx17__normal_iteratorIPS6_S8_EEDpOT_ W
_ZNSt6vectorIN6google8protobuf6MapKeyESaIS2_EE17_M_realloc_insertIJRKS2_EEEvN9__gnu_cxx17__normal_iteratorIPS2_S4_EEDpOT_ W
_ZNSt6vectorIN6google8protobuf6MapKeyESaIS2_EED1Ev W
_ZNSt6vectorIN6google8protobuf6MapKeyESaIS2_EED2Ev W
_ZNSt6vectorIN6google8protobuf8compiler14DiskSourceTree7MappingESaIS4_EE17_M_realloc_insertIJS4_EEEvN9__gnu_cxx17__normal_iteratorIPS4_S6_EEDpOT_ W
_ZNSt6vectorINSt7__cxx1112basic_stringIcSt11char_traitsIcESaIcEEESaIS5_EE13_M_assign_auxIN6google8protobuf8internal19RepeatedPtrIteratorIKS5_EEEEvT_SF_St20forward_iterator_tag W
_ZNSt6vectorINSt7__cxx1112basic_stringIcSt11char_traitsIcESaIcEEESaIS5_EE15_M_range_insertIN9__gnu_cxx17__normal_iteratorIPS5_S7_EEEEvSC_T_SD_St20forward_iterator_tag W
_ZNSt6vectorINSt7__cxx1112basic_stringIcSt11char_traitsIcESaIcEEESaIS5_EE17_M_realloc_insertIJRKS5_EEEvN9__gnu_cxx17__normal_iteratorIPS5_S7_EEDpOT_ W
_ZNSt6vectorINSt7__cxx1112basic_stringIcSt11char_traitsIcESaIcEEESaIS5_EE17_M_realloc_insertIJS5_EEEvN9__gnu_cxx17__normal_iteratorIPS5_S7_EEDpOT_ W
_ZNSt6vectorINSt7__cxx1112basic_stringIcSt11char_traitsIcESaIcEEESaIS5_EED1Ev W
_ZNSt6vectorINSt7__cxx1112basic_stringIcSt11char_traitsIcESaIcEEESaIS5_EED2Ev W
_ZNSt6vectorIPKN6google8protobuf10DescriptorESaIS4_EE17_M_realloc_insertIJRKS4_EEEvN9__gnu_cxx17__normal_iteratorIPS4_S6_EEDpOT_ W
_ZNSt6vectorIPKN6google8protobuf15FieldDescriptorESaIS4_EE12emplace_backIJS4_EEEvDpOT_ W
_ZNSt6vectorIPKN6google8protobuf15FieldDescriptorESaIS4_EE17_M_realloc_insertIJRKS4_EEEvN9__gnu_cxx17__normal_iteratorIPS4_S6_EEDpOT_ W
_ZNSt6vectorIPKN6google8protobuf15FieldDescriptorESaIS4_EE17_M_realloc_insertIJS4_EEEvN9__gnu_cxx17__normal_iteratorIPS4_S6_EEDpOT_ W
_ZNSt6vectorIPKN6google8protobuf15FieldDescriptorESaIS4_EE7reserveEm W
_ZNSt6vectorIPKN6google8protobuf19FileDescriptorProtoESaIS4_EE17_M_realloc_insertIJRKS4_EEEvN9__gnu_cxx17__normal_iteratorIPS4_S6_EEDpOT_ W
_ZNSt6vectorIPKcSaIS1_EE17_M_default_appendEm W
_ZNSt6vectorIPKcSaIS1_EE17_M_realloc_insertIJS1_EEEvN9__gnu_cxx17__normal_iteratorIPS1_S3_EEDpOT_ W
_ZNSt6vectorIPN6google8protobuf10TextFormat13ParseInfoTreeESaIS4_EE17_M_realloc_insertIJRKS4_EEEvN9__gnu_cxx17__normal_iteratorIPS4_S6_EEDpOT_ W
_ZNSt6vectorIPN6google8protobuf17GoogleOnceDynamicESaIS3_EE17_M_default_appendEm W
_ZNSt6vectorIPN6google8protobuf17GoogleOnceDynamicESaIS3_EE17_M_realloc_insertIJRKS3_EEEvN9__gnu_cxx17__normal_iteratorIPS3_S5_EEDpOT_ W
_ZNSt6vectorIPN6google8protobuf18DescriptorDatabaseESaIS3_EE17_M_realloc_insertIJRKS3_EEEvN9__gnu_cxx17__normal_iteratorIPS3_S5_EEDpOT_ W
_ZNSt6vectorIPN6google8protobuf20FileDescriptorTablesESaIS3_EE17_M_default_appendEm W
_ZNSt6vectorIPN6google8protobuf20FileDescriptorTablesESaIS3_EE17_M_realloc_insertIJRKS3_EEEvN9__gnu_cxx17__normal_iteratorIPS3_S5_EEDpOT_ W
_ZNSt6vectorIPN6google8protobuf4util18MessageDifferencer16MapKeyComparatorESaIS5_EE17_M_realloc_insertIJRKS5_EEEvN9__gnu_cxx17__normal_iteratorIPS5_S7_EEDpOT_ W
_ZNSt6vectorIPN6google8protobuf4util9converter24DefaultValueObjectWriter4NodeESaIS6_EE17_M_realloc_insertIJRKS6_EEEvN9__gnu_cxx17__normal_iteratorIPS6_S8_EEDpOT_ W
_ZNSt6vectorIPN6google8protobuf4util9converter24DefaultValueObjectWriter4NodeESaIS6_EE17_M_realloc_insertIJS6_EEEvN9__gnu_cxx17__normal_iteratorIPS6_S8_EEDpOT_ W
_ZNSt6vectorIPN6google8protobuf7MessageESaIS3_EE17_M_default_appendEm W
_ZNSt6vectorIPN6google8protobuf7MessageESaIS3_EE17_M_realloc_insertIJS3_EEEvN9__gnu_cxx17__normal_iteratorIPS3_S5_EEDpOT_ W
_ZNSt6vectorIPNSt7__cxx1112basic_stringIcSt11char_traitsIcESaIcEEESaIS6_EE17_M_default_appendEm W
_ZNSt6vectorIPNSt7__cxx1112basic_stringIcSt11char_traitsIcESaIcEEESaIS6_EE17_M_realloc_insertIJRKS6_EEEvN9__gnu_cxx17__normal_iteratorIPS6_S8_EEDpOT_ W
_ZNSt6vectorIPNSt7__cxx1112basic_stringIcSt11char_traitsIcESaIcEEESaIS6_EE17_M_realloc_insertIJS6_EEEvN9__gnu_cxx17__normal_iteratorIPS6_S8_EEDpOT_ W
_ZNSt6vectorIPvSaIS0_EE17_M_default_appendEm W
_ZNSt6vectorIPvSaIS0_EE17_M_realloc_insertIJRKS0_EEEvN9__gnu_cxx17__normal_iteratorIPS0_S2_EEDpOT_ W
_ZNSt6vectorIS_IPKN6google8protobuf15FieldDescriptorESaIS4_EESaIS6_EE17_M_realloc_insertIJRKS6_EEEvN9__gnu_cxx17__normal_iteratorIPS6_S8_EEDpOT_ W
_ZNSt6vectorIS_IPKN6google8protobuf15FieldDescriptorESaIS4_EESaIS6_EED1Ev W
_ZNSt6vectorIS_IPKN6google8protobuf15FieldDescriptorESaIS4_EESaIS6_EED2Ev W
_ZNSt6vectorISt4pairIPKN6google8protobuf10DescriptorEiESaIS6_EE17_M_default_appendEm W
_ZNSt6vectorISt4pairIPKN6google8protobuf10DescriptorEiESaIS6_EE17_M_realloc_insertIJRKS6_EEEvN9__gnu_cxx17__normal_iteratorIPS6_S8_EEDpOT_ W
_ZNSt6vectorISt4pairIPKN6google8protobuf8MetadataES5_ESaIS6_EE17_M_realloc_insertIJS6_EEEvN9__gnu_cxx17__normal_iteratorIPS6_S8_EEDpOT_ W
_ZNSt6vectorISt4pairIiPKN6google8protobuf12UnknownFieldEESaIS6_EE17_M_realloc_insertIJS6_EEEvN9__gnu_cxx17__normal_iteratorIPS6_S8_EEDpOT_ W
_ZNSt6vectorISt4pairIiPKN6google8protobuf12UnknownFieldEESaIS6_EE7reserveEm W
_ZNSt6vectorIiSaIiEE14_M_fill_assignEmRKi W
_ZNSt6vectorIiSaIiEE17_M_realloc_insertIJRKiEEEvN9__gnu_cxx17__normal_iteratorIPiS1_EEDpOT_ W
_ZNSt6vectorIiSaIiEE17_M_realloc_insertIJiEEEvN9__gnu_cxx17__normal_iteratorIPiS1_EEDpOT_ W
_ZNSt7__cxx1112basic_stringIcSt11char_traitsIcESaIcEE12_M_constructIPKcEEvT_S8_St20forward_iterator_tag W
_ZNSt7__cxx1112basic_stringIcSt11char_traitsIcESaIcEE12_M_constructIPcEEvT_S7_St20forward_iterator_tag W
_ZNSt8_Rb_treeIN6google8protobuf11StringPieceESt4pairIKS2_NS1_4util8StatusOrIPKNS1_4EnumEEEESt10_Select1stISB_ESt4lessIS2_ESaISB_EE22_M_emplace_hint_uniqueIJRKSt21piecewise_construct_tSt5tupleIJOS2_EESM_IJEEEEESt17_Rb_tree_iteratorISB_ESt23_Rb_tree_const_iteratorISB_EDpOT_ W
_ZNSt8_Rb_treeIN6google8protobuf11StringPieceESt4pairIKS2_NS1_4util8StatusOrIPKNS1_4EnumEEEESt10_Select1stISB_ESt4lessIS2_ESaISB_EE24_M_get_insert_unique_posERS4_ W
_ZNSt8_Rb_treeIN6google8protobuf11StringPieceESt4pairIKS2_NS1_4util8StatusOrIPKNS1_4EnumEEEESt10_Select1stISB_ESt4lessIS2_ESaISB_EE29_M_get_insert_hint_unique_posESt23_Rb_tree_const_iteratorISB_ERS4_ W
_ZNSt8_Rb_treeIN6google8protobuf11StringPieceESt4pairIKS2_NS1_4util8StatusOrIPKNS1_4EnumEEEESt10_Select1stISB_ESt4lessIS2_ESaISB_EE8_M_eraseEPSt13_Rb_tree_nodeISB_E W
_ZNSt8_Rb_treeIN6google8protobuf11StringPieceESt4pairIKS2_NS1_4util8StatusOrIPKNS1_4TypeEEEESt10_Select1stISB_ESt4lessIS2_ESaISB_EE22_M_emplace_hint_uniqueIJRKSt21piecewise_construct_tSt5tupleIJOS2_EESM_IJEEEEESt17_Rb_tree_iteratorISB_ESt23_Rb_tree_const_iteratorISB_EDpOT_ W
_ZNSt8_Rb_treeIN6google8protobuf11StringPieceESt4pairIKS2_NS1_4util8StatusOrIPKNS1_4TypeEEEESt10_Select1stISB_ESt4lessIS2_ESaISB_EE24_M_get_insert_unique_posERS4_ W
_ZNSt8_Rb_treeIN6google8protobuf11StringPieceESt4pairIKS2_NS1_4util8StatusOrIPKNS1_4TypeEEEESt10_Select1stISB_ESt4lessIS2_ESaISB_EE29_M_get_insert_hint_unique_posESt23_Rb_tree_const_iteratorISB_ERS4_ W
_ZNSt8_Rb_treeIN6google8protobuf11StringPieceESt4pairIKS2_NS1_4util8StatusOrIPKNS1_4TypeEEEESt10_Select1stISB_ESt4lessIS2_ESaISB_EE8_M_eraseEPSt13_Rb_tree_nodeISB_E W
_ZNSt8_Rb_treeIN6google8protobuf11StringPieceESt4pairIKS2_S2_ESt10_Select1stIS5_ESt4lessIS2_ESaIS5_EE8_M_eraseEPSt13_Rb_tree_nodeIS5_E W
_ZNSt8_Rb_treeINSt7__cxx1112basic_stringIcSt11char_traitsIcESaIcEEES5_St9_IdentityIS5_ESt4lessIS5_ESaIS5_EE16_M_insert_uniqueIRKS5_EESt4pairISt17_Rb_tree_iteratorIS5_EbEOT_ W
_ZNSt8_Rb_treeINSt7__cxx1112basic_stringIcSt11char_traitsIcESaIcEEES5_St9_IdentityIS5_ESt4lessIS5_ESaIS5_EE16_M_insert_uniqueIS5_EESt4pairISt17_Rb_tree_iteratorIS5_EbEOT_ W
_ZNSt8_Rb_treeINSt7__cxx1112basic_stringIcSt11char_traitsIcESaIcEEES5_St9_IdentityIS5_ESt4lessIS5_ESaIS5_EE24_M_get_insert_unique_posERKS5_ W
_ZNSt8_Rb_treeINSt7__cxx1112basic_stringIcSt11char_traitsIcESaIcEEES5_St9_IdentityIS5_ESt4lessIS5_ESaIS5_EE4findERKS5_ W
_ZNSt8_Rb_treeINSt7__cxx1112basic_stringIcSt11char_traitsIcESaIcEEES5_St9_IdentityIS5_ESt4lessIS5_ESaIS5_EE8_M_eraseEPSt13_Rb_tree_nodeIS5_E W
_ZNSt8_Rb_treeINSt7__cxx1112basic_stringIcSt11char_traitsIcESaIcEEESt4pairIKS5_PKN6google8protobuf10DescriptorEESt10_Select1stISD_ESt4lessIS5_ESaISD_EE17_M_emplace_uniqueIJS6_IS5_SC_EEEES6_ISt17_Rb_tree_iteratorISD_EbEDpOT_ W
_ZNSt8_Rb_treeINSt7__cxx1112basic_stringIcSt11char_traitsIcESaIcEEESt4pairIKS5_PKN6google8protobuf10DescriptorEESt10_Select1stISD_ESt4lessIS5_ESaISD_EE4findERS7_ W
_ZNSt8_Rb_treeINSt7__cxx1112basic_stringIcSt11char_traitsIcESaIcEEESt4pairIKS5_PKN6google8protobuf10DescriptorEESt10_Select1stISD_ESt4lessIS5_ESaISD_EE8_M_eraseEPSt13_Rb_tree_nodeISD_E W
_ZNSt8_Rb_treeINSt7__cxx1112basic_stringIcSt11char_traitsIcESaIcEEESt4pairIKS5_PKN6google8protobuf15FieldDescriptorEESt10_Select1stISD_ESt4lessIS5_ESaISD_EE22_M_emplace_hint_uniqueIJRKSt21piecewise_construct_tSt5tupleIJRS7_EESO_IJEEEEESt17_Rb_tree_iteratorISD_ESt23_Rb_tree_const_iteratorISD_EDpOT_ W
_ZNSt8_Rb_treeINSt7__cxx1112basic_stringIcSt11char_traitsIcESaIcEEESt4pairIKS5_PKN6google8protobuf15FieldDescriptorEESt10_Select1stISD_ESt4lessIS5_ESaISD_EE24_M_get_insert_unique_posERS7_ W
_ZNSt8_Rb_treeINSt7__cxx1112basic_stringIcSt11char_traitsIcESaIcEEESt4pairIKS5_PKN6google8protobuf15FieldDescriptorEESt10_Select1stISD_ESt4lessIS5_ESaISD_EE8_M_eraseEPSt13_Rb_tree_nodeISD_E W
_ZNSt8_Rb_treeINSt7__cxx1112basic_stringIcSt11char_traitsIcESaIcEEESt4pairIKS5_PKN6google8protobuf19EnumValueDescriptorEESt10_Select1stISD_ESt4lessIS5_ESaISD_EE17_M_emplace_uniqueIJS6_IS5_SC_EEEES6_ISt17_Rb_tree_iteratorISD_EbEDpOT_ W
_ZNSt8_Rb_treeINSt7__cxx1112basic_stringIcSt11char_traitsIcESaIcEEESt4pairIKS5_PKN6google8protobuf19EnumValueDescriptorEESt10_Select1stISD_ESt4lessIS5_ESaISD_EE22_M_emplace_hint_uniqueIJRKSt21piecewise_construct_tSt5tupleIJRS7_EESO_IJEEEEESt17_Rb_tree_iteratorISD_ESt23_Rb_tree_const_iteratorISD_EDpOT_ W
_ZNSt8_Rb_treeINSt7__cxx1112basic_stringIcSt11char_traitsIcESaIcEEESt4pairIKS5_PKN6google8protobuf19EnumValueDescriptorEESt10_Select1stISD_ESt4lessIS5_ESaISD_EE24_M_get_insert_unique_posERS7_ W
_ZNSt8_Rb_treeINSt7__cxx1112basic_stringIcSt11char_traitsIcESaIcEEESt4pairIKS5_PKN6google8protobuf19EnumValueDescriptorEESt10_Select1stISD_ESt4lessIS5_ESaISD_EE8_M_eraseEPSt13_Rb_tree_nodeISD_E W
_ZNSt8_Rb_treeINSt7__cxx1112basic_stringIcSt11char_traitsIcESaIcEEESt4pairIKS5_PKN6google8protobuf19FileDescriptorProtoEESt10_Select1stISD_ESt4lessIS5_ESaISD_EE10_M_insert_ISD_NSJ_11_Alloc_nodeEEESt17_Rb_tree_iteratorISD_EPSt18_Rb_tree_node_baseSP_OT_RT0_ W
_ZNSt8_Rb_treeINSt7__cxx1112basic_stringIcSt11char_traitsIcESaIcEEESt4pairIKS5_PKN6google8protobuf19FileDescriptorProtoEESt10_Select1stISD_ESt4lessIS5_ESaISD_EE24_M_get_insert_unique_posERS7_ W
_ZNSt8_Rb_treeINSt7__cxx1112basic_stringIcSt11char_traitsIcESaIcEEESt4pairIKS5_PKN6google8protobuf19FileDescriptorProtoEESt10_Select1stISD_ESt4lessIS5_ESaISD_EE29_M_get_insert_hint_unique_posESt23_Rb_tree_const_iteratorISD_ERS7_ W
_ZNSt8_Rb_treeINSt7__cxx1112basic_stringIcSt11char_traitsIcESaIcEEESt4pairIKS5_PKN6google8protobuf19FileDescriptorProtoEESt10_Select1stISD_ESt4lessIS5_ESaISD_EE8_M_eraseEPSt13_Rb_tree_nodeISD_E W
_ZNSt8_Rb_treeINSt7__cxx1112basic_stringIcSt11char_traitsIcESaIcEEESt4pairIKS5_S5_ESt10_Select1stIS8_ESt4lessIS5_ESaIS8_EE22_M_emplace_hint_uniqueIJRKSt21piecewise_construct_tSt5tupleIJOS5_EESJ_IJEEEEESt17_Rb_tree_iteratorIS8_ESt23_Rb_tree_const_iteratorIS8_EDpOT_ W
_ZNSt8_Rb_treeINSt7__cxx1112basic_stringIcSt11char_traitsIcESaIcEEESt4pairIKS5_S5_ESt10_Select1stIS8_ESt4lessIS5_ESaIS8_EE24_M_get_insert_unique_posERS7_ W
_ZNSt8_Rb_treeINSt7__cxx1112basic_stringIcSt11char_traitsIcESaIcEEESt4pairIKS5_S5_ESt10_Select1stIS8_ESt4lessIS5_ESaIS8_EE8_M_eraseEPSt13_Rb_tree_nodeIS8_E W
_ZNSt8_Rb_treeINSt7__cxx1112basic_stringIcSt11char_traitsIcESaIcEEESt4pairIKS5_S6_IPKviEESt10_Select1stISB_ESt4lessIS5_ESaISB_EE10_M_insert_ISB_NSH_11_Alloc_nodeEEESt17_Rb_tree_iteratorISB_EPSt18_Rb_tree_node_baseSN_OT_RT0_ W
_ZNSt8_Rb_treeINSt7__cxx1112basic_stringIcSt11char_traitsIcESaIcEEESt4pairIKS5_S6_IPKviEESt10_Select1stISB_ESt4lessIS5_ESaISB_EE24_M_get_insert_unique_posERS7_ W
_ZNSt8_Rb_treeINSt7__cxx1112basic_stringIcSt11char_traitsIcESaIcEEESt4pairIKS5_S6_IPKviEESt10_Select1stISB_ESt4lessIS5_ESaISB_EE29_M_get_insert_hint_unique_posESt23_Rb_tree_const_iteratorISB_ERS7_ W
_ZNSt8_Rb_treeINSt7__cxx1112basic_stringIcSt11char_traitsIcESaIcEEESt4pairIKS5_S6_IPKviEESt10_Select1stISB_ESt4lessIS5_ESaISB_EE8_M_eraseEPSt13_Rb_tree_nodeISB_E W
_ZNSt8_Rb_treeINSt7__cxx1112basic_stringIcSt11char_traitsIcESaIcEEESt4pairIKS5_S6_ImmEESt10_Select1stIS9_ESt4lessIS5_ESaIS9_EE17_M_emplace_uniqueIJS6_IS5_S8_EEEES6_ISt17_Rb_tree_iteratorIS9_EbEDpOT_ W
_ZNSt8_Rb_treeINSt7__cxx1112basic_stringIcSt11char_traitsIcESaIcEEESt4pairIKS5_S6_ImmEESt10_Select1stIS9_ESt4lessIS5_ESaIS9_EE22_M_emplace_hint_uniqueIJRKSt21piecewise_construct_tSt5tupleIJRS7_EESK_IJEEEEESt17_Rb_tree_iteratorIS9_ESt23_Rb_tree_const_iteratorIS9_EDpOT_ W
_ZNSt8_Rb_treeINSt7__cxx1112basic_stringIcSt11char_traitsIcESaIcEEESt4pairIKS5_S6_ImmEESt10_Select1stIS9_ESt4lessIS5_ESaIS9_EE24_M_get_insert_unique_posERS7_ W
_ZNSt8_Rb_treeINSt7__cxx1112basic_stringIcSt11char_traitsIcESaIcEEESt4pairIKS5_S6_ImmEESt10_Select1stIS9_ESt4lessIS5_ESaIS9_EE8_M_eraseEPSt13_Rb_tree_nodeIS9_E W
_ZNSt8_Rb_treeIPKN6google8protobuf10DescriptorES4_St9_IdentityIS4_ESt4lessIS4_ESaIS4_EE16_M_insert_uniqueIS4_EESt4pairISt17_Rb_tree_iteratorIS4_EbEOT_ W
_ZNSt8_Rb_treeIPKN6google8protobuf10DescriptorES4_St9_IdentityIS4_ESt4lessIS4_ESaIS4_EE8_M_eraseEPSt13_Rb_tree_nodeIS4_E W
_ZNSt8_Rb_treeIPKN6google8protobuf14FileDescriptorES4_St9_IdentityIS4_ESt4lessIS4_ESaIS4_EE16_M_insert_uniqueIRKS4_EESt4pairISt17_Rb_tree_iteratorIS4_EbEOT_ W
_ZNSt8_Rb_treeIPKN6google8protobuf14FileDescriptorES4_St9_IdentityIS4_ESt4lessIS4_ESaIS4_EE5eraseERKS4_ W
_ZNSt8_Rb_treeIPKN6google8protobuf14FileDescriptorES4_St9_IdentityIS4_ESt4lessIS4_ESaIS4_EE8_M_eraseEPSt13_Rb_tree_nodeIS4_E W
_ZNSt8_Rb_treeIPKN6google8protobuf15FieldDescriptorES4_St9_IdentityIS4_ESt4lessIS4_ESaIS4_EE16_M_insert_uniqueIRKS4_EESt4pairISt17_Rb_tree_iteratorIS4_EbEOT_ W
_ZNSt8_Rb_treeIPKN6google8protobuf15FieldDescriptorES4_St9_IdentityIS4_ESt4lessIS4_ESaIS4_EE8_M_eraseEPSt13_Rb_tree_nodeIS4_E W
_ZNSt8_Rb_treeIPKN6google8protobuf15FieldDescriptorESt4pairIKS4_NS1_4util22DefaultFieldComparator9ToleranceEESt10_Select1stISA_ESt4lessIS4_ESaISA_EE29_M_get_insert_hint_unique_posESt23_Rb_tree_const_iteratorISA_ERS6_ W
_ZNSt8_Rb_treeIPKN6google8protobuf15FieldDescriptorESt4pairIKS4_NS1_4util22DefaultFieldComparator9ToleranceEESt10_Select1stISA_ESt4lessIS4_ESaISA_EE8_M_eraseEPSt13_Rb_tree_nodeISA_E W
_ZNSt8_Rb_treeIPKN6google8protobuf15FieldDescriptorESt4pairIKS4_PKNS1_10TextFormat21FastFieldValuePrinterEESt10_Select1stISB_ESt4lessIS4_ESaISB_EE8_M_eraseEPSt13_Rb_tree_nodeISB_E W
_ZNSt8_Rb_treeIPKN6google8protobuf15FieldDescriptorESt4pairIKS4_PKNS1_4util18MessageDifferencer16MapKeyComparatorEESt10_Select1stISC_ESt4lessIS4_ESaISC_EE22_M_emplace_hint_uniqueIJRKSt21piecewise_construct_tSt5tupleIJRS6_EESN_IJEEEEESt17_Rb_tree_iteratorISC_ESt23_Rb_tree_const_iteratorISC_EDpOT_ W
_ZNSt8_Rb_treeIPKN6google8protobuf15FieldDescriptorESt4pairIKS4_PKNS1_4util18MessageDifferencer16MapKeyComparatorEESt10_Select1stISC_ESt4lessIS4_ESaISC_EE8_M_eraseEPSt13_Rb_tree_nodeISC_E W
_ZNSt8_Rb_treeIPKN6google8protobuf15FieldDescriptorESt4pairIKS4_St6vectorINS1_10TextFormat13ParseLocationESaIS9_EEESt10_Select1stISC_ESt4lessIS4_ESaISC_EE29_M_get_insert_hint_unique_posESt23_Rb_tree_const_iteratorISC_ERS6_ W
_ZNSt8_Rb_treeIPKN6google8protobuf15FieldDescriptorESt4pairIKS4_St6vectorINS1_10TextFormat13ParseLocationESaIS9_EEESt10_Select1stISC_ESt4lessIS4_ESaISC_EE8_M_eraseEPSt13_Rb_tree_nodeISC_E W
_ZNSt8_Rb_treeIPKN6google8protobuf15FieldDescriptorESt4pairIKS4_St6vectorIPNS1_10TextFormat13ParseInfoTreeESaISA_EEESt10_Select1stISD_ESt4lessIS4_ESaISD_EE29_M_get_insert_hint_unique_posESt23_Rb_tree_const_iteratorISD_ERS6_ W
_ZNSt8_Rb_treeIPKN6google8protobuf15FieldDescriptorESt4pairIKS4_St6vectorIPNS1_10TextFormat13ParseInfoTreeESaISA_EEESt10_Select1stISD_ESt4lessIS4_ESaISD_EE8_M_eraseEPSt13_Rb_tree_nodeISD_E W
_ZNSt8_Rb_treeIPKN6google8protobuf4TypeESt4pairIKS4_St3mapINS1_11StringPieceES8_St4lessIS8_ESaIS5_IKS8_S8_EEEESt10_Select1stISF_ES9_IS4_ESaISF_EE29_M_get_insert_hint_unique_posESt23_Rb_tree_const_iteratorISF_ERS6_ W
_ZNSt8_Rb_treeIPKN6google8protobuf4TypeESt4pairIKS4_St3mapINS1_11StringPieceES8_St4lessIS8_ESaIS5_IKS8_S8_EEEESt10_Select1stISF_ES9_IS4_ESaISF_EE8_M_eraseEPSt13_Rb_tree_nodeISF_E W
_ZNSt8_Rb_treeIPKN6google8protobuf5FieldES4_St9_IdentityIS4_ESt4lessIS4_ESaIS4_EE5eraseERKS4_ W
_ZNSt8_Rb_treeIPKN6google8protobuf5FieldES4_St9_IdentityIS4_ESt4lessIS4_ESaIS4_EE8_M_eraseEPSt13_Rb_tree_nodeIS4_E W
_ZNSt8_Rb_treeIPN6google8protobuf6MapKeyES3_St9_IdentityIS3_ENS1_3MapIS2_NS1_11MapValueRefEE8InnerMap10KeyCompareENS8_12MapAllocatorIS3_EEE16_M_insert_uniqueIS3_EESt4pairISt17_Rb_tree_iteratorIS3_EbEOT_ W
_ZNSt8_Rb_treeIPN6google8protobuf6MapKeyES3_St9_IdentityIS3_ENS1_3MapIS2_NS1_11MapValueRefEE8InnerMap10KeyCompareENS8_12MapAllocatorIS3_EEE4findERKS3_ W
_ZNSt8_Rb_treeIPN6google8protobuf6MapKeyES3_St9_IdentityIS3_ENS1_3MapIS2_NS1_11MapValueRefEE8InnerMap10KeyCompareENS8_12MapAllocatorIS3_EEE5eraseERKS3_ W
_ZNSt8_Rb_treeIPN6google8protobuf6MapKeyES3_St9_IdentityIS3_ENS1_3MapIS2_NS1_11MapValueRefEE8InnerMap10KeyCompareENS8_12MapAllocatorIS3_EEE8_M_eraseEPSt13_Rb_tree_nodeIS3_E W
_ZNSt8_Rb_treeIPNSt7__cxx1112basic_stringIcSt11char_traitsIcESaIcEEES6_St9_IdentityIS6_EN6google8protobuf3MapIS5_NSA_5ValueEE8InnerMap10KeyCompareENSD_12MapAllocatorIS6_EEE11equal_rangeERKS6_ W
_ZNSt8_Rb_treeIPNSt7__cxx1112basic_stringIcSt11char_traitsIcESaIcEEES6_St9_IdentityIS6_EN6google8protobuf3MapIS5_NSA_5ValueEE8InnerMap10KeyCompareENSD_12MapAllocatorIS6_EEE16_M_insert_uniqueIS6_EESt4pairISt17_Rb_tree_iteratorIS6_EbEOT_ W
_ZNSt8_Rb_treeIPNSt7__cxx1112basic_stringIcSt11char_traitsIcESaIcEEES6_St9_IdentityIS6_EN6google8protobuf3MapIS5_NSA_5ValueEE8InnerMap10KeyCompareENSD_12MapAllocatorIS6_EEE4findERKS6_ W
_ZNSt8_Rb_treeIPNSt7__cxx1112basic_stringIcSt11char_traitsIcESaIcEEES6_St9_IdentityIS6_EN6google8protobuf3MapIS5_NSA_5ValueEE8InnerMap10KeyCompareENSD_12MapAllocatorIS6_EEE5eraseERKS6_ W
_ZNSt8_Rb_treeIPNSt7__cxx1112basic_stringIcSt11char_traitsIcESaIcEEES6_St9_IdentityIS6_EN6google8protobuf3MapIS5_NSA_5ValueEE8InnerMap10KeyCompareENSD_12MapAllocatorIS6_EEE8_M_eraseEPSt13_Rb_tree_nodeIS6_E W
_ZNSt8_Rb_treeISt4pairINSt7__cxx1112basic_stringIcSt11char_traitsIcESaIcEEEiES0_IKS7_PKN6google8protobuf19FileDescriptorProtoEESt10_Select1stISE_ESt4lessIS7_ESaISE_EE8_M_eraseEPSt13_Rb_tree_nodeISE_E W
_ZNSt8_Rb_treeISt4pairINSt7__cxx1112basic_stringIcSt11char_traitsIcESaIcEEEiES0_IKS7_S0_IPKviEESt10_Select1stISC_ESt4lessIS7_ESaISC_EE8_M_eraseEPSt13_Rb_tree_nodeISC_E W
_ZNSt8_Rb_treeISt4pairIPKN6google8protobuf10DescriptorEiES0_IKS6_PKNS2_15FieldDescriptorEESt10_Select1stISB_ESt4lessIS6_ESaISB_EE11equal_rangeERS7_ W
_ZNSt8_Rb_treeISt4pairIPKN6google8protobuf10DescriptorEiES0_IKS6_PKNS2_15FieldDescriptorEESt10_Select1stISB_ESt4lessIS6_ESaISB_EE8_M_eraseEPSt13_Rb_tree_nodeISB_E W
_ZNSt8_Rb_treeISt4pairIPKN6google8protobuf7MessageENS2_14DescriptorPool14ErrorCollector13ErrorLocationEES0_IKS9_S0_IiiEESt10_Select1stISC_ESt4lessIS9_ESaISC_EE24_M_get_insert_unique_posERSA_ W
_ZNSt8_Rb_treeISt4pairIPKN6google8protobuf7MessageENS2_14DescriptorPool14ErrorCollector13ErrorLocationEES0_IKS9_S0_IiiEESt10_Select1stISC_ESt4lessIS9_ESaISC_EE29_M_get_insert_hint_unique_posESt23_Rb_tree_const_iteratorISC_ERSA_ W
_ZNSt8_Rb_treeISt4pairIPKN6google8protobuf7MessageENS2_14DescriptorPool14ErrorCollector13ErrorLocationEES0_IKS9_S0_IiiEESt10_Select1stISC_ESt4lessIS9_ESaISC_EE8_M_eraseEPSt13_Rb_tree_nodeISC_E W
_ZNSt8_Rb_treeISt4pairIiiES0_IKS1_bESt10_Select1stIS3_ESt4lessIS1_ESaIS3_EE22_M_emplace_hint_uniqueIJRKSt21piecewise_construct_tSt5tupleIJRS2_EESE_IJEEEEESt17_Rb_tree_iteratorIS3_ESt23_Rb_tree_const_iteratorIS3_EDpOT_ W
_ZNSt8_Rb_treeISt4pairIiiES0_IKS1_bESt10_Select1stIS3_ESt4lessIS1_ESaIS3_EE24_M_get_insert_unique_posERS2_ W
_ZNSt8_Rb_treeISt4pairIiiES0_IKS1_bESt10_Select1stIS3_ESt4lessIS1_ESaIS3_EE8_M_eraseEPSt13_Rb_tree_nodeIS3_E W
_ZNSt8_Rb_treeIiSt4pairIKiN6google8protobuf8internal12ExtensionSet9ExtensionEESt10_Select1stIS7_ESt4lessIiESaIS7_EE5eraseERS1_ W
_ZNSt8_Rb_treeIiSt4pairIKiN6google8protobuf8internal12ExtensionSet9ExtensionEESt10_Select1stIS7_ESt4lessIiESaIS7_EE8_M_eraseEPSt13_Rb_tree_nodeIS7_E W
_ZNSt8_Rb_treeIiSt4pairIKiNSt7__cxx1112basic_stringIcSt11char_traitsIcESaIcEEEESt10_Select1stIS8_ESt4lessIiESaIS8_EE22_M_emplace_hint_uniqueIJRKSt21piecewise_construct_tSt5tupleIJOiEESJ_IJEEEEESt17_Rb_tree_iteratorIS8_ESt23_Rb_tree_const_iteratorIS8_EDpOT_ W
_ZNSt8_Rb_treeIiSt4pairIKiNSt7__cxx1112basic_stringIcSt11char_traitsIcESaIcEEEESt10_Select1stIS8_ESt4lessIiESaIS8_EE8_M_eraseEPSt13_Rb_tree_nodeIS8_E W
_ZNSt8_Rb_treeIiiSt9_IdentityIiESt4lessIiESaIiEE16_M_insert_uniqueIRKiEESt4pairISt17_Rb_tree_iteratorIiEbEOT_ W
_ZNSt8_Rb_treeIiiSt9_IdentityIiESt4lessIiESaIiEE8_M_eraseEPSt13_Rb_tree_nodeIiE W
_ZNSt8__detail9_Map_baseINSt7__cxx1112basic_stringIcSt11char_traitsIcESaIcEEESt4pairIKS6_N6google8protobuf25FieldDescriptorProto_TypeEESaISC_ENS_10_Select1stESt8equal_toIS6_ENSA_4hashIS6_EENS_18_Mod_range_hashingENS_20_Default_ranged_hashENS_20_Prime_rehash_policyENS_17_Hashtable_traitsILb1ELb0ELb1EEELb1EEixEOS6_ W
_ZNSt8__detail9_Map_baseINSt7__cxx1112basic_stringIcSt11char_traitsIcESaIcEEESt4pairIKS6_PFN6google8protobuf4util6StatusEPKNSB_9converter23ProtoStreamObjectSourceERKNSA_4TypeENSA_11StringPieceEPNSD_12ObjectWriterEEESaISP_ENS_10_Select1stESt8equal_toIS6_ENSA_4hashIS6_EENS_18_Mod_range_hashingENS_20_Default_ranged_hashENS_20_Prime_rehash_policyENS_17_Hashtable_traitsILb1ELb0ELb1EEELb1EEixEOS6_ W
_ZNSt8__detail9_Map_baseINSt7__cxx1112basic_stringIcSt11char_traitsIcESaIcEEESt4pairIKS6_PFN6google8protobuf4util6StatusEPNSB_9converter23ProtoStreamObjectWriterERKNSD_9DataPieceEEESaISL_ENS_10_Select1stESt8equal_toIS6_ENSA_4hashIS6_EENS_18_Mod_range_hashingENS_20_Default_ranged_hashENS_20_Prime_rehash_policyENS_17_Hashtable_traitsILb1ELb0ELb1EEELb1EEixEOS6_ W
_ZNSt8__detail9_Map_baseIPKN6google8protobuf10DescriptorESt4pairIKS5_PKNS2_14DynamicMessage8TypeInfoEESaISC_ENS_10_Select1stESt8equal_toIS5_ENS2_4hashIS5_EENS_18_Mod_range_hashingENS_20_Default_ranged_hashENS_20_Prime_rehash_policyENS_17_Hashtable_traitsILb1ELb0ELb1EEELb1EEixERS7_ W
_ZSt12__move_mergeIPPKN6google8protobuf7MessageEN9__gnu_cxx17__normal_iteratorIS5_St6vectorIS4_SaIS4_EEEENS6_5__ops15_Iter_comp_iterINS1_16DynamicMapSorter25MapEntryMessageComparatorEEEET0_T_SI_SI_SI_SH_T1_ W
_ZSt13__adjust_heapIN9__gnu_cxx17__normal_iteratorIPN6google8protobuf6MapKeyESt6vectorIS4_SaIS4_EEEElS4_NS0_5__ops15_Iter_comp_iterINS3_8internal12MapKeySorter16MapKeyComparatorEEEEvT_T0_SH_T1_T2_ W
_ZSt13__adjust_heapIN9__gnu_cxx17__normal_iteratorIPPKN6google8protobuf15FieldDescriptorESt6vectorIS6_SaIS6_EEEElS6_NS0_5__ops15_Iter_comp_iterIPFbS6_S6_EEEEvT_T0_SI_T1_T2_ W
_ZSt13__adjust_heapIPPKN6google8protobuf7MapPairINSt7__cxx1112basic_stringIcSt11char_traitsIcESaIcEEENS1_5ValueEEElSC_N9__gnu_cxx5__ops15_Iter_comp_iterINS1_8internal19CompareByDerefFirstISC_EEEEEvT_T0_SM_T1_T2_ W
_ZSt13__heap_selectIPPKN6google8protobuf7MapPairINSt7__cxx1112basic_stringIcSt11char_traitsIcESaIcEEENS1_5ValueEEEN9__gnu_cxx5__ops15_Iter_comp_iterINS1_8internal19CompareByDerefFirstISC_EEEEEvT_SL_SL_T0_ W
_ZSt16__insertion_sortIN9__gnu_cxx17__normal_iteratorIPN6google8protobuf6MapKeyESt6vectorIS4_SaIS4_EEEENS0_5__ops15_Iter_comp_iterINS3_8internal12MapKeySorter16MapKeyComparatorEEEEvT_SG_T0_ W
_ZSt16__insertion_sortIN9__gnu_cxx17__normal_iteratorIPPKN6google8protobuf15FieldDescriptorESt6vectorIS6_SaIS6_EEEENS0_5__ops15_Iter_comp_iterIPFbS6_S6_EEEEvT_SH_T0_ W
_ZSt16__insertion_sortIN9__gnu_cxx17__normal_iteratorIPPKN6google8protobuf7MessageESt6vectorIS6_SaIS6_EEEENS0_5__ops15_Iter_comp_iterINS3_16DynamicMapSorter25MapEntryMessageComparatorEEEEvT_SH_T0_ W
_ZSt16__insertion_sortIPPKN6google8protobuf7MapPairINSt7__cxx1112basic_stringIcSt11char_traitsIcESaIcEEENS1_5ValueEEEN9__gnu_cxx5__ops15_Iter_comp_iterINS1_8internal19CompareByDerefFirstISC_EEEEEvT_SL_T0_ W
_ZSt16__introsort_loopIN9__gnu_cxx17__normal_iteratorIPN6google8protobuf6MapKeyESt6vectorIS4_SaIS4_EEEElNS0_5__ops15_Iter_comp_iterINS3_8internal12MapKeySorter16MapKeyComparatorEEEEvT_SG_T0_T1_ W
_ZSt16__introsort_loopIN9__gnu_cxx17__normal_iteratorIPPKN6google8protobuf15FieldDescriptorESt6vectorIS6_SaIS6_EEEElNS0_5__ops15_Iter_comp_iterIPFbS6_S6_EEEEvT_SH_T0_T1_ W
_ZSt16__introsort_loopIPPKN6google8protobuf7MapPairINSt7__cxx1112basic_stringIcSt11char_traitsIcESaIcEEENS1_5ValueEEElN9__gnu_cxx5__ops15_Iter_comp_iterINS1_8internal19CompareByDerefFirstISC_EEEEEvT_SL_T0_T1_ W
_ZSt16__merge_adaptiveIN9__gnu_cxx17__normal_iteratorIPPKN6google8protobuf7MessageESt6vectorIS6_SaIS6_EEEElS7_NS0_5__ops15_Iter_comp_iterINS3_16DynamicMapSorter25MapEntryMessageComparatorEEEEvT_SH_SH_T0_SI_T1_SI_T2_ W
_ZSt17__rotate_adaptiveIN9__gnu_cxx17__normal_iteratorIPSt4pairIiPKN6google8protobuf12UnknownFieldEESt6vectorIS8_SaIS8_EEEES9_lET_SE_SE_SE_T1_SF_T0_SF_ W
_ZSt21__inplace_stable_sortIN9__gnu_cxx17__normal_iteratorIPPKN6google8protobuf7MessageESt6vectorIS6_SaIS6_EEEENS0_5__ops15_Iter_comp_iterINS3_16DynamicMapSorter25MapEntryMessageComparatorEEEEvT_SH_T0_ W
_ZSt22__merge_without_bufferIN9__gnu_cxx17__normal_iteratorIPPKN6google8protobuf7MessageESt6vectorIS6_SaIS6_EEEElNS0_5__ops15_Iter_comp_iterINS3_16DynamicMapSorter25MapEntryMessageComparatorEEEEvT_SH_SH_T0_SI_T1_ W
_ZSt22__stable_sort_adaptiveIN9__gnu_cxx17__normal_iteratorIPPKN6google8protobuf7MessageESt6vectorIS6_SaIS6_EEEES7_lNS0_5__ops15_Iter_comp_iterINS3_16DynamicMapSorter25MapEntryMessageComparatorEEEEvT_SH_T0_T1_T2_ W
_ZSt24__merge_sort_with_bufferIN9__gnu_cxx17__normal_iteratorIPPKN6google8protobuf7MessageESt6vectorIS6_SaIS6_EEEES7_NS0_5__ops15_Iter_comp_iterINS3_16DynamicMapSorter25MapEntryMessageComparatorEEEEvT_SH_T0_T1_ W
_ZSteqIcEN9__gnu_cxx11__enable_ifIXsrSt9__is_charIT_E7__valueEbE6__typeERKNSt7__cxx1112basic_stringIS3_St11char_traitsIS3_ESaIS3_EEESE_ W
_ZStplIcSt11char_traitsIcESaIcEENSt7__cxx1112basic_stringIT_T0_T1_EEOS8_PKS5_ W
_ZStplIcSt11char_traitsIcESaIcEENSt7__cxx1112basic_stringIT_T0_T1_EEOS8_RKS8_ W
_ZStplIcSt11char_traitsIcESaIcEENSt7__cxx1112basic_stringIT_T0_T1_EEPKS5_RKS8_ W
_ZTIN6google8protobuf10BytesValueE V
_ZTIN6google8protobuf10FloatValueE V
_ZTIN6google8protobuf10Int32ValueE V
_ZTIN6google8protobuf10Int64ValueE V
_ZTIN6google8protobuf10ReflectionE V
_ZTIN6google8protobuf10RpcChannelE V
_ZTIN6google8protobuf10TextFormat17BaseTextGeneratorE V
_ZTIN6google8protobuf10TextFormat17FieldValuePrinterE V
_ZTIN6google8protobuf10TextFormat21FastFieldValuePrinterE V
_ZTIN6google8protobuf10TextFormat6FinderE V
_ZTIN6google8protobuf10TextFormat6Parser10ParserImpl20ParserErrorCollectorE V
_ZTIN6google8protobuf10TextFormat7Printer13TextGeneratorE V
_ZTIN6google8protobuf11DoubleValueE V
_ZTIN6google8protobuf11EnumOptionsE V
_ZTIN6google8protobuf11FileOptionsE V
_ZTIN6google8protobuf11StringValueE V
_ZTIN6google8protobuf11UInt32ValueE V
_ZTIN6google8protobuf11UInt64ValueE V
_ZTIN6google8protobuf12FieldOptionsE V
_ZTIN6google8protobuf12OneofOptionsE V
_ZTIN6google8protobuf13MethodOptionsE V
_ZTIN6google8protobuf13RpcControllerE V
_ZTIN6google8protobuf13SourceContextE V
_ZTIN6google8protobuf14DescriptorPool14ErrorCollectorE V
_ZTIN6google8protobuf14DynamicMessageE V
_ZTIN6google8protobuf14MessageFactoryE V
_ZTIN6google8protobuf14MessageOptionsE V
_ZTIN6google8protobuf14ServiceOptionsE V
_ZTIN6google8protobuf14SourceCodeInfoE V
_ZTIN6google8protobuf15DescriptorProtoE V
_ZTIN6google8protobuf15ResultCallback1INS0_4util6StatusENS0_11StringPieceEEE V
_ZTIN6google8protobuf15ResultCallback2IbiiEE V
_ZTIN6google8protobuf16EnumValueOptionsE V
_ZTIN6google8protobuf16RepeatedPtrFieldINS0_11MessageLiteEEE V
_ZTIN6google8protobuf16RepeatedPtrFieldINS0_7MessageEEE V
_ZTIN6google8protobuf17DescriptorBuilder17OptionInterpreter21AggregateOptionFinderE V
_ZTIN6google8protobuf17FileDescriptorSetE V
_ZTIN6google8protobuf17GeneratedCodeInfoE V
_ZTIN6google8protobuf18DescriptorDatabaseE V
_ZTIN6google8protobuf19EnumDescriptorProtoE V
_ZTIN6google8protobuf19FileDescriptorProtoE V
_ZTIN6google8protobuf19UninterpretedOptionE V
_ZTIN6google8protobuf20FieldDescriptorProtoE V
_ZTIN6google8protobuf20OneofDescriptorProtoE V
_ZTIN6google8protobuf21DynamicMessageFactoryE V
_ZTIN6google8protobuf21ExtensionRangeOptionsE V
_ZTIN6google8protobuf21MethodDescriptorProtoE V
_ZTIN6google8protobuf22DescriptorPoolDatabaseE V
_ZTIN6google8protobuf22ServiceDescriptorProtoE V
_ZTIN6google8protobuf23SourceCodeInfo_LocationE V
_ZTIN6google8protobuf24EnumValueDescriptorProtoE V
_ZTIN6google8protobuf24MergedDescriptorDatabaseE V
_ZTIN6google8protobuf24SimpleDescriptorDatabaseE V
_ZTIN6google8protobuf25EncodedDescriptorDatabaseE V
_ZTIN6google8protobuf27Struct_FieldsEntry_DoNotUseE V
_ZTIN6google8protobuf28GeneratedCodeInfo_AnnotationE V
_ZTIN6google8protobuf28UninterpretedOption_NamePartE V
_ZTIN6google8protobuf29DescriptorProto_ReservedRangeE V
_ZTIN6google8protobuf2io14ErrorCollectorE V
_ZTIN6google8protobuf2io15FileInputStream22CopyingFileInputStreamE V
_ZTIN6google8protobuf2io15FileInputStreamE V
_ZTIN6google8protobuf2io16FileOutputStream23CopyingFileOutputStreamE V
_ZTIN6google8protobuf2io16FileOutputStreamE V
_ZTIN6google8protobuf2io18IstreamInputStream25CopyingIstreamInputStreamE V
_ZTIN6google8protobuf2io18IstreamInputStreamE V
_ZTIN6google8protobuf2io19CopyingOutputStreamE V
_ZTIN6google8protobuf2io19LimitingInputStreamE V
_ZTIN6google8protobuf2io19OstreamOutputStream26CopyingOstreamOutputStreamE V
_ZTIN6google8protobuf2io19OstreamOutputStreamE V
_ZTIN6google8protobuf2io19ZeroCopyInputStreamE V
_ZTIN6google8protobuf2io24ConcatenatingInputStreamE V
_ZTIN6google8protobuf30DescriptorProto_ExtensionRangeE V
_ZTIN6google8protobuf37EnumDescriptorProto_EnumReservedRangeE V
_ZTIN6google8protobuf3AnyE V
_ZTIN6google8protobuf3ApiE V
_ZTIN6google8protobuf3MapINSt7__cxx1112basic_stringIcSt11char_traitsIcESaIcEEENS0_5ValueEE8InnerMapE V
_ZTIN6google8protobuf4EnumE V
_ZTIN6google8protobuf4TypeE V
_ZTIN6google8protobuf4hashINSt7__cxx1112basic_stringIcSt11char_traitsIcESaIcEEEEE V
_ZTIN6google8protobuf4util12TypeResolverE V
_ZTIN6google8protobuf4util15FieldComparatorE V
_ZTIN6google8protobuf4util18MessageDifferencer14IgnoreCriteriaE V
_ZTIN6google8protobuf4util18MessageDifferencer14StreamReporterE V
_ZTIN6google8protobuf4util18MessageDifferencer16MapKeyComparatorE V
_ZTIN6google8protobuf4util18MessageDifferencer21MapEntryKeyComparatorE V
_ZTIN6google8protobuf4util18MessageDifferencer30MultipleFieldsMapKeyComparatorE V
_ZTIN6google8protobuf4util18MessageDifferencer8ReporterE V
_ZTIN6google8protobuf4util22DefaultFieldComparatorE V
_ZTIN6google8protobuf4util8internal22ZeroCopyStreamByteSinkE V
_ZTIN6google8protobuf4util9converter11ProtoWriter12ProtoElementE V
_ZTIN6google8protobuf4util9converter11ProtoWriterE V
_ZTIN6google8protobuf4util9converter12ObjectSourceE V
_ZTIN6google8protobuf4util9converter12ObjectWriterE V
_ZTIN6google8protobuf4util9converter13ErrorListenerE V
_ZTIN6google8protobuf4util9converter16JsonObjectWriter15ByteSinkWrapperE V
_ZTIN6google8protobuf4util9converter16JsonObjectWriter7ElementE V
_ZTIN6google8protobuf4util9converter16JsonObjectWriterE V
_ZTIN6google8protobuf4util9converter16JsonStreamParserE V
_ZTIN6google8protobuf4util9converter21ObjectLocationTrackerE V
_ZTIN6google8protobuf4util9converter22StructuredObjectWriter11BaseElementE V
_ZTIN6google8protobuf4util9converter22StructuredObjectWriterE V
_ZTIN6google8protobuf4util9converter23ProtoStreamObjectSourceE V
_ZTIN6google8protobuf4util9converter23ProtoStreamObjectWriter4ItemE V
_ZTIN6google8protobuf4util9converter23ProtoStreamObjectWriterE V
_ZTIN6google8protobuf4util9converter24DefaultValueObjectWriter4NodeE V
_ZTIN6google8protobuf4util9converter24DefaultValueObjectWriterE V
_ZTIN6google8protobuf4util9converter24LocationTrackerInterfaceE V
_ZTIN6google8protobuf4util9converter8TypeInfoE V
_ZTIN6google8protobuf4util9converter9DataPieceE V
_ZTIN6google8protobuf5EmptyE V
_ZTIN6google8protobuf5FieldE V
_ZTIN6google8protobuf5MixinE V
_ZTIN6google8protobuf5ValueE V
_ZTIN6google8protobuf6MethodE V
_ZTIN6google8protobuf6OptionE V
_ZTIN6google8protobuf6StructE V
_ZTIN6google8protobuf7MessageE V
_ZTIN6google8protobuf7ServiceE V
_ZTIN6google8protobuf8DurationE V
_ZTIN6google8protobuf8compiler10SourceTreeE V
_ZTIN6google8protobuf8compiler14DiskSourceTreeE V
_ZTIN6google8protobuf8compiler23MultiFileErrorCollectorE V
_ZTIN6google8protobuf8compiler28SourceTreeDescriptorDatabase24SingleFileErrorCollectorE V
_ZTIN6google8protobuf8compiler28SourceTreeDescriptorDatabase24ValidationErrorCollectorE V
_ZTIN6google8protobuf8compiler28SourceTreeDescriptorDatabaseE V
_ZTIN6google8protobuf8internal12MapEntryImplINS0_27Struct_FieldsEntry_DoNotUseENS0_7MessageENSt7__cxx1112basic_stringIcSt11char_traitsIcESaIcEEENS0_5ValueELNS1_14WireFormatLite9FieldTypeE9ELSD_11ELi0EE15MapEntryWrapperE V
_ZTIN6google8protobuf8internal12MapEntryImplINS0_27Struct_FieldsEntry_DoNotUseENS0_7MessageENSt7__cxx1112basic_stringIcSt11char_traitsIcESaIcEEENS0_5ValueELNS1_14WireFormatLite9FieldTypeE9ELSD_11ELi0EEE V
_ZTIN6google8protobuf8internal12MapFieldBaseE V
_ZTIN6google8protobuf8internal15DynamicMapFieldE V
_ZTIN6google8protobuf8internal16FunctionClosure1IPKNS0_14FileDescriptorEEE V
_ZTIN6google8protobuf8internal16FunctionClosure1IPKNS0_15FieldDescriptorEEE V
_ZTIN6google8protobuf8internal16FunctionClosure1IPKNS0_20FileDescriptorTablesEEE V
_ZTIN6google8protobuf8internal16FunctionClosure1IPNS1_14LazyDescriptorEEE V
_ZTIN6google8protobuf8internal16FunctionClosure1IPSt4pairIPKNS0_20FileDescriptorTablesEPKNS0_14SourceCodeInfoEEEE V
_ZTIN6google8protobuf8internal16MapFieldAccessorE V
_ZTIN6google8protobuf8internal20RepeatedFieldWrapperIbEE V
_ZTIN6google8protobuf8internal20RepeatedFieldWrapperIdEE V
_ZTIN6google8protobuf8internal20RepeatedFieldWrapperIfEE V
_ZTIN6google8protobuf8internal20RepeatedFieldWrapperIiEE V
_ZTIN6google8protobuf8internal20RepeatedFieldWrapperIjEE V
_ZTIN6google8protobuf8internal20RepeatedFieldWrapperIlEE V
_ZTIN6google8protobuf8internal20RepeatedFieldWrapperImEE V
_ZTIN6google8protobuf8internal20RepeatedPtrFieldBaseE V
_ZTIN6google8protobuf8internal21RepeatedFieldAccessorE V
_ZTIN6google8protobuf8internal22MessageSetFieldSkipperE V
_ZTIN6google8protobuf8internal23RepeatedPtrFieldWrapperINS0_7MessageEEE V
_ZTIN6google8protobuf8internal23RepeatedPtrFieldWrapperINSt7__cxx1112basic_stringIcSt11char_traitsIcESaIcEEEEE V
_ZTIN6google8protobuf8internal23TypeDefinedMapFieldBaseINS0_6MapKeyENS0_11MapValueRefEEE V
_ZTIN6google8protobuf8internal23TypeDefinedMapFieldBaseINSt7__cxx1112basic_stringIcSt11char_traitsIcESaIcEEENS0_5ValueEEE V
_ZTIN6google8protobuf8internal24MethodResultCallback_5_2IbNS0_4util18MessageDifferencerEPKNS0_15FieldDescriptorEPKNS4_16MapKeyComparatorEPKNS0_7MessageESD_RKSt6vectorINS4_13SpecificFieldESaISF_EEiiEE V
_ZTIN6google8protobuf8internal26FunctionResultCallback_1_1INS0_4util6StatusEPNS3_9converter23ProtoStreamObjectWriterENS0_11StringPieceEEE V
_ZTIN6google8protobuf8internal26GeneratedMessageReflectionE V
_ZTIN6google8protobuf8internal27UnknownFieldSetFieldSkipperE V
_ZTIN6google8protobuf8internal29DescriptorPoolExtensionFinderE V
_ZTIN6google8protobuf8internal29InternalMetadataWithArenaBaseINS0_15UnknownFieldSetENS1_25InternalMetadataWithArenaEE9ContainerE V
_ZTIN6google8protobuf8internal30RepeatedFieldPrimitiveAccessorIbEE V
_ZTIN6google8protobuf8internal30RepeatedFieldPrimitiveAccessorIdEE V
_ZTIN6google8protobuf8internal30RepeatedFieldPrimitiveAccessorIfEE V
_ZTIN6google8protobuf8internal30RepeatedFieldPrimitiveAccessorIiEE V
_ZTIN6google8protobuf8internal30RepeatedFieldPrimitiveAccessorIjEE V
_ZTIN6google8protobuf8internal30RepeatedFieldPrimitiveAccessorIlEE V
_ZTIN6google8protobuf8internal30RepeatedFieldPrimitiveAccessorImEE V
_ZTIN6google8protobuf8internal30RepeatedPtrFieldStringAccessorE V
_ZTIN6google8protobuf8internal31RepeatedPtrFieldMessageAccessorE V
_ZTIN6google8protobuf8internal33RandomAccessRepeatedFieldAccessorE V
_ZTIN6google8protobuf8internal8MapEntryINS0_27Struct_FieldsEntry_DoNotUseENSt7__cxx1112basic_stringIcSt11char_traitsIcESaIcEEENS0_5ValueELNS1_14WireFormatLite9FieldTypeE9ELSC_11ELi0EEE V
_ZTIN6google8protobuf8internal8MapFieldINS0_27Struct_FieldsEntry_DoNotUseENSt7__cxx1112basic_stringIcSt11char_traitsIcESaIcEEENS0_5ValueELNS1_14WireFormatLite9FieldTypeE9ELSC_11ELi0EEE V
_ZTIN6google8protobuf9BoolValueE V
_ZTIN6google8protobuf9EnumValueE V
_ZTIN6google8protobuf9FieldMaskE V
_ZTIN6google8protobuf9ListValueE V
_ZTIN6google8protobuf9TimestampE V
_ZTINSt7__cxx1112basic_stringIcSt11char_traitsIcESaIcEEE V
_ZTSN6google8protobuf10BytesValueE V
_ZTSN6google8protobuf10FloatValueE V
_ZTSN6google8protobuf10Int32ValueE V
_ZTSN6google8protobuf10Int64ValueE V
_ZTSN6google8protobuf10ReflectionE V
_ZTSN6google8protobuf10RpcChannelE V
_ZTSN6google8protobuf10TextFormat17BaseTextGeneratorE V
_ZTSN6google8protobuf10TextFormat17FieldValuePrinterE V
_ZTSN6google8protobuf10TextFormat21FastFieldValuePrinterE V
_ZTSN6google8protobuf10TextFormat6FinderE V
_ZTSN6google8protobuf10TextFormat6Parser10ParserImpl20ParserErrorCollectorE V
_ZTSN6google8protobuf10TextFormat7Printer13TextGeneratorE V
_ZTSN6google8protobuf11DoubleValueE V
_ZTSN6google8protobuf11EnumOptionsE V
_ZTSN6google8protobuf11FileOptionsE V
_ZTSN6google8protobuf11StringValueE V
_ZTSN6google8protobuf11UInt32ValueE V
_ZTSN6google8protobuf11UInt64ValueE V
_ZTSN6google8protobuf12FieldOptionsE V
_ZTSN6google8protobuf12OneofOptionsE V
_ZTSN6google8protobuf13MethodOptionsE V
_ZTSN6google8protobuf13RpcControllerE V
_ZTSN6google8protobuf13SourceContextE V
_ZTSN6google8protobuf14DescriptorPool14ErrorCollectorE V
_ZTSN6google8protobuf14DynamicMessageE V
_ZTSN6google8protobuf14MessageFactoryE V
_ZTSN6google8protobuf14MessageOptionsE V
_ZTSN6google8protobuf14ServiceOptionsE V
_ZTSN6google8protobuf14SourceCodeInfoE V
_ZTSN6google8protobuf15DescriptorProtoE V
_ZTSN6google8protobuf15ResultCallback1INS0_4util6StatusENS0_11StringPieceEEE V
_ZTSN6google8protobuf15ResultCallback2IbiiEE V
_ZTSN6google8protobuf16EnumValueOptionsE V
_ZTSN6google8protobuf16RepeatedPtrFieldINS0_11MessageLiteEEE V
_ZTSN6google8protobuf16RepeatedPtrFieldINS0_7MessageEEE V
_ZTSN6google8protobuf17DescriptorBuilder17OptionInterpreter21AggregateOptionFinderE V
_ZTSN6google8protobuf17FileDescriptorSetE V
_ZTSN6google8protobuf17GeneratedCodeInfoE V
_ZTSN6google8protobuf18DescriptorDatabaseE V
_ZTSN6google8protobuf19EnumDescriptorProtoE V
_ZTSN6google8protobuf19FileDescriptorProtoE V
_ZTSN6google8protobuf19UninterpretedOptionE V
_ZTSN6google8protobuf20FieldDescriptorProtoE V
_ZTSN6google8protobuf20OneofDescriptorProtoE V
_ZTSN6google8protobuf21DynamicMessageFactoryE V
_ZTSN6google8protobuf21ExtensionRangeOptionsE V
_ZTSN6google8protobuf21MethodDescriptorProtoE V
_ZTSN6google8protobuf22DescriptorPoolDatabaseE V
_ZTSN6google8protobuf22ServiceDescriptorProtoE V
_ZTSN6google8protobuf23SourceCodeInfo_LocationE V
_ZTSN6google8protobuf24EnumValueDescriptorProtoE V
_ZTSN6google8protobuf24MergedDescriptorDatabaseE V
_ZTSN6google8protobuf24SimpleDescriptorDatabaseE V
_ZTSN6google8protobuf25EncodedDescriptorDatabaseE V
_ZTSN6google8protobuf27Struct_FieldsEntry_DoNotUseE V
_ZTSN6google8protobuf28GeneratedCodeInfo_AnnotationE V
_ZTSN6google8protobuf28UninterpretedOption_NamePartE V
_ZTSN6google8protobuf29DescriptorProto_ReservedRangeE V
_ZTSN6google8protobuf2io14ErrorCollectorE V
_ZTSN6google8protobuf2io15FileInputStream22CopyingFileInputStreamE V
_ZTSN6google8protobuf2io15FileInputStreamE V
_ZTSN6google8protobuf2io16FileOutputStream23CopyingFileOutputStreamE V
_ZTSN6google8protobuf2io16FileOutputStreamE V
_ZTSN6google8protobuf2io18IstreamInputStream25CopyingIstreamInputStreamE V
_ZTSN6google8protobuf2io18IstreamInputStreamE V
_ZTSN6google8protobuf2io19CopyingOutputStreamE V
_ZTSN6google8protobuf2io19LimitingInputStreamE V
_ZTSN6google8protobuf2io19OstreamOutputStream26CopyingOstreamOutputStreamE V
_ZTSN6google8protobuf2io19OstreamOutputStreamE V
_ZTSN6google8protobuf2io19ZeroCopyInputStreamE V
_ZTSN6google8protobuf2io24ConcatenatingInputStreamE V
_ZTSN6google8protobuf30DescriptorProto_ExtensionRangeE V
_ZTSN6google8protobuf37EnumDescriptorProto_EnumReservedRangeE V
_ZTSN6google8protobuf3AnyE V
_ZTSN6google8protobuf3ApiE V
_ZTSN6google8protobuf3MapINSt7__cxx1112basic_stringIcSt11char_traitsIcESaIcEEENS0_5ValueEE8InnerMapE V
_ZTSN6google8protobuf4EnumE V
_ZTSN6google8protobuf4TypeE V
_ZTSN6google8protobuf4hashINSt7__cxx1112basic_stringIcSt11char_traitsIcESaIcEEEEE V
_ZTSN6google8protobuf4util12TypeResolverE V
_ZTSN6google8protobuf4util15FieldComparatorE V
_ZTSN6google8protobuf4util18MessageDifferencer14IgnoreCriteriaE V
_ZTSN6google8protobuf4util18MessageDifferencer14StreamReporterE V
_ZTSN6google8protobuf4util18MessageDifferencer16MapKeyComparatorE V
_ZTSN6google8protobuf4util18MessageDifferencer21MapEntryKeyComparatorE V
_ZTSN6google8protobuf4util18MessageDifferencer30MultipleFieldsMapKeyComparatorE V
_ZTSN6google8protobuf4util18MessageDifferencer8ReporterE V
_ZTSN6google8protobuf4util22DefaultFieldComparatorE V
_ZTSN6google8protobuf4util8internal22ZeroCopyStreamByteSinkE V
_ZTSN6google8protobuf4util9converter11ProtoWriter12ProtoElementE V
_ZTSN6google8protobuf4util9converter11ProtoWriterE V
_ZTSN6google8protobuf4util9converter12ObjectSourceE V
_ZTSN6google8protobuf4util9converter12ObjectWriterE V
_ZTSN6google8protobuf4util9converter13ErrorListenerE V
_ZTSN6google8protobuf4util9converter16JsonObjectWriter15ByteSinkWrapperE V
_ZTSN6google8protobuf4util9converter16JsonObjectWriter7ElementE V
_ZTSN6google8protobuf4util9converter16JsonObjectWriterE V
_ZTSN6google8protobuf4util9converter16JsonStreamParserE V
_ZTSN6google8protobuf4util9converter21ObjectLocationTrackerE V
_ZTSN6google8protobuf4util9converter22StructuredObjectWriter11BaseElementE V
_ZTSN6google8protobuf4util9converter22StructuredObjectWriterE V
_ZTSN6google8protobuf4util9converter23ProtoStreamObjectSourceE V
_ZTSN6google8protobuf4util9converter23ProtoStreamObjectWriter4ItemE V
_ZTSN6google8protobuf4util9converter23ProtoStreamObjectWriterE V
_ZTSN6google8protobuf4util9converter24DefaultValueObjectWriter4NodeE V
_ZTSN6google8protobuf4util9converter24DefaultValueObjectWriterE V
_ZTSN6google8protobuf4util9converter24LocationTrackerInterfaceE V
_ZTSN6google8protobuf4util9converter8TypeInfoE V
_ZTSN6google8protobuf4util9converter9DataPieceE V
_ZTSN6google8protobuf5EmptyE V
_ZTSN6google8protobuf5FieldE V
_ZTSN6google8protobuf5MixinE V
_ZTSN6google8protobuf5ValueE V
_ZTSN6google8protobuf6MethodE V
_ZTSN6google8protobuf6OptionE V
_ZTSN6google8protobuf6StructE V
_ZTSN6google8protobuf7MessageE V
_ZTSN6google8protobuf7ServiceE V
_ZTSN6google8protobuf8DurationE V
_ZTSN6google8protobuf8compiler10SourceTreeE V
_ZTSN6google8protobuf8compiler14DiskSourceTreeE V
_ZTSN6google8protobuf8compiler23MultiFileErrorCollectorE V
_ZTSN6google8protobuf8compiler28SourceTreeDescriptorDatabase24SingleFileErrorCollectorE V
_ZTSN6google8protobuf8compiler28SourceTreeDescriptorDatabase24ValidationErrorCollectorE V
_ZTSN6google8protobuf8compiler28SourceTreeDescriptorDatabaseE V
_ZTSN6google8protobuf8internal12MapEntryImplINS0_27Struct_FieldsEntry_DoNotUseENS0_7MessageENSt7__cxx1112basic_stringIcSt11char_traitsIcESaIcEEENS0_5ValueELNS1_14WireFormatLite9FieldTypeE9ELSD_11ELi0EE15MapEntryWrapperE V
_ZTSN6google8protobuf8internal12MapEntryImplINS0_27Struct_FieldsEntry_DoNotUseENS0_7MessageENSt7__cxx1112basic_stringIcSt11char_traitsIcESaIcEEENS0_5ValueELNS1_14WireFormatLite9FieldTypeE9ELSD_11ELi0EEE V
_ZTSN6google8protobuf8internal12MapFieldBaseE V
_ZTSN6google8protobuf8internal15DynamicMapFieldE V
_ZTSN6google8protobuf8internal16FunctionClosure1IPKNS0_14FileDescriptorEEE V
_ZTSN6google8protobuf8internal16FunctionClosure1IPKNS0_15FieldDescriptorEEE V
_ZTSN6google8protobuf8internal16FunctionClosure1IPKNS0_20FileDescriptorTablesEEE V
_ZTSN6google8protobuf8internal16FunctionClosure1IPNS1_14LazyDescriptorEEE V
_ZTSN6google8protobuf8internal16FunctionClosure1IPSt4pairIPKNS0_20FileDescriptorTablesEPKNS0_14SourceCodeInfoEEEE V
_ZTSN6google8protobuf8internal16MapFieldAccessorE V
_ZTSN6google8protobuf8internal20RepeatedFieldWrapperIbEE V
_ZTSN6google8protobuf8internal20RepeatedFieldWrapperIdEE V
_ZTSN6google8protobuf8internal20RepeatedFieldWrapperIfEE V
_ZTSN6google8protobuf8internal20RepeatedFieldWrapperIiEE V
_ZTSN6google8protobuf8internal20RepeatedFieldWrapperIjEE V
_ZTSN6google8protobuf8internal20RepeatedFieldWrapperIlEE V
_ZTSN6google8protobuf8internal20RepeatedFieldWrapperImEE V
_ZTSN6google8protobuf8internal20RepeatedPtrFieldBaseE V
_ZTSN6google8protobuf8internal21RepeatedFieldAccessorE V
_ZTSN6google8protobuf8internal22MessageSetFieldSkipperE V
_ZTSN6google8protobuf8internal23RepeatedPtrFieldWrapperINS0_7MessageEEE V
_ZTSN6google8protobuf8internal23RepeatedPtrFieldWrapperINSt7__cxx1112basic_stringIcSt11char_traitsIcESaIcEEEEE V
_ZTSN6google8protobuf8internal23TypeDefinedMapFieldBaseINS0_6MapKeyENS0_11MapValueRefEEE V
_ZTSN6google8protobuf8internal23TypeDefinedMapFieldBaseINSt7__cxx1112basic_stringIcSt11char_traitsIcESaIcEEENS0_5ValueEEE V
_ZTSN6google8protobuf8internal24MethodResultCallback_5_2IbNS0_4util18MessageDifferencerEPKNS0_15FieldDescriptorEPKNS4_16MapKeyComparatorEPKNS0_7MessageESD_RKSt6vectorINS4_13SpecificFieldESaISF_EEiiEE V
_ZTSN6google8protobuf8internal26FunctionResultCallback_1_1INS0_4util6StatusEPNS3_9converter23ProtoStreamObjectWriterENS0_11StringPieceEEE V
_ZTSN6google8protobuf8internal26GeneratedMessageReflectionE V
_ZTSN6google8protobuf8internal27UnknownFieldSetFieldSkipperE V
_ZTSN6google8protobuf8internal29DescriptorPoolExtensionFinderE V
_ZTSN6google8protobuf8internal29InternalMetadataWithArenaBaseINS0_15UnknownFieldSetENS1_25InternalMetadataWithArenaEE9ContainerE V
_ZTSN6google8protobuf8internal30RepeatedFieldPrimitiveAccessorIbEE V
_ZTSN6google8protobuf8internal30RepeatedFieldPrimitiveAccessorIdEE V
_ZTSN6google8protobuf8internal30RepeatedFieldPrimitiveAccessorIfEE V
_ZTSN6google8protobuf8internal30RepeatedFieldPrimitiveAccessorIiEE V
_ZTSN6google8protobuf8internal30RepeatedFieldPrimitiveAccessorIjEE V
_ZTSN6google8protobuf8internal30RepeatedFieldPrimitiveAccessorIlEE V
_ZTSN6google8protobuf8internal30RepeatedFieldPrimitiveAccessorImEE V
_ZTSN6google8protobuf8internal30RepeatedPtrFieldStringAccessorE V
_ZTSN6google8protobuf8internal31RepeatedPtrFieldMessageAccessorE V
_ZTSN6google8protobuf8internal33RandomAccessRepeatedFieldAccessorE V
_ZTSN6google8protobuf8internal8MapEntryINS0_27Struct_FieldsEntry_DoNotUseENSt7__cxx1112basic_stringIcSt11char_traitsIcESaIcEEENS0_5ValueELNS1_14WireFormatLite9FieldTypeE9ELSC_11ELi0EEE V
_ZTSN6google8protobuf8internal8MapFieldINS0_27Struct_FieldsEntry_DoNotUseENSt7__cxx1112basic_stringIcSt11char_traitsIcESaIcEEENS0_5ValueELNS1_14WireFormatLite9FieldTypeE9ELSC_11ELi0EEE V
_ZTSN6google8protobuf9BoolValueE V
_ZTSN6google8protobuf9EnumValueE V
_ZTSN6google8protobuf9FieldMaskE V
_ZTSN6google8protobuf9ListValueE V
_ZTSN6google8protobuf9TimestampE V
_ZTSNSt7__cxx1112basic_stringIcSt11char_traitsIcESaIcEEE V
_ZTVN6google8protobuf10BytesValueE V
_ZTVN6google8protobuf10FloatValueE V
_ZTVN6google8protobuf10Int32ValueE V
_ZTVN6google8protobuf10Int64ValueE V
_ZTVN6google8protobuf10ReflectionE V
_ZTVN6google8protobuf10RpcChannelE V
_ZTVN6google8protobuf10TextFormat17BaseTextGeneratorE V
_ZTVN6google8protobuf10TextFormat17FieldValuePrinterE V
_ZTVN6google8protobuf10TextFormat21FastFieldValuePrinterE V
_ZTVN6google8protobuf10TextFormat6FinderE V
_ZTVN6google8protobuf10TextFormat6Parser10ParserImpl20ParserErrorCollectorE V
_ZTVN6google8protobuf10TextFormat7Printer13TextGeneratorE V
_ZTVN6google8protobuf11DoubleValueE V
_ZTVN6google8protobuf11EnumOptionsE V
_ZTVN6google8protobuf11FileOptionsE V
_ZTVN6google8protobuf11StringValueE V
_ZTVN6google8protobuf11UInt32ValueE V
_ZTVN6google8protobuf11UInt64ValueE V
_ZTVN6google8protobuf12FieldOptionsE V
_ZTVN6google8protobuf12OneofOptionsE V
_ZTVN6google8protobuf13MethodOptionsE V
_ZTVN6google8protobuf13RpcControllerE V
_ZTVN6google8protobuf13SourceContextE V
_ZTVN6google8protobuf14DescriptorPool14ErrorCollectorE V
_ZTVN6google8protobuf14DynamicMessageE V
_ZTVN6google8protobuf14MessageFactoryE V
_ZTVN6google8protobuf14MessageOptionsE V
_ZTVN6google8protobuf14ServiceOptionsE V
_ZTVN6google8protobuf14SourceCodeInfoE V
_ZTVN6google8protobuf15DescriptorProtoE V
_ZTVN6google8protobuf16EnumValueOptionsE V
_ZTVN6google8protobuf17DescriptorBuilder17OptionInterpreter21AggregateOptionFinderE V
_ZTVN6google8protobuf17FileDescriptorSetE V
_ZTVN6google8protobuf17GeneratedCodeInfoE V
_ZTVN6google8protobuf18DescriptorDatabaseE V
_ZTVN6google8protobuf19EnumDescriptorProtoE V
_ZTVN6google8protobuf19FileDescriptorProtoE V
_ZTVN6google8protobuf19UninterpretedOptionE V
_ZTVN6google8protobuf20FieldDescriptorProtoE V
_ZTVN6google8protobuf20OneofDescriptorProtoE V
_ZTVN6google8protobuf21DynamicMessageFactoryE V
_ZTVN6google8protobuf21ExtensionRangeOptionsE V
_ZTVN6google8protobuf21MethodDescriptorProtoE V
_ZTVN6google8protobuf22DescriptorPoolDatabaseE V
_ZTVN6google8protobuf22ServiceDescriptorProtoE V
_ZTVN6google8protobuf23SourceCodeInfo_LocationE V
_ZTVN6google8protobuf24EnumValueDescriptorProtoE V
_ZTVN6google8protobuf24MergedDescriptorDatabaseE V
_ZTVN6google8protobuf24SimpleDescriptorDatabaseE V
_ZTVN6google8protobuf25EncodedDescriptorDatabaseE V
_ZTVN6google8protobuf27Struct_FieldsEntry_DoNotUseE V
_ZTVN6google8protobuf28GeneratedCodeInfo_AnnotationE V
_ZTVN6google8protobuf28UninterpretedOption_NamePartE V
_ZTVN6google8protobuf29DescriptorProto_ReservedRangeE V
_ZTVN6google8protobuf2io14ErrorCollectorE V
_ZTVN6google8protobuf2io15FileInputStream22CopyingFileInputStreamE V
_ZTVN6google8protobuf2io15FileInputStreamE V
_ZTVN6google8protobuf2io16FileOutputStream23CopyingFileOutputStreamE V
_ZTVN6google8protobuf2io16FileOutputStreamE V
_ZTVN6google8protobuf2io18IstreamInputStream25CopyingIstreamInputStreamE V
_ZTVN6google8protobuf2io18IstreamInputStreamE V
_ZTVN6google8protobuf2io19LimitingInputStreamE V
_ZTVN6google8protobuf2io19OstreamOutputStream26CopyingOstreamOutputStreamE V
_ZTVN6google8protobuf2io19OstreamOutputStreamE V
_ZTVN6google8protobuf2io24ConcatenatingInputStreamE V
_ZTVN6google8protobuf30DescriptorProto_ExtensionRangeE V
_ZTVN6google8protobuf37EnumDescriptorProto_EnumReservedRangeE V
_ZTVN6google8protobuf3AnyE V
_ZTVN6google8protobuf3ApiE V
_ZTVN6google8protobuf4EnumE V
_ZTVN6google8protobuf4TypeE V
_ZTVN6google8protobuf4util15FieldComparatorE V
_ZTVN6google8protobuf4util18MessageDifferencer14IgnoreCriteriaE V
_ZTVN6google8protobuf4util18MessageDifferencer14StreamReporterE V
_ZTVN6google8protobuf4util18MessageDifferencer16MapKeyComparatorE V
_ZTVN6google8protobuf4util18MessageDifferencer21MapEntryKeyComparatorE V
_ZTVN6google8protobuf4util18MessageDifferencer30MultipleFieldsMapKeyComparatorE V
_ZTVN6google8protobuf4util18MessageDifferencer8ReporterE V
_ZTVN6google8protobuf4util22DefaultFieldComparatorE V
_ZTVN6google8protobuf4util8internal22ZeroCopyStreamByteSinkE V
_ZTVN6google8protobuf4util9converter11ProtoWriter12ProtoElementE V
_ZTVN6google8protobuf4util9converter11ProtoWriterE V
_ZTVN6google8protobuf4util9converter16JsonObjectWriter15ByteSinkWrapperE V
_ZTVN6google8protobuf4util9converter16JsonObjectWriter7ElementE V
_ZTVN6google8protobuf4util9converter16JsonObjectWriterE V
_ZTVN6google8protobuf4util9converter16JsonStreamParserE V
_ZTVN6google8protobuf4util9converter21ObjectLocationTrackerE V
_ZTVN6google8protobuf4util9converter22StructuredObjectWriter11BaseElementE V
_ZTVN6google8protobuf4util9converter23ProtoStreamObjectSourceE V
_ZTVN6google8protobuf4util9converter23ProtoStreamObjectWriter4ItemE V
_ZTVN6google8protobuf4util9converter23ProtoStreamObjectWriterE V
_ZTVN6google8protobuf4util9converter24DefaultValueObjectWriter4NodeE V
_ZTVN6google8protobuf4util9converter24DefaultValueObjectWriterE V
_ZTVN6google8protobuf4util9converter9DataPieceE V
_ZTVN6google8protobuf5EmptyE V
_ZTVN6google8protobuf5FieldE V
_ZTVN6google8protobuf5MixinE V
_ZTVN6google8protobuf5ValueE V
_ZTVN6google8protobuf6MethodE V
_ZTVN6google8protobuf6OptionE V
_ZTVN6google8protobuf6StructE V
_ZTVN6google8protobuf7MessageE V
_ZTVN6google8protobuf7ServiceE V
_ZTVN6google8protobuf8DurationE V
_ZTVN6google8protobuf8compiler10SourceTreeE V
_ZTVN6google8protobuf8compiler14DiskSourceTreeE V
_ZTVN6google8protobuf8compiler23MultiFileErrorCollectorE V
_ZTVN6google8protobuf8compiler28SourceTreeDescriptorDatabase24SingleFileErrorCollectorE V
_ZTVN6google8protobuf8compiler28SourceTreeDescriptorDatabase24ValidationErrorCollectorE V
_ZTVN6google8protobuf8compiler28SourceTreeDescriptorDatabaseE V
_ZTVN6google8protobuf8internal12MapEntryImplINS0_27Struct_FieldsEntry_DoNotUseENS0_7MessageENSt7__cxx1112basic_stringIcSt11char_traitsIcESaIcEEENS0_5ValueELNS1_14WireFormatLite9FieldTypeE9ELSD_11ELi0EE15MapEntryWrapperE V
_ZTVN6google8protobuf8internal12MapEntryImplINS0_27Struct_FieldsEntry_DoNotUseENS0_7MessageENSt7__cxx1112basic_stringIcSt11char_traitsIcESaIcEEENS0_5ValueELNS1_14WireFormatLite9FieldTypeE9ELSD_11ELi0EEE V
_ZTVN6google8protobuf8internal12MapFieldBaseE V
_ZTVN6google8protobuf8internal15DynamicMapFieldE V
_ZTVN6google8protobuf8internal16FunctionClosure1IPKNS0_14FileDescriptorEEE V
_ZTVN6google8protobuf8internal16FunctionClosure1IPKNS0_15FieldDescriptorEEE V
_ZTVN6google8protobuf8internal16FunctionClosure1IPKNS0_20FileDescriptorTablesEEE V
_ZTVN6google8protobuf8internal16FunctionClosure1IPNS1_14LazyDescriptorEEE V
_ZTVN6google8protobuf8internal16FunctionClosure1IPSt4pairIPKNS0_20FileDescriptorTablesEPKNS0_14SourceCodeInfoEEEE V
_ZTVN6google8protobuf8internal16MapFieldAccessorE V
_ZTVN6google8protobuf8internal21RepeatedFieldAccessorE V
_ZTVN6google8protobuf8internal22MessageSetFieldSkipperE V
_ZTVN6google8protobuf8internal23TypeDefinedMapFieldBaseINS0_6MapKeyENS0_11MapValueRefEEE V
_ZTVN6google8protobuf8internal23TypeDefinedMapFieldBaseINSt7__cxx1112basic_stringIcSt11char_traitsIcESaIcEEENS0_5ValueEEE V
_ZTVN6google8protobuf8internal24MethodResultCallback_5_2IbNS0_4util18MessageDifferencerEPKNS0_15FieldDescriptorEPKNS4_16MapKeyComparatorEPKNS0_7MessageESD_RKSt6vectorINS4_13SpecificFieldESaISF_EEiiEE V
_ZTVN6google8protobuf8internal26FunctionResultCallback_1_1INS0_4util6StatusEPNS3_9converter23ProtoStreamObjectWriterENS0_11StringPieceEEE V
_ZTVN6google8protobuf8internal26GeneratedMessageReflectionE V
_ZTVN6google8protobuf8internal27UnknownFieldSetFieldSkipperE V
_ZTVN6google8protobuf8internal29DescriptorPoolExtensionFinderE V
_ZTVN6google8protobuf8internal30RepeatedFieldPrimitiveAccessorIbEE V
_ZTVN6google8protobuf8internal30RepeatedFieldPrimitiveAccessorIdEE V
_ZTVN6google8protobuf8internal30RepeatedFieldPrimitiveAccessorIfEE V
_ZTVN6google8protobuf8internal30RepeatedFieldPrimitiveAccessorIiEE V
_ZTVN6google8protobuf8internal30RepeatedFieldPrimitiveAccessorIjEE V
_ZTVN6google8protobuf8internal30RepeatedFieldPrimitiveAccessorIlEE V
_ZTVN6google8protobuf8internal30RepeatedFieldPrimitiveAccessorImEE V
_ZTVN6google8protobuf8internal30RepeatedPtrFieldStringAccessorE V
_ZTVN6google8protobuf8internal31RepeatedPtrFieldMessageAccessorE V
_ZTVN6google8protobuf8internal33RandomAccessRepeatedFieldAccessorE V
_ZTVN6google8protobuf8internal8MapEntryINS0_27Struct_FieldsEntry_DoNotUseENSt7__cxx1112basic_stringIcSt11char_traitsIcESaIcEEENS0_5ValueELNS1_14WireFormatLite9FieldTypeE9ELSC_11ELi0EEE V
_ZTVN6google8protobuf8internal8MapFieldINS0_27Struct_FieldsEntry_DoNotUseENSt7__cxx1112basic_stringIcSt11char_traitsIcESaIcEEENS0_5ValueELNS1_14WireFormatLite9FieldTypeE9ELSC_11ELi0EEE V
_ZTVN6google8protobuf9BoolValueE V
_ZTVN6google8protobuf9EnumValueE V
_ZTVN6google8protobuf9FieldMaskE V
_ZTVN6google8protobuf9ListValueE V
_ZTVN6google8protobuf9TimestampE V
_ZThn24_N6google8protobuf4util9converter11ProtoWriter12ProtoElementD0Ev W
_ZThn24_N6google8protobuf4util9converter11ProtoWriter12ProtoElementD1Ev W
_ZThn24_NK6google8protobuf4util9converter11ProtoWriter12ProtoElement8ToStringB5cxx11Ev T
_ZZN6google8protobuf4util9converter23ProtoStreamObjectWriter7Options8DefaultsEvE8defaults u
__bss_start B
_edata D
_end B
_fini T
_init T
