 0x000000000000000e (SONAME)             Library soname: [libprotobuf-lite.so]
_ZN6google8protobuf10SimpleDtoaB5cxx11Ed T
_ZN6google8protobuf10SimpleFtoaB5cxx11Ef T
_ZN6google8protobuf10SimpleItoaB5cxx11Ei T
_ZN6google8protobuf10SimpleItoaB5cxx11Ej T
_ZN6google8protobuf10SimpleItoaB5cxx11El T
_ZN6google8protobuf10SimpleItoaB5cxx11Em T
_ZN6google8protobuf10SimpleItoaB5cxx11Ex T
_ZN6google8protobuf10SimpleItoaB5cxx11Ey T
_ZN6google8protobuf11JoinStringsERKSt6vectorINSt7__cxx1112basic_stringIcSt11char_traitsIcESaIcEEESaIS7_EEPKcPS7_ T
_ZN6google8protobuf11LogSilencerC1Ev T
_ZN6google8protobuf11LogSilencerC2Ev T
_ZN6google8protobuf11LogSilencerD1Ev T
_ZN6google8protobuf11LogSilencerD2Ev T
_ZN6google8protobuf11MessageLite14ParseFromArrayEPKvi T
_ZN6google8protobuf11MessageLite15ParseFromStringERKNSt7__cxx1112basic_stringIcSt11char_traitsIcESaIcEEE T
_ZN6google8protobuf11MessageLite20MergeFromCodedStreamEPNS0_2io16CodedInputStreamE T
_ZN6google8protobuf11MessageLite20ParseFromCodedStreamEPNS0_2io16CodedInputStreamE T
_ZN6google8protobuf11MessageLite21ParsePartialFromArrayEPKvi T
_ZN6google8protobuf11MessageLite22ParsePartialFromStringERKNSt7__cxx1112basic_stringIcSt11char_traitsIcESaIcEEE T
_ZN6google8protobuf11MessageLite23ParseFromZeroCopyStreamEPNS0_2io19ZeroCopyInputStreamE T
_ZN6google8protobuf11MessageLite27ParsePartialFromCodedStreamEPNS0_2io16CodedInputStreamE T
_ZN6google8protobuf11MessageLite30ParseFromBoundedZeroCopyStreamEPNS0_2io19ZeroCopyInputStreamEi T
_ZN6google8protobuf11MessageLite30ParsePartialFromZeroCopyStreamEPNS0_2io19ZeroCopyInputStreamE T
_ZN6google8protobuf11MessageLite37ParsePartialFromBoundedZeroCopyStreamEPNS0_2io19ZeroCopyInputStreamEi T
_ZN6google8protobuf11StringPiece14ConsumeFromEndES1_ T
_ZN6google8protobuf11StringPiece18LogFatalSizeTooBigEmPKc T
_ZN6google8protobuf11StringPiece4nposE R
_ZN6google8protobuf11StringPiece7ConsumeES1_ T
_ZN6google8protobuf11StringPieceC1ES1_l T
_ZN6google8protobuf11StringPieceC1ES1_ll T
_ZN6google8protobuf11StringPieceC2ES1_l T
_ZN6google8protobuf11StringPieceC2ES1_ll T
_ZN6google8protobuf11StripStringEPNSt7__cxx1112basic_stringIcSt11char_traitsIcESaIcEEEPKcc T
_ZN6google8protobuf11kuint128maxE R
_ZN6google8protobuf11safe_strtobENS0_11StringPieceEPb T
_ZN6google8protobuf11safe_strtodEPKcPd T
_ZN6google8protobuf11safe_strtofEPKcPf T
_ZN6google8protobuf12Base64EscapeENS0_11StringPieceEPNSt7__cxx1112basic_stringIcSt11char_traitsIcESaIcEEE T
_ZN6google8protobuf12Base64EscapeEPKhiPNSt7__cxx1112basic_stringIcSt11char_traitsIcESaIcEEEb T
_ZN6google8protobuf12Base64EscapeEPKhiPci T
_ZN6google8protobuf12StringPrintfB5cxx11EPKcz T
_ZN6google8protobuf12safe_strto32ERKNSt7__cxx1112basic_stringIcSt11char_traitsIcESaIcEEEPi T
_ZN6google8protobuf12safe_strto64ERKNSt7__cxx1112basic_stringIcSt11char_traitsIcESaIcEEEPl T
_ZN6google8protobuf13FloatToBufferEfPc T
_ZN6google8protobuf13RepeatedFieldIbE7ReserveEi W
_ZN6google8protobuf13RepeatedFieldIdE7ReserveEi W
_ZN6google8protobuf13RepeatedFieldIfE7ReserveEi W
_ZN6google8protobuf13RepeatedFieldIiE7ReserveEi W
_ZN6google8protobuf13RepeatedFieldIjE7ReserveEi W
_ZN6google8protobuf13RepeatedFieldIlE7ReserveEi W
_ZN6google8protobuf13RepeatedFieldImE7ReserveEi W
_ZN6google8protobuf13SStringPrintfEPNSt7__cxx1112basic_stringIcSt11char_traitsIcESaIcEEEPKcz T
_ZN6google8protobuf13SetLogHandlerEPFvNS0_8LogLevelEPKciRKNSt7__cxx1112basic_stringIcSt11char_traitsIcESaIcEEEE T
_ZN6google8protobuf13StringAppendFEPNSt7__cxx1112basic_stringIcSt11char_traitsIcESaIcEEEPKcz T
_ZN6google8protobuf13StringAppendVEPNSt7__cxx1112basic_stringIcSt11char_traitsIcESaIcEEEPKcP13__va_list_tag T
_ZN6google8protobuf13StringReplaceERKNSt7__cxx1112basic_stringIcSt11char_traitsIcESaIcEEES8_S8_b T
_ZN6google8protobuf13StringReplaceERKNSt7__cxx1112basic_stringIcSt11char_traitsIcESaIcEEES8_S8_bPS6_ T
_ZN6google8protobuf13safe_strtou32ERKNSt7__cxx1112basic_stringIcSt11char_traitsIcESaIcEEEPj T
_ZN6google8protobuf13safe_strtou64ERKNSt7__cxx1112basic_stringIcSt11char_traitsIcESaIcEEEPm T
_ZN6google8protobuf14Base64UnescapeENS0_11StringPieceEPNSt7__cxx1112basic_stringIcSt11char_traitsIcESaIcEEE T
_ZN6google8protobuf14DoubleToBufferEdPc T
_ZN6google8protobuf14FatalExceptionD0Ev T
_ZN6google8protobuf14FatalExceptionD1Ev T
_ZN6google8protobuf14FatalExceptionD2Ev T
_ZN6google8protobuf15CEscapeInternalEPKciPcibb T
_ZN6google8protobuf15DelocalizeRadixEPc T
_ZN6google8protobuf15FastHexToBufferEiPc T
_ZN6google8protobuf15StripWhitespaceEPNSt7__cxx1112basic_stringIcSt11char_traitsIcESaIcEEE T
_ZN6google8protobuf15strto32_adaptorEPKcPPci T
_ZN6google8protobuf16CEscapeAndAppendENS0_11StringPieceEPNSt7__cxx1112basic_stringIcSt11char_traitsIcESaIcEEE T
_ZN6google8protobuf16EncodeAsUTF8CharEjPc T
_ZN6google8protobuf16SplitStringUsingERKNSt7__cxx1112basic_stringIcSt11char_traitsIcESaIcEEEPKcPSt6vectorIS6_SaIS6_EE T
_ZN6google8protobuf16strtou32_adaptorEPKcPPci T
_ZN6google8protobuf17FastHex32ToBufferEjPc T
_ZN6google8protobuf17FastHex64ToBufferEmPc T
_ZN6google8protobuf17FastInt32ToBufferEiPc T
_ZN6google8protobuf17FastInt64ToBufferElPc T
_ZN6google8protobuf17ReplaceCharactersEPNSt7__cxx1112basic_stringIcSt11char_traitsIcESaIcEEEPKcc T
_ZN6google8protobuf18GoogleOnceInitImplEPlPNS0_7ClosureE T
_ZN6google8protobuf18StringPrintfVectorEPKcRKSt6vectorINSt7__cxx1112basic_stringIcSt11char_traitsIcESaIcEEESaIS9_EE T
_ZN6google8protobuf19WebSafeBase64EscapeENS0_11StringPieceEPNSt7__cxx1112basic_stringIcSt11char_traitsIcESaIcEEE T
_ZN6google8protobuf19WebSafeBase64EscapeEPKhiPNSt7__cxx1112basic_stringIcSt11char_traitsIcESaIcEEEb T
_ZN6google8protobuf19WebSafeBase64EscapeEPKhiPcib T
_ZN6google8protobuf20Base64EscapeInternalEPKhiPNSt7__cxx1112basic_stringIcSt11char_traitsIcESaIcEEEbPKc T
_ZN6google8protobuf20Base64EscapeInternalEPKhiPciPKcb T
_ZN6google8protobuf21FastInt32ToBufferLeftEiPc T
_ZN6google8protobuf21FastInt64ToBufferLeftElPc T
_ZN6google8protobuf21SplitStringAllowEmptyERKNSt7__cxx1112basic_stringIcSt11char_traitsIcESaIcEEEPKcPSt6vectorIS6_SaIS6_EE T
_ZN6google8protobuf21UnescapeCEscapeStringERKNSt7__cxx1112basic_stringIcSt11char_traitsIcESaIcEEE T
_ZN6google8protobuf21UnescapeCEscapeStringERKNSt7__cxx1112basic_stringIcSt11char_traitsIcESaIcEEEPS6_ T
_ZN6google8protobuf21UnescapeCEscapeStringERKNSt7__cxx1112basic_stringIcSt11char_traitsIcESaIcEEEPS6_PSt6vectorIS6_SaIS6_EE T
_ZN6google8protobuf21WebSafeBase64UnescapeENS0_11StringPieceEPNSt7__cxx1112basic_stringIcSt11char_traitsIcESaIcEEE T
_ZN6google8protobuf21WebSafeBase64UnescapeEPKciPci T
_ZN6google8protobuf22Base64UnescapeInternalEPKciPciPKa T
_ZN6google8protobuf22FastUInt32ToBufferLeftEjPc T
_ZN6google8protobuf22FastUInt64ToBufferLeftEmPc T
_ZN6google8protobuf22GlobalReplaceSubstringERKNSt7__cxx1112basic_stringIcSt11char_traitsIcESaIcEEES8_PS6_ T
_ZN6google8protobuf23InternalFastHexToBufferEmPci T
_ZN6google8protobuf23ShutdownProtobufLibraryEv T
_ZN6google8protobuf23UTF8FirstLetterNumBytesEPKci T
_ZN6google8protobuf24UnescapeCEscapeSequencesEPKcPc T
_ZN6google8protobuf24UnescapeCEscapeSequencesEPKcPcPSt6vectorINSt7__cxx1112basic_stringIcSt11char_traitsIcESaIcEEESaISA_EE T
_ZN6google8protobuf25CalculateBase64EscapedLenEi T
_ZN6google8protobuf25CalculateBase64EscapedLenEib T
_ZN6google8protobuf26kStringPrintfVectorMaxArgsE R
_ZN6google8protobuf2io16ArrayInputStream4NextEPPKvPi T
_ZN6google8protobuf2io16ArrayInputStream4SkipEi T
_ZN6google8protobuf2io16ArrayInputStream6BackUpEi T
_ZN6google8protobuf2io16ArrayInputStreamC1EPKvii T
_ZN6google8protobuf2io16ArrayInputStreamC2EPKvii T
_ZN6google8protobuf2io16ArrayInputStreamD0Ev W
_ZN6google8protobuf2io16ArrayInputStreamD1Ev W
_ZN6google8protobuf2io16ArrayInputStreamD2Ev W
_ZN6google8protobuf2io16CodedInputStream10ReadStringEPNSt7__cxx1112basic_stringIcSt11char_traitsIcESaIcEEEi T
_ZN6google8protobuf2io16CodedInputStream11ReadTagSlowEv T
_ZN6google8protobuf2io16CodedInputStream12SkipFallbackEii T
_ZN6google8protobuf2io16CodedInputStream15ReadTagFallbackEj T
_ZN6google8protobuf2io16CodedInputStream16ReadVarint32SlowEPj T
_ZN6google8protobuf2io16CodedInputStream16ReadVarint64SlowEPm T
_ZN6google8protobuf2io16CodedInputStream18ReadStringFallbackEPNSt7__cxx1112basic_stringIcSt11char_traitsIcESaIcEEEi T
_ZN6google8protobuf2io16CodedInputStream18SetTotalBytesLimitEii T
_ZN6google8protobuf2io16CodedInputStream20ReadVarint32FallbackEj T
_ZN6google8protobuf2io16CodedInputStream20ReadVarint64FallbackEv T
_ZN6google8protobuf2io16CodedInputStream22GetDirectBufferPointerEPPKvPi T
_ZN6google8protobuf2io16CodedInputStream22ReadLengthAndPushLimitEv T
_ZN6google8protobuf2io16CodedInputStream23ReadVarintSizeAsIntSlowEv T
_ZN6google8protobuf2io16CodedInputStream24default_recursion_limit_E D 0000000000000004
_ZN6google8protobuf2io16CodedInputStream25PrintTotalBytesLimitErrorEv T
_ZN6google8protobuf2io16CodedInputStream26ReadLittleEndian32FallbackEPj T
_ZN6google8protobuf2io16CodedInputStream26ReadLittleEndian64FallbackEPm T
_ZN6google8protobuf2io16CodedInputStream27ReadVarintSizeAsIntFallbackEv T
_ZN6google8protobuf2io16CodedInputStream28BackUpInputToCurrentPositionEv T
_ZN6google8protobuf2io16CodedInputStream34DecrementRecursionDepthAndPopLimitEi T
_ZN6google8protobuf2io16CodedInputStream35IncrementRecursionDepthAndPushLimitEi T
_ZN6google8protobuf2io16CodedInputStream37CheckEntireMessageConsumedAndPopLimitEi T
_ZN6google8protobuf2io16CodedInputStream7ReadRawEPvi T
_ZN6google8protobuf2io16CodedInputStream7RefreshEv T
_ZN6google8protobuf2io16CodedInputStream8PopLimitEi T
_ZN6google8protobuf2io16CodedInputStream9PushLimitEi T
_ZN6google8protobuf2io16CodedInputStreamD1Ev T
_ZN6google8protobuf2io16CodedInputStreamD2Ev T
_ZN6google8protobuf2io17ArrayOutputStream4NextEPPvPi T
_ZN6google8protobuf2io17ArrayOutputStream6BackUpEi T
_ZN6google8protobuf2io17ArrayOutputStreamC1EPvii T
_ZN6google8protobuf2io17ArrayOutputStreamC2EPvii T
_ZN6google8protobuf2io17ArrayOutputStreamD0Ev W
_ZN6google8protobuf2io17ArrayOutputStreamD1Ev W
_ZN6google8protobuf2io17ArrayOutputStreamD2Ev W
_ZN6google8protobuf2io17CodedOutputStream13WriteVarint32Ej W
_ZN6google8protobuf2io17CodedOutputStream13WriteVarint64Em W
_ZN6google8protobuf2io17CodedOutputStream14EnableAliasingEb T
_ZN6google8protobuf2io17CodedOutputStream15WriteAliasedRawEPKvi T
_ZN6google8protobuf2io17CodedOutputStream15WriteRawToArrayEPKviPh T
_ZN6google8protobuf2io17CodedOutputStream19WriteLittleEndian32Ej T
_ZN6google8protobuf2io17CodedOutputStream19WriteLittleEndian64Em T
_ZN6google8protobuf2io17CodedOutputStream21WriteVarint32SlowPathEj T
_ZN6google8protobuf2io17CodedOutputStream21WriteVarint64SlowPathEm T
_ZN6google8protobuf2io17CodedOutputStream22GetDirectBufferPointerEPPvPi T
_ZN6google8protobuf2io17CodedOutputStream26WriteStringWithSizeToArrayERKNSt7__cxx1112basic_stringIcSt11char_traitsIcESaIcEEEPh T
_ZN6google8protobuf2io17CodedOutputStream36default_serialization_deterministic_E B 0000000000000008
_ZN6google8protobuf2io17CodedOutputStream4SkipEi T
_ZN6google8protobuf2io17CodedOutputStream4TrimEv T
_ZN6google8protobuf2io17CodedOutputStream7RefreshEv T
_ZN6google8protobuf2io17CodedOutputStream8WriteRawEPKvi T
_ZN6google8protobuf2io17CodedOutputStreamC1EPNS1_20ZeroCopyOutputStreamE T
_ZN6google8protobuf2io17CodedOutputStreamC1EPNS1_20ZeroCopyOutputStreamEb T
_ZN6google8protobuf2io17CodedOutputStreamC2EPNS1_20ZeroCopyOutputStreamE T
_ZN6google8protobuf2io17CodedOutputStreamC2EPNS1_20ZeroCopyOutputStreamEb T
_ZN6google8protobuf2io17CodedOutputStreamD1Ev T
_ZN6google8protobuf2io17CodedOutputStreamD2Ev T
_ZN6google8protobuf2io18CopyingInputStream4SkipEi T
_ZN6google8protobuf2io18StringOutputStream4NextEPPvPi T
_ZN6google8protobuf2io18StringOutputStream6BackUpEi T
_ZN6google8protobuf2io18StringOutputStream9SetStringEPNSt7__cxx1112basic_stringIcSt11char_traitsIcESaIcEEE T
_ZN6google8protobuf2io18StringOutputStreamC1EPNSt7__cxx1112basic_stringIcSt11char_traitsIcESaIcEEE T
_ZN6google8protobuf2io18StringOutputStreamC2EPNSt7__cxx1112basic_stringIcSt11char_traitsIcESaIcEEE T
_ZN6google8protobuf2io18StringOutputStreamD0Ev W
_ZN6google8protobuf2io18StringOutputStreamD1Ev W
_ZN6google8protobuf2io18StringOutputStreamD2Ev W
_ZN6google8protobuf2io20ZeroCopyOutputStream15WriteAliasedRawEPKvi T
_ZN6google8protobuf2io25CopyingInputStreamAdaptor10FreeBufferEv T
_ZN6google8protobuf2io25CopyingInputStreamAdaptor22AllocateBufferIfNeededEv T
_ZN6google8protobuf2io25CopyingInputStreamAdaptor4NextEPPKvPi T
_ZN6google8protobuf2io25CopyingInputStreamAdaptor4SkipEi T
_ZN6google8protobuf2io25CopyingInputStreamAdaptor6BackUpEi T
_ZN6google8protobuf2io25CopyingInputStreamAdaptorC1EPNS1_18CopyingInputStreamEi T
_ZN6google8protobuf2io25CopyingInputStreamAdaptorC2EPNS1_18CopyingInputStreamEi T
_ZN6google8protobuf2io25CopyingInputStreamAdaptorD0Ev T
_ZN6google8protobuf2io25CopyingInputStreamAdaptorD1Ev T
_ZN6google8protobuf2io25CopyingInputStreamAdaptorD2Ev T
_ZN6google8protobuf2io26CopyingOutputStreamAdaptor10FreeBufferEv T
_ZN6google8protobuf2io26CopyingOutputStreamAdaptor11WriteBufferEv T
_ZN6google8protobuf2io26CopyingOutputStreamAdaptor22AllocateBufferIfNeededEv T
_ZN6google8protobuf2io26CopyingOutputStreamAdaptor4NextEPPvPi T
_ZN6google8protobuf2io26CopyingOutputStreamAdaptor5FlushEv T
_ZN6google8protobuf2io26CopyingOutputStreamAdaptor6BackUpEi T
_ZN6google8protobuf2io26CopyingOutputStreamAdaptorC1EPNS1_19CopyingOutputStreamEi T
_ZN6google8protobuf2io26CopyingOutputStreamAdaptorC2EPNS1_19CopyingOutputStreamEi T
_ZN6google8protobuf2io26CopyingOutputStreamAdaptorD0Ev T
_ZN6google8protobuf2io26CopyingOutputStreamAdaptorD1Ev T
_ZN6google8protobuf2io26CopyingOutputStreamAdaptorD2Ev T
_ZN6google8protobuf30WebSafeBase64EscapeWithPaddingENS0_11StringPieceEPNSt7__cxx1112basic_stringIcSt11char_traitsIcESaIcEEE T
_ZN6google8protobuf4util6Status2OKE B 0000000000000028
_ZN6google8protobuf4util6Status7UNKNOWNE B 0000000000000028
_ZN6google8protobuf4util6Status9CANCELLEDE B 0000000000000028
_ZN6google8protobuf4util6StatusC1ENS1_5error4CodeENS0_11StringPieceE T
_ZN6google8protobuf4util6StatusC1ERKS2_ T
_ZN6google8protobuf4util6StatusC1Ev T
_ZN6google8protobuf4util6StatusC2ENS1_5error4CodeENS0_11StringPieceE T
_ZN6google8protobuf4util6StatusC2ERKS2_ T
_ZN6google8protobuf4util6StatusC2Ev T
_ZN6google8protobuf4util6StatusD1Ev W
_ZN6google8protobuf4util6StatusD2Ev W
_ZN6google8protobuf4util6StatusaSERKS2_ T
_ZN6google8protobuf4util8internal14StatusOrHelper5CrashERKNS1_6StatusE T
_ZN6google8protobuf4utillsERSoRKNS1_6StatusE T
_ZN6google8protobuf5Arena13OwnDestructorISt3mapIiNS0_8internal12ExtensionSet9ExtensionESt4lessIiESaISt4pairIKiS6_EEEEEvPT_ W
_ZN6google8protobuf5Arena19CallDestructorHooksEv T
_ZN6google8protobuf5Arena3OwnINS0_11MessageLiteEEEvPT_ W
_ZN6google8protobuf6StrCatB5cxx11ERKNS0_7strings8AlphaNumES4_ T
_ZN6google8protobuf6StrCatB5cxx11ERKNS0_7strings8AlphaNumES4_S4_ T
_ZN6google8protobuf6StrCatB5cxx11ERKNS0_7strings8AlphaNumES4_S4_S4_ T
_ZN6google8protobuf6StrCatB5cxx11ERKNS0_7strings8AlphaNumES4_S4_S4_S4_ T
_ZN6google8protobuf6StrCatB5cxx11ERKNS0_7strings8AlphaNumES4_S4_S4_S4_S4_ T
_ZN6google8protobuf6StrCatB5cxx11ERKNS0_7strings8AlphaNumES4_S4_S4_S4_S4_S4_ T
_ZN6google8protobuf6StrCatB5cxx11ERKNS0_7strings8AlphaNumES4_S4_S4_S4_S4_S4_S4_ T
_ZN6google8protobuf6StrCatB5cxx11ERKNS0_7strings8AlphaNumES4_S4_S4_S4_S4_S4_S4_S4_ T
_ZN6google8protobuf6ghtonlEj T
_ZN6google8protobuf7CEscapeERKNSt7__cxx1112basic_stringIcSt11char_traitsIcESaIcEEE T
_ZN6google8protobuf7ClosureD0Ev T
_ZN6google8protobuf7ClosureD1Ev T
_ZN6google8protobuf7ClosureD2Ev T
_ZN6google8protobuf7strings10ByteSource6CopyToEPNS1_8ByteSinkEm T
_ZN6google8protobuf7strings10CHexEscapeERKNSt7__cxx1112basic_stringIcSt11char_traitsIcESaIcEEE T
_ZN6google8protobuf7strings14StringByteSink6AppendEPKcm T
_ZN6google8protobuf7strings14StringByteSinkD0Ev W
_ZN6google8protobuf7strings14StringByteSinkD1Ev W
_ZN6google8protobuf7strings14StringByteSinkD2Ev W
_ZN6google8protobuf7strings15ArrayByteSource4PeekEv T
_ZN6google8protobuf7strings15ArrayByteSource4SkipEm T
_ZN6google8protobuf7strings15ArrayByteSourceD0Ev W
_ZN6google8protobuf7strings15ArrayByteSourceD1Ev W
_ZN6google8protobuf7strings15ArrayByteSourceD2Ev W
_ZN6google8protobuf7strings15LimitByteSource4PeekEv T
_ZN6google8protobuf7strings15LimitByteSource4SkipEm T
_ZN6google8protobuf7strings15LimitByteSource6CopyToEPNS1_8ByteSinkEm T
_ZN6google8protobuf7strings15LimitByteSourceC1EPNS1_10ByteSourceEm T
_ZN6google8protobuf7strings15LimitByteSourceC2EPNS1_10ByteSourceEm T
_ZN6google8protobuf7strings15LimitByteSourceD0Ev W
_ZN6google8protobuf7strings15LimitByteSourceD1Ev W
_ZN6google8protobuf7strings15LimitByteSourceD2Ev W
_ZN6google8protobuf7strings15Utf8SafeCEscapeERKNSt7__cxx1112basic_stringIcSt11char_traitsIcESaIcEEE T
_ZN6google8protobuf7strings20CheckedArrayByteSink6AppendEPKcm T
_ZN6google8protobuf7strings20CheckedArrayByteSinkC1EPcm T
_ZN6google8protobuf7strings20CheckedArrayByteSinkC2EPcm T
_ZN6google8protobuf7strings20CheckedArrayByteSinkD0Ev W
_ZN6google8protobuf7strings20CheckedArrayByteSinkD1Ev W
_ZN6google8protobuf7strings20CheckedArrayByteSinkD2Ev W
_ZN6google8protobuf7strings20GrowingArrayByteSink11ShrinkToFitEv T
_ZN6google8protobuf7strings20GrowingArrayByteSink6AppendEPKcm T
_ZN6google8protobuf7strings20GrowingArrayByteSink6ExpandEm T
_ZN6google8protobuf7strings20GrowingArrayByteSink9GetBufferEPm T
_ZN6google8protobuf7strings20GrowingArrayByteSinkC1Em T
_ZN6google8protobuf7strings20GrowingArrayByteSinkC2Em T
_ZN6google8protobuf7strings20GrowingArrayByteSinkD0Ev T
_ZN6google8protobuf7strings20GrowingArrayByteSinkD1Ev T
_ZN6google8protobuf7strings20GrowingArrayByteSinkD2Ev T
_ZN6google8protobuf7strings22UncheckedArrayByteSink6AppendEPKcm T
_ZN6google8protobuf7strings22UncheckedArrayByteSinkD0Ev W
_ZN6google8protobuf7strings22UncheckedArrayByteSinkD1Ev W
_ZN6google8protobuf7strings22UncheckedArrayByteSinkD2Ev W
_ZN6google8protobuf7strings8AlphaNumC1ENS1_3HexE T
_ZN6google8protobuf7strings8AlphaNumC2ENS1_3HexE T
_ZN6google8protobuf7strings8ByteSink5FlushEv T
_ZN6google8protobuf7uint12810DivModImplES1_S1_PS1_S2_ T
_ZN6google8protobuf7uint128dVERKS1_ T
_ZN6google8protobuf7uint128rMERKS1_ T
_ZN6google8protobuf8internal10FormatTimeB5cxx11Eli T
_ZN6google8protobuf8internal10LogMessage6FinishEv T
_ZN6google8protobuf8internal10LogMessageC1ENS0_8LogLevelEPKci T
_ZN6google8protobuf8internal10LogMessageC2ENS0_8LogLevelEPKci T
_ZN6google8protobuf8internal10LogMessageD1Ev T
_ZN6google8protobuf8internal10LogMessageD2Ev T
_ZN6google8protobuf8internal10LogMessagelsEPKc T
_ZN6google8protobuf8internal10LogMessagelsEPv T
_ZN6google8protobuf8internal10LogMessagelsERKNS0_11StringPieceE T
_ZN6google8protobuf8internal10LogMessagelsERKNS0_4util6StatusE T
_ZN6google8protobuf8internal10LogMessagelsERKNS0_7uint128E T
_ZN6google8protobuf8internal10LogMessagelsERKNSt7__cxx1112basic_stringIcSt11char_traitsIcESaIcEEE T
_ZN6google8protobuf8internal10LogMessagelsEc T
_ZN6google8protobuf8internal10LogMessagelsEd T
_ZN6google8protobuf8internal10LogMessagelsEi T
_ZN6google8protobuf8internal10LogMessagelsEj T
_ZN6google8protobuf8internal10LogMessagelsEl T
_ZN6google8protobuf8internal10LogMessagelsEm T
_ZN6google8protobuf8internal10LogMessagelsEx T
_ZN6google8protobuf8internal10LogMessagelsEy T
_ZN6google8protobuf8internal10OnShutdownEPFvvE T
_ZN6google8protobuf8internal11LogFinisheraSERNS1_10LogMessageE T
_ZN6google8protobuf8internal12ExtensionSet10AddMessageEihRKNS0_11MessageLiteEPKNS0_15FieldDescriptorE T
_ZN6google8protobuf8internal12ExtensionSet10ParseFieldEjPNS0_2io16CodedInputStreamEPKNS0_11MessageLiteE T
_ZN6google8protobuf8internal12ExtensionSet10ParseFieldEjPNS0_2io16CodedInputStreamEPKNS0_11MessageLiteEPNS3_17CodedOutputStreamE T
_ZN6google8protobuf8internal12ExtensionSet10ParseFieldEjPNS0_2io16CodedInputStreamEPNS1_15ExtensionFinderEPNS1_12FieldSkipperE T
_ZN6google8protobuf8internal12ExtensionSet10RemoveLastEi T
_ZN6google8protobuf8internal12ExtensionSet11ReleaseLastEi T
_ZN6google8protobuf8internal12ExtensionSet12SwapElementsEiii T
_ZN6google8protobuf8internal12ExtensionSet13MutableStringB5cxx11EihPKNS0_15FieldDescriptorE T
_ZN6google8protobuf8internal12ExtensionSet13SwapExtensionEPS2_i T
_ZN6google8protobuf8internal12ExtensionSet14ClearExtensionEi T
_ZN6google8protobuf8internal12ExtensionSet14MutableMessageEihRKNS0_11MessageLiteEPKNS0_15FieldDescriptorE T
_ZN6google8protobuf8internal12ExtensionSet14ReleaseMessageEiRKNS0_11MessageLiteE T
_ZN6google8protobuf8internal12ExtensionSet15SetRepeatedBoolEiib T
_ZN6google8protobuf8internal12ExtensionSet15SetRepeatedEnumEiii T
_ZN6google8protobuf8internal12ExtensionSet16SetRepeatedFloatEiif T
_ZN6google8protobuf8internal12ExtensionSet16SetRepeatedInt32Eiii T
_ZN6google8protobuf8internal12ExtensionSet16SetRepeatedInt64Eiil T
_ZN6google8protobuf8internal12ExtensionSet17MaybeNewExtensionEiPKNS0_15FieldDescriptorEPPNS2_9ExtensionE T
_ZN6google8protobuf8internal12ExtensionSet17RegisterExtensionEPKNS0_11MessageLiteEihbb T
_ZN6google8protobuf8internal12ExtensionSet17SetRepeatedDoubleEiid T
_ZN6google8protobuf8internal12ExtensionSet17SetRepeatedUInt32Eiij T
_ZN6google8protobuf8internal12ExtensionSet17SetRepeatedUInt64Eiim T
_ZN6google8protobuf8internal12ExtensionSet19SetAllocatedMessageEihPKNS0_15FieldDescriptorEPNS0_11MessageLiteE T
_ZN6google8protobuf8internal12ExtensionSet21MutableRepeatedStringB5cxx11Eii T
_ZN6google8protobuf8internal12ExtensionSet21RegisterEnumExtensionEPKNS0_11MessageLiteEihbbPFbiE T
_ZN6google8protobuf8internal12ExtensionSet22MutableRepeatedMessageEii T
_ZN6google8protobuf8internal12ExtensionSet23MutableRawRepeatedFieldEi T
_ZN6google8protobuf8internal12ExtensionSet23MutableRawRepeatedFieldEihbPKNS0_15FieldDescriptorE T
_ZN6google8protobuf8internal12ExtensionSet24FindExtensionInfoFromTagEjPNS1_15ExtensionFinderEPiPNS1_13ExtensionInfoEPb T
_ZN6google8protobuf8internal12ExtensionSet24RegisterMessageExtensionEPKNS0_11MessageLiteEihbbS5_ T
_ZN6google8protobuf8internal12ExtensionSet25UnsafeArenaReleaseMessageEiRKNS0_11MessageLiteE T
_ZN6google8protobuf8internal12ExtensionSet26InternalExtensionMergeFromEiRKNS2_9ExtensionE T
_ZN6google8protobuf8internal12ExtensionSet27ParseFieldWithExtensionInfoEibRKNS1_13ExtensionInfoEPNS0_2io16CodedInputStreamEPNS1_12FieldSkipperE T
_ZN6google8protobuf8internal12ExtensionSet30UnsafeArenaSetAllocatedMessageEihPKNS0_15FieldDescriptorEPNS0_11MessageLiteE T
_ZN6google8protobuf8internal12ExtensionSet32FindExtensionInfoFromFieldNumberEiiPNS1_15ExtensionFinderEPNS1_13ExtensionInfoEPb T
_ZN6google8protobuf8internal12ExtensionSet4SwapEPS2_ T
_ZN6google8protobuf8internal12ExtensionSet5ClearEv T
_ZN6google8protobuf8internal12ExtensionSet7AddBoolEihbbPKNS0_15FieldDescriptorE T
_ZN6google8protobuf8internal12ExtensionSet7AddEnumEihbiPKNS0_15FieldDescriptorE T
_ZN6google8protobuf8internal12ExtensionSet7SetBoolEihbPKNS0_15FieldDescriptorE T
_ZN6google8protobuf8internal12ExtensionSet7SetEnumEihiPKNS0_15FieldDescriptorE T
_ZN6google8protobuf8internal12ExtensionSet8AddFloatEihbfPKNS0_15FieldDescriptorE T
_ZN6google8protobuf8internal12ExtensionSet8AddInt32EihbiPKNS0_15FieldDescriptorE T
_ZN6google8protobuf8internal12ExtensionSet8AddInt64EihblPKNS0_15FieldDescriptorE T
_ZN6google8protobuf8internal12ExtensionSet8SetFloatEihfPKNS0_15FieldDescriptorE T
_ZN6google8protobuf8internal12ExtensionSet8SetInt32EihiPKNS0_15FieldDescriptorE T
_ZN6google8protobuf8internal12ExtensionSet8SetInt64EihlPKNS0_15FieldDescriptorE T
_ZN6google8protobuf8internal12ExtensionSet9AddDoubleEihbdPKNS0_15FieldDescriptorE T
_ZN6google8protobuf8internal12ExtensionSet9AddStringB5cxx11EihPKNS0_15FieldDescriptorE T
_ZN6google8protobuf8internal12ExtensionSet9AddUInt32EihbjPKNS0_15FieldDescriptorE T
_ZN6google8protobuf8internal12ExtensionSet9AddUInt64EihbmPKNS0_15FieldDescriptorE T
_ZN6google8protobuf8internal12ExtensionSet9Extension4FreeEv T
_ZN6google8protobuf8internal12ExtensionSet9Extension5ClearEv T
_ZN6google8protobuf8internal12ExtensionSet9MergeFromERKS2_ T
_ZN6google8protobuf8internal12ExtensionSet9SetDoubleEihdPKNS0_15FieldDescriptorE T
_ZN6google8protobuf8internal12ExtensionSet9SetUInt32EihjPKNS0_15FieldDescriptorE T
_ZN6google8protobuf8internal12ExtensionSet9SetUInt64EihmPKNS0_15FieldDescriptorE T
_ZN6google8protobuf8internal12ExtensionSetC1EPNS0_5ArenaE T
_ZN6google8protobuf8internal12ExtensionSetC1Ev T
_ZN6google8protobuf8internal12ExtensionSetC2EPNS0_5ArenaE T
_ZN6google8protobuf8internal12ExtensionSetC2Ev T
_ZN6google8protobuf8internal12ExtensionSetD1Ev T
_ZN6google8protobuf8internal12ExtensionSetD2Ev T
_ZN6google8protobuf8internal12FieldSkipper11SkipMessageEPNS0_2io16CodedInputStreamE T
_ZN6google8protobuf8internal12FieldSkipper15SkipUnknownEnumEii T
_ZN6google8protobuf8internal12FieldSkipper9SkipFieldEPNS0_2io16CodedInputStreamEj T
_ZN6google8protobuf8internal12FieldSkipperD0Ev W
_ZN6google8protobuf8internal12FieldSkipperD1Ev W
_ZN6google8protobuf8internal12FieldSkipperD2Ev W
_ZN6google8protobuf8internal13FieldMetadata13CalculateTypeEiNS2_14FieldTypeClassE T
_ZN6google8protobuf8internal13VerifyVersionEiiPKc T
_ZN6google8protobuf8internal13VersionStringB5cxx11Ei T
_ZN6google8protobuf8internal13shutdown_dataE B 0000000000000008
_ZN6google8protobuf8internal14GetCurrentTimeEPlPi T
_ZN6google8protobuf8internal14NullLogHandlerENS0_8LogLevelEPKciRKNSt7__cxx1112basic_stringIcSt11char_traitsIcESaIcEEE T
_ZN6google8protobuf8internal14WireFormatLite10SInt32SizeERKNS0_13RepeatedFieldIiEE T
_ZN6google8protobuf8internal14WireFormatLite10UInt32SizeERKNS0_13RepeatedFieldIjEE T
_ZN6google8protobuf8internal14WireFormatLite10WriteBytesEiRKNSt7__cxx1112basic_stringIcSt11char_traitsIcESaIcEEEPNS0_2io17CodedOutputStreamE T
_ZN6google8protobuf8internal14WireFormatLite10WriteFloatEifPNS0_2io17CodedOutputStreamE T
_ZN6google8protobuf8internal14WireFormatLite10WriteGroupEiRKNS0_11MessageLiteEPNS0_2io17CodedOutputStreamE T
_ZN6google8protobuf8internal14WireFormatLite10WriteInt32EiiPNS0_2io17CodedOutputStreamE T
_ZN6google8protobuf8internal14WireFormatLite10WriteInt64EilPNS0_2io17CodedOutputStreamE T
_ZN6google8protobuf8internal14WireFormatLite11SkipMessageEPNS0_2io16CodedInputStreamE T
_ZN6google8protobuf8internal14WireFormatLite11SkipMessageEPNS0_2io16CodedInputStreamEPNS3_17CodedOutputStreamE T
_ZN6google8protobuf8internal14WireFormatLite11WriteDoubleEidPNS0_2io17CodedOutputStreamE T
_ZN6google8protobuf8internal14WireFormatLite11WriteSInt32EiiPNS0_2io17CodedOutputStreamE T
_ZN6google8protobuf8internal14WireFormatLite11WriteSInt64EilPNS0_2io17CodedOutputStreamE T
_ZN6google8protobuf8internal14WireFormatLite11WriteStringEiRKNSt7__cxx1112basic_stringIcSt11char_traitsIcESaIcEEEPNS0_2io17CodedOutputStreamE T
_ZN6google8protobuf8internal14WireFormatLite11WriteUInt32EijPNS0_2io17CodedOutputStreamE T
_ZN6google8protobuf8internal14WireFormatLite11WriteUInt64EimPNS0_2io17CodedOutputStreamE T
_ZN6google8protobuf8internal14WireFormatLite12WriteFixed32EijPNS0_2io17CodedOutputStreamE T
_ZN6google8protobuf8internal14WireFormatLite12WriteFixed64EimPNS0_2io17CodedOutputStreamE T
_ZN6google8protobuf8internal14WireFormatLite12WriteMessageEiRKNS0_11MessageLiteEPNS0_2io17CodedOutputStreamE T
_ZN6google8protobuf8internal14WireFormatLite13WriteSFixed32EiiPNS0_2io17CodedOutputStreamE T
_ZN6google8protobuf8internal14WireFormatLite13WriteSFixed64EilPNS0_2io17CodedOutputStreamE T
_ZN6google8protobuf8internal14WireFormatLite14WriteBoolArrayEPKbiPNS0_2io17CodedOutputStreamE T
_ZN6google8protobuf8internal14WireFormatLite15WriteFloatArrayEPKfiPNS0_2io17CodedOutputStreamE T
_ZN6google8protobuf8internal14WireFormatLite16VerifyUtf8StringEPKciNS2_9OperationES4_ T
_ZN6google8protobuf8internal14WireFormatLite16WriteDoubleArrayEPKdiPNS0_2io17CodedOutputStreamE T
_ZN6google8protobuf8internal14WireFormatLite17WriteFixed32ArrayEPKjiPNS0_2io17CodedOutputStreamE T
_ZN6google8protobuf8internal14WireFormatLite17WriteFixed64ArrayEPKmiPNS0_2io17CodedOutputStreamE T
_ZN6google8protobuf8internal14WireFormatLite18WriteSFixed32ArrayEPKiiPNS0_2io17CodedOutputStreamE T
_ZN6google8protobuf8internal14WireFormatLite18WriteSFixed64ArrayEPKliPNS0_2io17CodedOutputStreamE T
_ZN6google8protobuf8internal14WireFormatLite20kMessageSetTypeIdTagE R
_ZN6google8protobuf8internal14WireFormatLite21kMessageSetItemEndTagE R
_ZN6google8protobuf8internal14WireFormatLite21kMessageSetMessageTagE R
_ZN6google8protobuf8internal14WireFormatLite21kWireTypeForFieldTypeE R
_ZN6google8protobuf8internal14WireFormatLite22ReadPackedEnumNoInlineEPNS0_2io16CodedInputStreamEPFbiEPNS0_13RepeatedFieldIiEE T
_ZN6google8protobuf8internal14WireFormatLite22WriteBytesMaybeAliasedEiRKNSt7__cxx1112basic_stringIcSt11char_traitsIcESaIcEEEPNS0_2io17CodedOutputStreamE T
_ZN6google8protobuf8internal14WireFormatLite22WriteGroupMaybeToArrayEiRKNS0_11MessageLiteEPNS0_2io17CodedOutputStreamE T
_ZN6google8protobuf8internal14WireFormatLite22kFieldTypeToCppTypeMapE R
_ZN6google8protobuf8internal14WireFormatLite23WriteStringMaybeAliasedEiRKNSt7__cxx1112basic_stringIcSt11char_traitsIcESaIcEEEPNS0_2io17CodedOutputStreamE T
_ZN6google8protobuf8internal14WireFormatLite23kMessageSetItemStartTagE R
_ZN6google8protobuf8internal14WireFormatLite23kMessageSetItemTagsSizeE R
_ZN6google8protobuf8internal14WireFormatLite24WriteMessageMaybeToArrayEiRKNS0_11MessageLiteEPNS0_2io17CodedOutputStreamE T
_ZN6google8protobuf8internal14WireFormatLite30ReadPackedEnumPreserveUnknownsEPNS0_2io16CodedInputStreamEiPFbiEPNS3_17CodedOutputStreamEPNS0_13RepeatedFieldIiEE T
_ZN6google8protobuf8internal14WireFormatLite8EnumSizeERKNS0_13RepeatedFieldIiEE T
_ZN6google8protobuf8internal14WireFormatLite9Int32SizeERKNS0_13RepeatedFieldIiEE T
_ZN6google8protobuf8internal14WireFormatLite9ReadBytesEPNS0_2io16CodedInputStreamEPNSt7__cxx1112basic_stringIcSt11char_traitsIcESaIcEEE T
_ZN6google8protobuf8internal14WireFormatLite9ReadBytesEPNS0_2io16CodedInputStreamEPPNSt7__cxx1112basic_stringIcSt11char_traitsIcESaIcEEE T
_ZN6google8protobuf8internal14WireFormatLite9SkipFieldEPNS0_2io16CodedInputStreamEj T
_ZN6google8protobuf8internal14WireFormatLite9SkipFieldEPNS0_2io16CodedInputStreamEjPNS3_17CodedOutputStreamE T
_ZN6google8protobuf8internal14WireFormatLite9WriteBoolEibPNS0_2io17CodedOutputStreamE T
_ZN6google8protobuf8internal14WireFormatLite9WriteEnumEiiPNS0_2io17CodedOutputStreamE T
_ZN6google8protobuf8internal15ExtensionFinderD0Ev T
_ZN6google8protobuf8internal15ExtensionFinderD1Ev T
_ZN6google8protobuf8internal15ExtensionFinderD2Ev T
_ZN6google8protobuf8internal15InitEmptyStringEv T
_ZN6google8protobuf8internal15UTF8GenericScanEPKNS1_19UTF8StateMachineObjEPKciPi T
_ZN6google8protobuf8internal16FunctionClosure03RunEv W
_ZN6google8protobuf8internal16FunctionClosure0D0Ev T
_ZN6google8protobuf8internal16FunctionClosure0D1Ev T
_ZN6google8protobuf8internal16FunctionClosure0D2Ev T
_ZN6google8protobuf8internal17DateTimeToSecondsERKNS1_8DateTimeEPl T
_ZN6google8protobuf8internal17DefaultLogHandlerENS0_8LogLevelEPKciRKNSt7__cxx1112basic_stringIcSt11char_traitsIcESaIcEEE T
_ZN6google8protobuf8internal17DeleteEmptyStringEv T
_ZN6google8protobuf8internal17SecondsToDateTimeElPNS1_8DateTimeE T
_ZN6google8protobuf8internal17SerializeInternalEPKhPKNS1_13FieldMetadataEiPNS0_2io17CodedOutputStreamE T
_ZN6google8protobuf8internal18GenericTypeHandlerINS0_11MessageLiteEE16NewFromPrototypeEPKS3_PNS0_5ArenaE T
_ZN6google8protobuf8internal18GenericTypeHandlerINS0_11MessageLiteEE5MergeERKS3_PS3_ T
_ZN6google8protobuf8internal18GenericTypeHandlerINSt7__cxx1112basic_stringIcSt11char_traitsIcESaIcEEEE5MergeERKS8_PS8_ T
_ZN6google8protobuf8internal18SerializeMessageToINS0_2io17CodedOutputStreamEEEvPKNS0_11MessageLiteEPKvPT_ W
_ZN6google8protobuf8internal18SerializeMessageToINS1_11ArrayOutputEEEvPKNS0_11MessageLiteEPKvPT_ W
_ZN6google8protobuf8internal19ExtensionSerializerEPKhjjjPNS0_2io17CodedOutputStreamE T
_ZN6google8protobuf8internal19arena_delete_objectINS0_11MessageLiteEEEvPv W
_ZN6google8protobuf8internal20InitLogSilencerCountEv T
_ZN6google8protobuf8internal20InitProtobufDefaultsEv T
_ZN6google8protobuf8internal20RepeatedPtrFieldBase14InternalExtendEi T
_ZN6google8protobuf8internal20RepeatedPtrFieldBase18MergeFromInnerLoopINS0_16RepeatedPtrFieldINSt7__cxx1112basic_stringIcSt11char_traitsIcESaIcEEEE11TypeHandlerEEEvPPvSE_ii W
_ZN6google8protobuf8internal20RepeatedPtrFieldBase20AddAllocatedInternalINS0_16RepeatedPtrFieldINS0_11MessageLiteEE11TypeHandlerEEEvPNT_4TypeENS1_17integral_constantIbLb0EEE W
_ZN6google8protobuf8internal20RepeatedPtrFieldBase7ReserveEi T
_ZN6google8protobuf8internal20RepeatedPtrFieldBase8CloseGapEii T
_ZN6google8protobuf8internal21InitShutdownFunctionsEv T
_ZN6google8protobuf8internal21arena_destruct_objectINS0_13RepeatedFieldIbEEEEvPv W
_ZN6google8protobuf8internal21arena_destruct_objectINS0_13RepeatedFieldIdEEEEvPv W
_ZN6google8protobuf8internal21arena_destruct_objectINS0_13RepeatedFieldIfEEEEvPv W
_ZN6google8protobuf8internal21arena_destruct_objectINS0_13RepeatedFieldIiEEEEvPv W
_ZN6google8protobuf8internal21arena_destruct_objectINS0_13RepeatedFieldIjEEEEvPv W
_ZN6google8protobuf8internal21arena_destruct_objectINS0_13RepeatedFieldIlEEEEvPv W
_ZN6google8protobuf8internal21arena_destruct_objectINS0_13RepeatedFieldImEEEEvPv W
_ZN6google8protobuf8internal21arena_destruct_objectINS0_16RepeatedPtrFieldINS0_11MessageLiteEEEEEvPv W
_ZN6google8protobuf8internal21arena_destruct_objectINS0_16RepeatedPtrFieldINSt7__cxx1112basic_stringIcSt11char_traitsIcESaIcEEEEEEEvPv W
_ZN6google8protobuf8internal21arena_destruct_objectINSt7__cxx1112basic_stringIcSt11char_traitsIcESaIcEEEEEvPv W
_ZN6google8protobuf8internal21arena_destruct_objectISt3mapIiNS1_12ExtensionSet9ExtensionESt4lessIiESaISt4pairIKiS5_EEEEEvPv W
_ZN6google8protobuf8internal22DeleteLogSilencerCountEv T
_ZN6google8protobuf8internal23GetOwnedMessageInternalEPNS0_5ArenaEPNS0_11MessageLiteES3_ T
_ZN6google8protobuf8internal23IsStructurallyValidUTF8EPKci T
_ZN6google8protobuf8internal23OnShutdownDestroyStringEPKNSt7__cxx1112basic_stringIcSt11char_traitsIcESaIcEEE T
_ZN6google8protobuf8internal23SerializeMessageNoTableEPKNS0_11MessageLiteEPNS0_2io17CodedOutputStreamE T
_ZN6google8protobuf8internal23SerializeMessageNoTableEPKNS0_11MessageLiteEPNS1_11ArrayOutputE T
_ZN6google8protobuf8internal23SerializeNotImplementedEi T
_ZN6google8protobuf8internal23empty_string_once_init_E B 0000000000000008
_ZN6google8protobuf8internal23shutdown_functions_initE B 0000000000000008
_ZN6google8protobuf8internal24GeneratedExtensionFinder4FindEiPNS1_13ExtensionInfoE T
_ZN6google8protobuf8internal24GeneratedExtensionFinderD0Ev W
_ZN6google8protobuf8internal24GeneratedExtensionFinderD1Ev W
_ZN6google8protobuf8internal24GeneratedExtensionFinderD2Ev W
_ZN6google8protobuf8internal24InitLogSilencerCountOnceEv T
_ZN6google8protobuf8internal24OnShutdownDestroyMessageEPKv T
_ZN6google8protobuf8internal24RepeatedStringTypeTraits23default_repeated_field_B5cxx11E B 0000000000000008
_ZN6google8protobuf8internal24RepeatedStringTypeTraits28DestroyDefaultRepeatedFieldsEv T
_ZN6google8protobuf8internal24RepeatedStringTypeTraits31InitializeDefaultRepeatedFieldsEv T
_ZN6google8protobuf8internal24SerializeInternalToArrayEPKhPKNS1_13FieldMetadataEibPh T
_ZN6google8protobuf8internal24SerializeMessageDispatchERKNS0_11MessageLiteEPKNS1_13FieldMetadataEiiPNS0_2io17CodedOutputStreamE T
_ZN6google8protobuf8internal24SerializeMessageDispatchERKNS0_11MessageLiteEPKNS1_13FieldMetadataEiiPNS1_11ArrayOutputE T
_ZN6google8protobuf8internal24UTF8GenericScanFastAsciiEPKNS1_19UTF8StateMachineObjEPKciPi T
_ZN6google8protobuf8internal24UTF8SpnStructurallyValidERKNS0_11StringPieceE T
_ZN6google8protobuf8internal24log_silencer_count_init_E B 0000000000000008
_ZN6google8protobuf8internal24proto3_preserve_unknown_E D 0000000000000001
_ZN6google8protobuf8internal26DuplicateIfNonNullInternalEPNS0_11MessageLiteEPNS0_5ArenaE T
_ZN6google8protobuf8internal26UnknownFieldSerializerLiteEPKhjjjPNS0_2io17CodedOutputStreamE T
_ZN6google8protobuf8internal26fixed_address_empty_stringB5cxx11E B 0000000000000020
_ZN6google8protobuf8internal29CodedOutputStreamFieldSkipper11SkipMessageEPNS0_2io16CodedInputStreamE T
_ZN6google8protobuf8internal29CodedOutputStreamFieldSkipper15SkipUnknownEnumEii T
_ZN6google8protobuf8internal29CodedOutputStreamFieldSkipper9SkipFieldEPNS0_2io16CodedInputStreamEj T
_ZN6google8protobuf8internal29CodedOutputStreamFieldSkipperD0Ev W
_ZN6google8protobuf8internal29CodedOutputStreamFieldSkipperD1Ev W
_ZN6google8protobuf8internal29CodedOutputStreamFieldSkipperD2Ev W
_ZN6google8protobuf8internal29UTF8CoerceToStructurallyValidERKNS0_11StringPieceEPcc T
_ZN6google8protobuf8internal32AtomicOps_Internalx86CPUFeaturesE B 0000000000000002
_ZN6google8protobuf8internal32RepeatedMessageGenericTypeTraits23default_repeated_field_E B 0000000000000008
_ZN6google8protobuf8internal32RepeatedMessageGenericTypeTraits28DestroyDefaultRepeatedFieldsEv T
_ZN6google8protobuf8internal32RepeatedMessageGenericTypeTraits31InitializeDefaultRepeatedFieldsEv T
_ZN6google8protobuf8internal32SetProto3PreserveUnknownsDefaultEb T
_ZN6google8protobuf8internal32StringSpaceUsedExcludingSelfLongERKNSt7__cxx1112basic_stringIcSt11char_traitsIcESaIcEEE T
_ZN6google8protobuf8internal34RepeatedPrimitiveGenericTypeTraits28DestroyDefaultRepeatedFieldsEv T
_ZN6google8protobuf8internal34RepeatedPrimitiveGenericTypeTraits28default_repeated_field_bool_E B 0000000000000008
_ZN6google8protobuf8internal34RepeatedPrimitiveGenericTypeTraits29default_repeated_field_float_E B 0000000000000008
_ZN6google8protobuf8internal34RepeatedPrimitiveGenericTypeTraits29default_repeated_field_int32_E B 0000000000000008
_ZN6google8protobuf8internal34RepeatedPrimitiveGenericTypeTraits29default_repeated_field_int64_E B 0000000000000008
_ZN6google8protobuf8internal34RepeatedPrimitiveGenericTypeTraits30default_repeated_field_double_E B 0000000000000008
_ZN6google8protobuf8internal34RepeatedPrimitiveGenericTypeTraits30default_repeated_field_uint32_E B 0000000000000008
_ZN6google8protobuf8internal34RepeatedPrimitiveGenericTypeTraits30default_repeated_field_uint64_E B 0000000000000008
_ZN6google8protobuf8internal34RepeatedPrimitiveGenericTypeTraits31InitializeDefaultRepeatedFieldsEv T
_ZN6google8protobuf8internal38repeated_string_type_traits_once_init_E B 0000000000000008
_ZN6google8protobuf8internal3NaNEv T
_ZN6google8protobuf8internal47repeated_message_generic_type_traits_once_init_E B 0000000000000008
_ZN6google8protobuf8internal49repeated_primitive_generic_type_traits_once_init_E B 0000000000000008
_ZN6google8protobuf8internal5Mutex10AssertHeldEv T
_ZN6google8protobuf8internal5Mutex4LockEv T
_ZN6google8protobuf8internal5Mutex6UnlockEv T
_ZN6google8protobuf8internal5MutexC1Ev T
_ZN6google8protobuf8internal5MutexC2Ev T
_ZN6google8protobuf8internal5MutexD1Ev T
_ZN6google8protobuf8internal5MutexD2Ev T
_ZN6google8protobuf8internal6IsNullILi10EEEbPKv T
_ZN6google8protobuf8internal6IsNullILi11EEEbPKv T
_ZN6google8protobuf8internal6IsNullILi12EEEbPKv T
_ZN6google8protobuf8internal6IsNullILi9EEEbPKv T
_ZN6google8protobuf8internal8InfinityEv T
_ZN6google8protobuf8internal9ArenaImpl10AddCleanupEPvPFvS3_E T
_ZN6google8protobuf8internal9ArenaImpl10FreeBlocksEv T
_ZN6google8protobuf8internal9ArenaImpl11CleanupListEv T
_ZN6google8protobuf8internal9ArenaImpl12GetBlockSlowEPvPNS2_5BlockEm T
_ZN6google8protobuf8internal9ArenaImpl13GetThreadInfoEPvm T
_ZN6google8protobuf8internal9ArenaImpl13NewThreadInfoEPNS2_5BlockE T
_ZN6google8protobuf8internal9ArenaImpl13thread_cache_E D 0000000000000010
_ZN6google8protobuf8internal9ArenaImpl14FindThreadInfoEPv T
_ZN6google8protobuf8internal9ArenaImpl15AllocateAlignedEm T
_ZN6google8protobuf8internal9ArenaImpl17ExpandCleanupListEPNS2_12CleanupChunkEPNS2_5BlockE T
_ZN6google8protobuf8internal9ArenaImpl23lifecycle_id_generator_E B 0000000000000008
_ZN6google8protobuf8internal9ArenaImpl28AllocateAlignedAndAddCleanupEmPFvPvE T
_ZN6google8protobuf8internal9ArenaImpl4InitEv T
_ZN6google8protobuf8internal9ArenaImpl5ResetEv T
_ZN6google8protobuf8internal9ArenaImpl8NewBlockEPvPNS2_5BlockEm T
_ZN6google8protobuf8internal9ArenaImpl9InitBlockEPNS2_5BlockEPvm T
_ZN6google8protobuf8internal9ArenaImplD1Ev T
_ZN6google8protobuf8internal9ArenaImplD2Ev T
_ZN6google8protobuf8internal9ParseTimeERKNSt7__cxx1112basic_stringIcSt11char_traitsIcESaIcEEEPlPi T
_ZN6google8protobuf9DoNothingEv T
_ZN6google8protobuf9StrAppendEPNSt7__cxx1112basic_stringIcSt11char_traitsIcESaIcEEERKNS0_7strings8AlphaNumE T
_ZN6google8protobuf9StrAppendEPNSt7__cxx1112basic_stringIcSt11char_traitsIcESaIcEEERKNS0_7strings8AlphaNumESB_ T
_ZN6google8protobuf9StrAppendEPNSt7__cxx1112basic_stringIcSt11char_traitsIcESaIcEEERKNS0_7strings8AlphaNumESB_SB_ T
_ZN6google8protobuf9StrAppendEPNSt7__cxx1112basic_stringIcSt11char_traitsIcESaIcEEERKNS0_7strings8AlphaNumESB_SB_SB_ T
_ZN6google8protobuflsERSoNS0_11StringPieceE T
_ZN6google8protobuflsERSoRKNS0_7uint128E T
_ZNK6google8protobuf11MessageLite14AppendToStringEPNSt7__cxx1112basic_stringIcSt11char_traitsIcESaIcEEE T
_ZNK6google8protobuf11MessageLite16InternalGetTableEv W
_ZNK6google8protobuf11MessageLite16SerializeToArrayEPvi T
_ZNK6google8protobuf11MessageLite17SerializeAsStringB5cxx11Ev T
_ZNK6google8protobuf11MessageLite17SerializeToStringEPNSt7__cxx1112basic_stringIcSt11char_traitsIcESaIcEEE T
_ZNK6google8protobuf11MessageLite20GetMaybeArenaPointerEv W
_ZNK6google8protobuf11MessageLite21AppendPartialToStringEPNSt7__cxx1112basic_stringIcSt11char_traitsIcESaIcEEE T
_ZNK6google8protobuf11MessageLite22SerializeToCodedStreamEPNS0_2io17CodedOutputStreamE T
_ZNK6google8protobuf11MessageLite23SerializePartialToArrayEPvi T
_ZNK6google8protobuf11MessageLite24SerializePartialAsStringB5cxx11Ev T
_ZNK6google8protobuf11MessageLite24SerializePartialToStringEPNSt7__cxx1112basic_stringIcSt11char_traitsIcESaIcEEE T
_ZNK6google8protobuf11MessageLite24SerializeWithCachedSizesEPNS0_2io17CodedOutputStreamE T
_ZNK6google8protobuf11MessageLite25InitializationErrorStringB5cxx11Ev T
_ZNK6google8protobuf11MessageLite25SerializeToZeroCopyStreamEPNS0_2io20ZeroCopyOutputStreamE T
_ZNK6google8protobuf11MessageLite29SerializePartialToCodedStreamEPNS0_2io17CodedOutputStreamE T
_ZNK6google8protobuf11MessageLite31SerializeWithCachedSizesToArrayEPh T
_ZNK6google8protobuf11MessageLite32SerializePartialToZeroCopyStreamEPNS0_2io20ZeroCopyOutputStreamE T
_ZNK6google8protobuf11MessageLite39InternalSerializeWithCachedSizesToArrayEbPh T
_ZNK6google8protobuf11MessageLite3NewEPNS0_5ArenaE T
_ZNK6google8protobuf11MessageLite8GetArenaEv W
_ZNK6google8protobuf11StringPiece12CopyToStringEPNSt7__cxx1112basic_stringIcSt11char_traitsIcESaIcEEE T
_ZNK6google8protobuf11StringPiece12find_last_ofES1_m T
_ZNK6google8protobuf11StringPiece13find_first_ofES1_m T
_ZNK6google8protobuf11StringPiece14AppendToStringEPNSt7__cxx1112basic_stringIcSt11char_traitsIcESaIcEEE T
_ZNK6google8protobuf11StringPiece16find_last_not_ofES1_m T
_ZNK6google8protobuf11StringPiece16find_last_not_ofEcm T
_ZNK6google8protobuf11StringPiece17find_first_not_ofES1_m T
_ZNK6google8protobuf11StringPiece17find_first_not_ofEcm T
_ZNK6google8protobuf11StringPiece4copyEPcmm T
_ZNK6google8protobuf11StringPiece4findES1_m T
_ZNK6google8protobuf11StringPiece4findEcm T
_ZNK6google8protobuf11StringPiece5rfindES1_m T
_ZNK6google8protobuf11StringPiece5rfindEcm T
_ZNK6google8protobuf11StringPiece6substrEmm T
_ZNK6google8protobuf11StringPiece8containsES1_ T
_ZNK6google8protobuf14FatalException4whatEv T
_ZNK6google8protobuf2io16ArrayInputStream9ByteCountEv T
_ZNK6google8protobuf2io16CodedInputStream15BytesUntilLimitEv T
_ZNK6google8protobuf2io16CodedInputStream25BytesUntilTotalBytesLimitEv T
_ZNK6google8protobuf2io17ArrayOutputStream9ByteCountEv T
_ZNK6google8protobuf2io18StringOutputStream9ByteCountEv T
_ZNK6google8protobuf2io20ZeroCopyOutputStream14AllowsAliasingEv W
_ZNK6google8protobuf2io25CopyingInputStreamAdaptor9ByteCountEv T
_ZNK6google8protobuf2io26CopyingOutputStreamAdaptor9ByteCountEv T
_ZNK6google8protobuf4util6Status8ToStringB5cxx11Ev T
_ZNK6google8protobuf4util6StatuseqERKS2_ T
_ZNK6google8protobuf5Arena17OnArenaAllocationEPKSt9type_infom T
_ZNK6google8protobuf7strings15ArrayByteSource9AvailableEv T
_ZNK6google8protobuf7strings15LimitByteSource9AvailableEv T
_ZNK6google8protobuf8internal12ExtensionSet10GetMessageEiRKNS0_11MessageLiteE T
_ZNK6google8protobuf8internal12ExtensionSet13ExtensionSizeEi T
_ZNK6google8protobuf8internal12ExtensionSet13ExtensionTypeEi T
_ZNK6google8protobuf8internal12ExtensionSet13IsInitializedEv T
_ZNK6google8protobuf8internal12ExtensionSet13NumExtensionsEv T
_ZNK6google8protobuf8internal12ExtensionSet15GetRepeatedBoolEii T
_ZNK6google8protobuf8internal12ExtensionSet15GetRepeatedEnumEii T
_ZNK6google8protobuf8internal12ExtensionSet16GetRepeatedFloatEii T
_ZNK6google8protobuf8internal12ExtensionSet16GetRepeatedInt32Eii T
_ZNK6google8protobuf8internal12ExtensionSet16GetRepeatedInt64Eii T
_ZNK6google8protobuf8internal12ExtensionSet17GetRepeatedDoubleEii T
_ZNK6google8protobuf8internal12ExtensionSet17GetRepeatedStringB5cxx11Eii T
_ZNK6google8protobuf8internal12ExtensionSet17GetRepeatedUInt32Eii T
_ZNK6google8protobuf8internal12ExtensionSet17GetRepeatedUInt64Eii T
_ZNK6google8protobuf8internal12ExtensionSet18GetRepeatedMessageEii T
_ZNK6google8protobuf8internal12ExtensionSet19GetRawRepeatedFieldEiPKv T
_ZNK6google8protobuf8internal12ExtensionSet24SerializeWithCachedSizesEiiPNS0_2io17CodedOutputStreamE T
_ZNK6google8protobuf8internal12ExtensionSet3HasEi T
_ZNK6google8protobuf8internal12ExtensionSet7GetBoolEib T
_ZNK6google8protobuf8internal12ExtensionSet7GetEnumEii T
_ZNK6google8protobuf8internal12ExtensionSet8ByteSizeEv T
_ZNK6google8protobuf8internal12ExtensionSet8GetFloatEif T
_ZNK6google8protobuf8internal12ExtensionSet8GetInt32Eii T
_ZNK6google8protobuf8internal12ExtensionSet8GetInt64Eil T
_ZNK6google8protobuf8internal12ExtensionSet9Extension29SerializeFieldWithCachedSizesEiPNS0_2io17CodedOutputStreamE T
_ZNK6google8protobuf8internal12ExtensionSet9Extension7GetSizeEv T
_ZNK6google8protobuf8internal12ExtensionSet9Extension8ByteSizeEi T
_ZNK6google8protobuf8internal12ExtensionSet9GetDoubleEid T
_ZNK6google8protobuf8internal12ExtensionSet9GetStringEiRKNSt7__cxx1112basic_stringIcSt11char_traitsIcESaIcEEE T
_ZNK6google8protobuf8internal12ExtensionSet9GetUInt32Eij T
_ZNK6google8protobuf8internal12ExtensionSet9GetUInt64Eim T
_ZNK6google8protobuf8internal9ArenaImpl14SpaceAllocatedEv T
_ZNK6google8protobuf8internal9ArenaImpl9SpaceUsedEv T
_ZNKSt5ctypeIcE8do_widenEc W
_ZNSt10_HashtableISt4pairIPKN6google8protobuf11MessageLiteEiES0_IKS6_NS2_8internal13ExtensionInfoEESaISA_ENSt8__detail10_Select1stESt8equal_toIS6_ENS2_4hashIS6_EENSC_18_Mod_range_hashingENSC_20_Default_ranged_hashENSC_20_Prime_rehash_policyENSC_17_Hashtable_traitsILb1ELb0ELb1EEEE9_M_rehashEmRKm W
_ZNSt6vectorINSt7__cxx1112basic_stringIcSt11char_traitsIcESaIcEEESaIS5_EE17_M_realloc_insertIJS5_EEEvN9__gnu_cxx17__normal_iteratorIPS5_S7_EEDpOT_ W
_ZNSt6vectorIPFvvESaIS1_EE17_M_realloc_insertIJRKS1_EEEvN9__gnu_cxx17__normal_iteratorIPS1_S3_EEDpOT_ W
_ZNSt6vectorIPKN6google8protobuf11MessageLiteESaIS4_EE17_M_realloc_insertIJS4_EEEvN9__gnu_cxx17__normal_iteratorIPS4_S6_EEDpOT_ W
_ZNSt6vectorIPKNSt7__cxx1112basic_stringIcSt11char_traitsIcESaIcEEESaIS7_EE17_M_realloc_insertIJRKS7_EEEvN9__gnu_cxx17__normal_iteratorIPS7_S9_EEDpOT_ W
_ZNSt8_Rb_treeIiSt4pairIKiN6google8protobuf8internal12ExtensionSet9ExtensionEESt10_Select1stIS7_ESt4lessIiESaIS7_EE17_M_emplace_uniqueIJS0_IiS6_EEEES0_ISt17_Rb_tree_iteratorIS7_EbEDpOT_ W
_ZNSt8_Rb_treeIiSt4pairIKiN6google8protobuf8internal12ExtensionSet9ExtensionEESt10_Select1stIS7_ESt4lessIiESaIS7_EE5eraseERS1_ W
_ZNSt8_Rb_treeIiSt4pairIKiN6google8protobuf8internal12ExtensionSet9ExtensionEESt10_Select1stIS7_ESt4lessIiESaIS7_EE8_M_eraseEPSt13_Rb_tree_nodeIS7_E W
_ZSt9__find_ifIPKcN9__gnu_cxx5__ops17_Iter_equals_iterIS1_EEET_S6_S6_T0_St26random_access_iterator_tag W
_ZSt9__find_ifISt16reverse_iteratorIPKcEN9__gnu_cxx5__ops17_Iter_equals_iterIS3_EEET_S8_S8_T0_St26random_access_iterator_tag W
_ZTIN6google8protobuf11MessageLiteE V
_ZTIN6google8protobuf13RepeatedFieldIbEE V
_ZTIN6google8protobuf13RepeatedFieldIdEE V
_ZTIN6google8protobuf13RepeatedFieldIfEE V
_ZTIN6google8protobuf13RepeatedFieldIiEE V
_ZTIN6google8protobuf13RepeatedFieldIjEE V
_ZTIN6google8protobuf13RepeatedFieldIlEE V
_ZTIN6google8protobuf13RepeatedFieldImEE V
_ZTIN6google8protobuf14FatalExceptionE V
_ZTIN6google8protobuf16RepeatedPtrFieldINS0_11MessageLiteEEE V
_ZTIN6google8protobuf16RepeatedPtrFieldINSt7__cxx1112basic_stringIcSt11char_traitsIcESaIcEEEEE V
_ZTIN6google8protobuf2io16ArrayInputStreamE V
_ZTIN6google8protobuf2io17ArrayOutputStreamE V
_ZTIN6google8protobuf2io18CopyingInputStreamE V
_ZTIN6google8protobuf2io18StringOutputStreamE V
_ZTIN6google8protobuf2io19ZeroCopyInputStreamE V
_ZTIN6google8protobuf2io20ZeroCopyOutputStreamE V
_ZTIN6google8protobuf2io25CopyingInputStreamAdaptorE V
_ZTIN6google8protobuf2io26CopyingOutputStreamAdaptorE V
_ZTIN6google8protobuf7ClosureE V
_ZTIN6google8protobuf7strings10ByteSourceE V
_ZTIN6google8protobuf7strings14StringByteSinkE V
_ZTIN6google8protobuf7strings15ArrayByteSourceE V
_ZTIN6google8protobuf7strings15LimitByteSourceE V
_ZTIN6google8protobuf7strings20CheckedArrayByteSinkE V
_ZTIN6google8protobuf7strings20GrowingArrayByteSinkE V
_ZTIN6google8protobuf7strings22UncheckedArrayByteSinkE V
_ZTIN6google8protobuf7strings8ByteSinkE V
_ZTIN6google8protobuf8internal12FieldSkipperE V
_ZTIN6google8protobuf8internal15ExtensionFinderE V
_ZTIN6google8protobuf8internal16FunctionClosure0E V
_ZTIN6google8protobuf8internal20RepeatedPtrFieldBaseE V
_ZTIN6google8protobuf8internal24GeneratedExtensionFinderE V
_ZTIN6google8protobuf8internal29CodedOutputStreamFieldSkipperE V
_ZTINSt7__cxx1112basic_stringIcSt11char_traitsIcESaIcEEE V
_ZTSN6google8protobuf11MessageLiteE V
_ZTSN6google8protobuf13RepeatedFieldIbEE V
_ZTSN6google8protobuf13RepeatedFieldIdEE V
_ZTSN6google8protobuf13RepeatedFieldIfEE V
_ZTSN6google8protobuf13RepeatedFieldIiEE V
_ZTSN6google8protobuf13RepeatedFieldIjEE V
_ZTSN6google8protobuf13RepeatedFieldIlEE V
_ZTSN6google8protobuf13RepeatedFieldImEE V
_ZTSN6google8protobuf14FatalExceptionE V
_ZTSN6google8protobuf16RepeatedPtrFieldINS0_11MessageLiteEEE V
_ZTSN6google8protobuf16RepeatedPtrFieldINSt7__cxx1112basic_stringIcSt11char_traitsIcESaIcEEEEE V
_ZTSN6google8protobuf2io16ArrayInputStreamE V
_ZTSN6google8protobuf2io17ArrayOutputStreamE V
_ZTSN6google8protobuf2io18CopyingInputStreamE V
_ZTSN6google8protobuf2io18StringOutputStreamE V
_ZTSN6google8protobuf2io19ZeroCopyInputStreamE V
_ZTSN6google8protobuf2io20ZeroCopyOutputStreamE V
_ZTSN6google8protobuf2io25CopyingInputStreamAdaptorE V
_ZTSN6google8protobuf2io26CopyingOutputStreamAdaptorE V
_ZTSN6google8protobuf7ClosureE V
_ZTSN6google8protobuf7strings10ByteSourceE V
_ZTSN6google8protobuf7strings14StringByteSinkE V
_ZTSN6google8protobuf7strings15ArrayByteSourceE V
_ZTSN6google8protobuf7strings15LimitByteSourceE V
_ZTSN6google8protobuf7strings20CheckedArrayByteSinkE V
_ZTSN6google8protobuf7strings20GrowingArrayByteSinkE V
_ZTSN6google8protobuf7strings22UncheckedArrayByteSinkE V
_ZTSN6google8protobuf7strings8ByteSinkE V
_ZTSN6google8protobuf8internal12FieldSkipperE V
_ZTSN6google8protobuf8internal15ExtensionFinderE V
_ZTSN6google8protobuf8internal16FunctionClosure0E V
_ZTSN6google8protobuf8internal20RepeatedPtrFieldBaseE V
_ZTSN6google8protobuf8internal24GeneratedExtensionFinderE V
_ZTSN6google8protobuf8internal29CodedOutputStreamFieldSkipperE V
_ZTSNSt7__cxx1112basic_stringIcSt11char_traitsIcESaIcEEE V
_ZTVN6google8protobuf11MessageLiteE V
_ZTVN6google8protobuf14FatalExceptionE V
_ZTVN6google8protobuf2io16ArrayInputStreamE V
_ZTVN6google8protobuf2io17ArrayOutputStreamE V
_ZTVN6google8protobuf2io18CopyingInputStreamE V
_ZTVN6google8protobuf2io18StringOutputStreamE V
_ZTVN6google8protobuf2io20ZeroCopyOutputStreamE V
_ZTVN6google8protobuf2io25CopyingInputStreamAdaptorE V
_ZTVN6google8protobuf2io26CopyingOutputStreamAdaptorE V
_ZTVN6google8protobuf7ClosureE V
_ZTVN6google8protobuf7strings10ByteSourceE V
_ZTVN6google8protobuf7strings14StringByteSinkE V
_ZTVN6google8protobuf7strings15ArrayByteSourceE V
_ZTVN6google8protobuf7strings15LimitByteSourceE V
_ZTVN6google8protobuf7strings20CheckedArrayByteSinkE V
_ZTVN6google8protobuf7strings20GrowingArrayByteSinkE V
_ZTVN6google8protobuf7strings22UncheckedArrayByteSinkE V
_ZTVN6google8protobuf7strings8ByteSinkE V
_ZTVN6google8protobuf8internal12FieldSkipperE V
_ZTVN6google8protobuf8internal15ExtensionFinderE V
_ZTVN6google8protobuf8internal16FunctionClosure0E V
_ZTVN6google8protobuf8internal24GeneratedExtensionFinderE V
_ZTVN6google8protobuf8internal29CodedOutputStreamFieldSkipperE V
__bss_start B
_edata D
_end B
_fini T
_init T
